	.section	__TEXT,__text,regular,pure_instructions
	.build_version macos, 15, 0	sdk_version 15, 2
	.globl	__ZN4Time9TimeToIdxERKNSt3__112basic_stringIcNS0_11char_traitsIcEENS0_9allocatorIcEEEE ; -- Begin function _ZN4Time9TimeToIdxERKNSt3__112basic_stringIcNS0_11char_traitsIcEENS0_9allocatorIcEEEE
	.p2align	2
__ZN4Time9TimeToIdxERKNSt3__112basic_stringIcNS0_11char_traitsIcEENS0_9allocatorIcEEEE: ; @_ZN4Time9TimeToIdxERKNSt3__112basic_stringIcNS0_11char_traitsIcEENS0_9allocatorIcEEEE
Lfunc_begin0:
	.cfi_startproc
	.cfi_personality 155, ___gxx_personality_v0
	.cfi_lsda 16, Lexception0
; %bb.0:
	sub	sp, sp, #176
	stp	x29, x30, [sp, #160]            ; 16-byte Folded Spill
	add	x29, sp, #160
	.cfi_def_cfa w29, 16
	.cfi_offset w30, -8
	.cfi_offset w29, -16
	stur	x0, [x29, #-16]
	ldur	x0, [x29, #-16]
	bl	__ZNKSt3__112basic_stringIcNS_11char_traitsIcEENS_9allocatorIcEEE6lengthB8ne180100Ev
	subs	x8, x0, #4
	cset	w8, eq
	tbnz	w8, #0, LBB0_2
	b	LBB0_1
LBB0_1:
	mov	w8, #96                         ; =0x60
	sturb	w8, [x29, #-1]
	b	LBB0_21
LBB0_2:
	sub	x8, x29, #60
	sturb	wzr, [x29, #-60]
	mov	w9, #15                         ; =0xf
	sturb	w9, [x29, #-59]
	mov	w9, #30                         ; =0x1e
	sturb	w9, [x29, #-58]
	mov	w9, #45                         ; =0x2d
	sturb	w9, [x29, #-57]
	stur	x8, [x29, #-56]
	mov	x8, #4                          ; =0x4
	stur	x8, [x29, #-48]
	ldur	x1, [x29, #-56]
	ldur	x2, [x29, #-48]
Ltmp0:
	sub	x0, x29, #40
	bl	__ZNSt3__16vectorIhNS_9allocatorIhEEEC1B8ne180100ESt16initializer_listIhE
Ltmp1:
	b	LBB0_3
LBB0_3:
	ldur	x0, [x29, #-16]
Ltmp2:
	add	x8, sp, #72
	mov	x1, #0                          ; =0x0
	mov	x2, #2                          ; =0x2
	bl	__ZNKSt3__112basic_stringIcNS_11char_traitsIcEENS_9allocatorIcEEE6substrB8ne180100Emm
Ltmp3:
	b	LBB0_4
LBB0_4:
Ltmp4:
	add	x0, sp, #72
	mov	x1, #0                          ; =0x0
	mov	w2, #10                         ; =0xa
	bl	__ZNSt3__14stolERKNS_12basic_stringIcNS_11char_traitsIcEENS_9allocatorIcEEEEPmi
	str	x0, [sp, #16]                   ; 8-byte Folded Spill
Ltmp5:
	b	LBB0_5
LBB0_5:
	add	x0, sp, #72
	bl	__ZNSt3__112basic_stringIcNS_11char_traitsIcEENS_9allocatorIcEEED1Ev
	ldr	x8, [sp, #16]                   ; 8-byte Folded Reload
	sturb	w8, [x29, #-61]
	ldur	x0, [x29, #-16]
Ltmp6:
	add	x8, sp, #40
	mov	x2, #2                          ; =0x2
	mov	x1, x2
	bl	__ZNKSt3__112basic_stringIcNS_11char_traitsIcEENS_9allocatorIcEEE6substrB8ne180100Emm
Ltmp7:
	b	LBB0_6
LBB0_6:
Ltmp8:
	add	x0, sp, #40
	mov	x1, #0                          ; =0x0
	mov	w2, #10                         ; =0xa
	bl	__ZNSt3__14stolERKNS_12basic_stringIcNS_11char_traitsIcEENS_9allocatorIcEEEEPmi
	str	x0, [sp, #8]                    ; 8-byte Folded Spill
Ltmp9:
	b	LBB0_7
LBB0_7:
	add	x0, sp, #40
	bl	__ZNSt3__112basic_stringIcNS_11char_traitsIcEENS_9allocatorIcEEED1Ev
	ldr	x8, [sp, #8]                    ; 8-byte Folded Reload
	strb	w8, [sp, #71]
	ldrb	w8, [sp, #71]
	subs	w8, w8, #60
	cset	w8, lt
	tbnz	w8, #0, LBB0_9
	b	LBB0_8
LBB0_8:
	mov	w8, #96                         ; =0x60
	sturb	w8, [x29, #-1]
	mov	w8, #1                          ; =0x1
	str	w8, [sp, #36]
	b	LBB0_20
LBB0_9:
	ldurb	w8, [x29, #-61]
	subs	w8, w8, #24
	cset	w8, lt
	tbnz	w8, #0, LBB0_11
	b	LBB0_10
LBB0_10:
	mov	w8, #96                         ; =0x60
	sturb	w8, [x29, #-1]
	mov	w8, #1                          ; =0x1
	str	w8, [sp, #36]
	b	LBB0_20
LBB0_11:
	strb	wzr, [sp, #35]
	str	wzr, [sp, #28]
	b	LBB0_12
LBB0_12:                                ; =>This Inner Loop Header: Depth=1
	ldr	w8, [sp, #28]
	subs	w8, w8, #4
	cset	w8, ge
	tbnz	w8, #0, LBB0_17
	b	LBB0_13
LBB0_13:                                ;   in Loop: Header=BB0_12 Depth=1
	ldrsw	x1, [sp, #28]
	sub	x0, x29, #40
	bl	__ZNSt3__16vectorIhNS_9allocatorIhEEEixB8ne180100Em
	ldrb	w8, [x0]
	ldrb	w9, [sp, #71]
	subs	w8, w8, w9
	cset	w8, ne
	tbnz	w8, #0, LBB0_15
	b	LBB0_14
LBB0_14:                                ;   in Loop: Header=BB0_12 Depth=1
	mov	w8, #1                          ; =0x1
	strb	w8, [sp, #35]
	b	LBB0_15
LBB0_15:                                ;   in Loop: Header=BB0_12 Depth=1
	b	LBB0_16
LBB0_16:                                ;   in Loop: Header=BB0_12 Depth=1
	ldr	w8, [sp, #28]
	add	w8, w8, #1
	str	w8, [sp, #28]
	b	LBB0_12
LBB0_17:
	ldrb	w8, [sp, #35]
	subs	w8, w8, #0
	cset	w8, ne
	tbnz	w8, #0, LBB0_19
	b	LBB0_18
LBB0_18:
	mov	w8, #96                         ; =0x60
	sturb	w8, [x29, #-1]
	mov	w8, #1                          ; =0x1
	str	w8, [sp, #36]
	b	LBB0_20
LBB0_19:
	ldurb	w8, [x29, #-61]
	mov	w9, #60                         ; =0x3c
	mul	w8, w8, w9
	ldrb	w9, [sp, #71]
	add	w8, w8, w9
	mov	w9, #15                         ; =0xf
	sdiv	w8, w8, w9
	strb	w8, [sp, #27]
	ldrb	w8, [sp, #27]
	sturb	w8, [x29, #-1]
	mov	w8, #1                          ; =0x1
	str	w8, [sp, #36]
	b	LBB0_20
LBB0_20:
	sub	x0, x29, #40
	bl	__ZNSt3__16vectorIhNS_9allocatorIhEEED1B8ne180100Ev
	b	LBB0_21
LBB0_21:
	ldurb	w0, [x29, #-1]
	ldp	x29, x30, [sp, #160]            ; 16-byte Folded Reload
	add	sp, sp, #176
	ret
LBB0_22:
Ltmp10:
	bl	___clang_call_terminate
Lfunc_end0:
	.cfi_endproc
	.section	__TEXT,__gcc_except_tab
	.p2align	2, 0x0
GCC_except_table0:
Lexception0:
	.byte	255                             ; @LPStart Encoding = omit
	.byte	155                             ; @TType Encoding = indirect pcrel sdata4
	.uleb128 Lttbase0-Lttbaseref0
Lttbaseref0:
	.byte	1                               ; Call site Encoding = uleb128
	.uleb128 Lcst_end0-Lcst_begin0
Lcst_begin0:
	.uleb128 Ltmp0-Lfunc_begin0             ; >> Call Site 1 <<
	.uleb128 Ltmp9-Ltmp0                    ;   Call between Ltmp0 and Ltmp9
	.uleb128 Ltmp10-Lfunc_begin0            ;     jumps to Ltmp10
	.byte	1                               ;   On action: 1
Lcst_end0:
	.byte	1                               ; >> Action Record 1 <<
                                        ;   Catch TypeInfo 1
	.byte	0                               ;   No further actions
	.p2align	2, 0x0
                                        ; >> Catch TypeInfos <<
	.long	0                               ; TypeInfo 1
Lttbase0:
	.p2align	2, 0x0
                                        ; -- End function
	.section	__TEXT,__text,regular,pure_instructions
	.private_extern	__ZNKSt3__112basic_stringIcNS_11char_traitsIcEENS_9allocatorIcEEE6lengthB8ne180100Ev ; -- Begin function _ZNKSt3__112basic_stringIcNS_11char_traitsIcEENS_9allocatorIcEEE6lengthB8ne180100Ev
	.globl	__ZNKSt3__112basic_stringIcNS_11char_traitsIcEENS_9allocatorIcEEE6lengthB8ne180100Ev
	.weak_definition	__ZNKSt3__112basic_stringIcNS_11char_traitsIcEENS_9allocatorIcEEE6lengthB8ne180100Ev
	.p2align	2
__ZNKSt3__112basic_stringIcNS_11char_traitsIcEENS_9allocatorIcEEE6lengthB8ne180100Ev: ; @_ZNKSt3__112basic_stringIcNS_11char_traitsIcEENS_9allocatorIcEEE6lengthB8ne180100Ev
	.cfi_startproc
; %bb.0:
	sub	sp, sp, #32
	stp	x29, x30, [sp, #16]             ; 16-byte Folded Spill
	add	x29, sp, #16
	.cfi_def_cfa w29, 16
	.cfi_offset w30, -8
	.cfi_offset w29, -16
	str	x0, [sp, #8]
	ldr	x0, [sp, #8]
	bl	__ZNKSt3__112basic_stringIcNS_11char_traitsIcEENS_9allocatorIcEEE4sizeB8ne180100Ev
	ldp	x29, x30, [sp, #16]             ; 16-byte Folded Reload
	add	sp, sp, #32
	ret
	.cfi_endproc
                                        ; -- End function
	.private_extern	__ZNSt3__16vectorIhNS_9allocatorIhEEEC1B8ne180100ESt16initializer_listIhE ; -- Begin function _ZNSt3__16vectorIhNS_9allocatorIhEEEC1B8ne180100ESt16initializer_listIhE
	.globl	__ZNSt3__16vectorIhNS_9allocatorIhEEEC1B8ne180100ESt16initializer_listIhE
	.weak_def_can_be_hidden	__ZNSt3__16vectorIhNS_9allocatorIhEEEC1B8ne180100ESt16initializer_listIhE
	.p2align	2
__ZNSt3__16vectorIhNS_9allocatorIhEEEC1B8ne180100ESt16initializer_listIhE: ; @_ZNSt3__16vectorIhNS_9allocatorIhEEEC1B8ne180100ESt16initializer_listIhE
	.cfi_startproc
; %bb.0:
	sub	sp, sp, #48
	stp	x29, x30, [sp, #32]             ; 16-byte Folded Spill
	add	x29, sp, #32
	.cfi_def_cfa w29, 16
	.cfi_offset w30, -8
	.cfi_offset w29, -16
	str	x1, [sp, #16]
	str	x2, [sp, #24]
	str	x0, [sp, #8]
	ldr	x0, [sp, #8]
	str	x0, [sp]                        ; 8-byte Folded Spill
	ldr	x1, [sp, #16]
	ldr	x2, [sp, #24]
	bl	__ZNSt3__16vectorIhNS_9allocatorIhEEEC2B8ne180100ESt16initializer_listIhE
	ldr	x0, [sp]                        ; 8-byte Folded Reload
	ldp	x29, x30, [sp, #32]             ; 16-byte Folded Reload
	add	sp, sp, #48
	ret
	.cfi_endproc
                                        ; -- End function
	.private_extern	___clang_call_terminate ; -- Begin function __clang_call_terminate
	.globl	___clang_call_terminate
	.weak_definition	___clang_call_terminate
	.p2align	2
___clang_call_terminate:                ; @__clang_call_terminate
	.cfi_startproc
; %bb.0:
	stp	x29, x30, [sp, #-16]!           ; 16-byte Folded Spill
	mov	x29, sp
	.cfi_def_cfa w29, 16
	.cfi_offset w30, -8
	.cfi_offset w29, -16
	bl	___cxa_begin_catch
	bl	__ZSt9terminatev
	.cfi_endproc
                                        ; -- End function
	.private_extern	__ZNKSt3__112basic_stringIcNS_11char_traitsIcEENS_9allocatorIcEEE6substrB8ne180100Emm ; -- Begin function _ZNKSt3__112basic_stringIcNS_11char_traitsIcEENS_9allocatorIcEEE6substrB8ne180100Emm
	.globl	__ZNKSt3__112basic_stringIcNS_11char_traitsIcEENS_9allocatorIcEEE6substrB8ne180100Emm
	.weak_definition	__ZNKSt3__112basic_stringIcNS_11char_traitsIcEENS_9allocatorIcEEE6substrB8ne180100Emm
	.p2align	2
__ZNKSt3__112basic_stringIcNS_11char_traitsIcEENS_9allocatorIcEEE6substrB8ne180100Emm: ; @_ZNKSt3__112basic_stringIcNS_11char_traitsIcEENS_9allocatorIcEEE6substrB8ne180100Emm
	.cfi_startproc
; %bb.0:
	sub	sp, sp, #96
	stp	x29, x30, [sp, #80]             ; 16-byte Folded Spill
	add	x29, sp, #80
	.cfi_def_cfa w29, 16
	.cfi_offset w30, -8
	.cfi_offset w29, -16
	str	x8, [sp]                        ; 8-byte Folded Spill
	stur	x8, [x29, #-8]
	stur	x0, [x29, #-16]
	stur	x1, [x29, #-24]
	stur	x2, [x29, #-32]
	ldur	x8, [x29, #-16]
	str	x8, [sp, #8]                    ; 8-byte Folded Spill
	ldur	x8, [x29, #-24]
	str	x8, [sp, #16]                   ; 8-byte Folded Spill
	ldur	x8, [x29, #-32]
	str	x8, [sp, #24]                   ; 8-byte Folded Spill
	sub	x0, x29, #33
	str	x0, [sp, #32]                   ; 8-byte Folded Spill
	bl	__ZNSt3__19allocatorIcEC1B8ne180100Ev
	ldr	x0, [sp]                        ; 8-byte Folded Reload
	ldr	x1, [sp, #8]                    ; 8-byte Folded Reload
	ldr	x2, [sp, #16]                   ; 8-byte Folded Reload
	ldr	x3, [sp, #24]                   ; 8-byte Folded Reload
	ldr	x4, [sp, #32]                   ; 8-byte Folded Reload
	bl	__ZNSt3__112basic_stringIcNS_11char_traitsIcEENS_9allocatorIcEEEC1ERKS5_mmRKS4_
	ldp	x29, x30, [sp, #80]             ; 16-byte Folded Reload
	add	sp, sp, #96
	ret
	.cfi_endproc
                                        ; -- End function
	.private_extern	__ZNSt3__16vectorIhNS_9allocatorIhEEEixB8ne180100Em ; -- Begin function _ZNSt3__16vectorIhNS_9allocatorIhEEEixB8ne180100Em
	.globl	__ZNSt3__16vectorIhNS_9allocatorIhEEEixB8ne180100Em
	.weak_definition	__ZNSt3__16vectorIhNS_9allocatorIhEEEixB8ne180100Em
	.p2align	2
__ZNSt3__16vectorIhNS_9allocatorIhEEEixB8ne180100Em: ; @_ZNSt3__16vectorIhNS_9allocatorIhEEEixB8ne180100Em
	.cfi_startproc
; %bb.0:
	sub	sp, sp, #16
	.cfi_def_cfa_offset 16
	str	x0, [sp, #8]
	str	x1, [sp]
	ldr	x8, [sp, #8]
	ldr	x8, [x8]
	ldr	x9, [sp]
	add	x0, x8, x9
	add	sp, sp, #16
	ret
	.cfi_endproc
                                        ; -- End function
	.private_extern	__ZNSt3__16vectorIhNS_9allocatorIhEEED1B8ne180100Ev ; -- Begin function _ZNSt3__16vectorIhNS_9allocatorIhEEED1B8ne180100Ev
	.globl	__ZNSt3__16vectorIhNS_9allocatorIhEEED1B8ne180100Ev
	.weak_def_can_be_hidden	__ZNSt3__16vectorIhNS_9allocatorIhEEED1B8ne180100Ev
	.p2align	2
__ZNSt3__16vectorIhNS_9allocatorIhEEED1B8ne180100Ev: ; @_ZNSt3__16vectorIhNS_9allocatorIhEEED1B8ne180100Ev
	.cfi_startproc
; %bb.0:
	sub	sp, sp, #32
	stp	x29, x30, [sp, #16]             ; 16-byte Folded Spill
	add	x29, sp, #16
	.cfi_def_cfa w29, 16
	.cfi_offset w30, -8
	.cfi_offset w29, -16
	str	x0, [sp, #8]
	ldr	x0, [sp, #8]
	str	x0, [sp]                        ; 8-byte Folded Spill
	bl	__ZNSt3__16vectorIhNS_9allocatorIhEEED2B8ne180100Ev
	ldr	x0, [sp]                        ; 8-byte Folded Reload
	ldp	x29, x30, [sp, #16]             ; 16-byte Folded Reload
	add	sp, sp, #32
	ret
	.cfi_endproc
                                        ; -- End function
	.globl	__ZN4Time9IdxToTimeEh           ; -- Begin function _ZN4Time9IdxToTimeEh
	.p2align	2
__ZN4Time9IdxToTimeEh:                  ; @_ZN4Time9IdxToTimeEh
Lfunc_begin1:
	.cfi_startproc
	.cfi_personality 155, ___gxx_personality_v0
	.cfi_lsda 16, Lexception1
; %bb.0:
	sub	sp, sp, #192
	stp	x29, x30, [sp, #176]            ; 16-byte Folded Spill
	add	x29, sp, #176
	.cfi_def_cfa w29, 16
	.cfi_offset w30, -8
	.cfi_offset w29, -16
	sturb	w0, [x29, #-9]
	ldurb	w8, [x29, #-9]
	subs	w8, w8, #96
	cset	w8, ne
	tbnz	w8, #0, LBB7_2
	b	LBB7_1
LBB7_1:
	adrp	x8, l_.str@PAGE
	add	x8, x8, l_.str@PAGEOFF
	stur	x8, [x29, #-8]
	b	LBB7_32
LBB7_2:
	sturb	wzr, [x29, #-10]
	sturb	wzr, [x29, #-11]
	b	LBB7_3
LBB7_3:                                 ; =>This Inner Loop Header: Depth=1
	ldurb	w8, [x29, #-9]
	subs	w8, w8, #4
	cset	w8, lt
	tbnz	w8, #0, LBB7_5
	b	LBB7_4
LBB7_4:                                 ;   in Loop: Header=BB7_3 Depth=1
	ldurb	w8, [x29, #-10]
	add	w8, w8, #1
	sturb	w8, [x29, #-10]
	ldurb	w8, [x29, #-9]
	subs	w8, w8, #4
	sturb	w8, [x29, #-9]
	b	LBB7_3
LBB7_5:
	ldurb	w8, [x29, #-9]
	mov	w9, #15                         ; =0xf
	mul	w9, w8, w9
	ldurb	w8, [x29, #-11]
	add	w8, w8, w9
	sturb	w8, [x29, #-11]
	ldurb	w0, [x29, #-10]
Ltmp12:
	sub	x8, x29, #40
	bl	__ZNSt3__19to_stringEi
Ltmp13:
	b	LBB7_6
LBB7_6:
	sub	x0, x29, #40
	bl	__ZNKSt3__112basic_stringIcNS_11char_traitsIcEENS_9allocatorIcEEE6lengthB8ne180100Ev
	subs	x8, x0, #2
	cset	w8, eq
	tbnz	w8, #0, LBB7_20
	b	LBB7_7
LBB7_7:
	ldurb	w8, [x29, #-10]
	str	w8, [sp, #36]                   ; 4-byte Folded Spill
	subs	w8, w8, #10
	cset	w8, eq
	tbnz	w8, #0, LBB7_9
	b	LBB7_8
LBB7_8:
	ldr	w8, [sp, #36]                   ; 4-byte Folded Reload
	subs	w8, w8, #20
	cset	w8, eq
	tbnz	w8, #0, LBB7_11
	b	LBB7_13
LBB7_9:
Ltmp14:
	sub	x0, x29, #40
	adrp	x1, l_.str.1@PAGE
	add	x1, x1, l_.str.1@PAGEOFF
	bl	__ZNSt3__112basic_stringIcNS_11char_traitsIcEENS_9allocatorIcEEEaSB8ne180100EPKc
Ltmp15:
	b	LBB7_10
LBB7_10:
	b	LBB7_11
LBB7_11:
Ltmp16:
	sub	x0, x29, #40
	adrp	x1, l_.str.2@PAGE
	add	x1, x1, l_.str.2@PAGEOFF
	bl	__ZNSt3__112basic_stringIcNS_11char_traitsIcEENS_9allocatorIcEEEaSB8ne180100EPKc
Ltmp17:
	b	LBB7_12
LBB7_12:
	b	LBB7_13
LBB7_13:
Ltmp18:
	sub	x0, x29, #40
	adrp	x1, l_.str.3@PAGE
	add	x1, x1, l_.str.3@PAGEOFF
	bl	__ZNSt3__112basic_stringIcNS_11char_traitsIcEENS_9allocatorIcEEEaSB8ne180100EPKc
Ltmp19:
	b	LBB7_14
LBB7_14:
	b	LBB7_15
LBB7_15:
	ldurb	w8, [x29, #-10]
	subs	w8, w8, #10
	cset	w8, ge
	tbnz	w8, #0, LBB7_19
	b	LBB7_16
LBB7_16:
	ldurb	w0, [x29, #-10]
Ltmp20:
	add	x8, sp, #88
	bl	__ZNSt3__19to_stringEi
Ltmp21:
	b	LBB7_17
LBB7_17:
Ltmp22:
	sub	x8, x29, #64
	adrp	x0, l_.str.4@PAGE
	add	x0, x0, l_.str.4@PAGEOFF
	add	x1, sp, #88
	bl	__ZNSt3__1plB8ne180100IcNS_11char_traitsIcEENS_9allocatorIcEEEENS_12basic_stringIT_T0_T1_EEPKS6_OS9_
Ltmp23:
	b	LBB7_18
LBB7_18:
	sub	x0, x29, #40
	sub	x1, x29, #64
	str	x1, [sp, #24]                   ; 8-byte Folded Spill
	bl	__ZNSt3__112basic_stringIcNS_11char_traitsIcEENS_9allocatorIcEEEaSB8ne180100EOS5_
	ldr	x0, [sp, #24]                   ; 8-byte Folded Reload
	bl	__ZNSt3__112basic_stringIcNS_11char_traitsIcEENS_9allocatorIcEEED1Ev
	add	x0, sp, #88
	bl	__ZNSt3__112basic_stringIcNS_11char_traitsIcEENS_9allocatorIcEEED1Ev
	b	LBB7_19
LBB7_19:
	b	LBB7_20
LBB7_20:
	ldurb	w0, [x29, #-11]
Ltmp24:
	add	x8, sp, #64
	bl	__ZNSt3__19to_stringEi
Ltmp25:
	b	LBB7_21
LBB7_21:
	ldurb	w8, [x29, #-11]
	subs	w8, w8, #0
	cset	w8, ne
	tbnz	w8, #0, LBB7_24
	b	LBB7_22
LBB7_22:
Ltmp26:
	add	x0, sp, #64
	adrp	x1, l_.str.5@PAGE
	add	x1, x1, l_.str.5@PAGEOFF
	bl	__ZNSt3__112basic_stringIcNS_11char_traitsIcEENS_9allocatorIcEEEaSB8ne180100EPKc
Ltmp27:
	b	LBB7_23
LBB7_23:
	b	LBB7_24
LBB7_24:
	ldurb	w8, [x29, #-11]
	subs	w8, w8, #30
	cset	w8, ne
	tbnz	w8, #0, LBB7_27
	b	LBB7_25
LBB7_25:
Ltmp28:
	add	x0, sp, #64
	adrp	x1, l_.str.6@PAGE
	add	x1, x1, l_.str.6@PAGEOFF
	bl	__ZNSt3__112basic_stringIcNS_11char_traitsIcEENS_9allocatorIcEEEaSB8ne180100EPKc
Ltmp29:
	b	LBB7_26
LBB7_26:
	b	LBB7_27
LBB7_27:
	adrp	x8, __ZGVZN4Time9IdxToTimeEhE7timeStr@PAGE
	add	x8, x8, __ZGVZN4Time9IdxToTimeEhE7timeStr@PAGEOFF
	ldaprb	w8, [x8]
	and	w8, w8, #0x1
	ands	w8, w8, #0xff
	cset	w8, ne
	tbnz	w8, #0, LBB7_30
	b	LBB7_28
LBB7_28:
	adrp	x0, __ZGVZN4Time9IdxToTimeEhE7timeStr@PAGE
	add	x0, x0, __ZGVZN4Time9IdxToTimeEhE7timeStr@PAGEOFF
	bl	___cxa_guard_acquire
	subs	w8, w0, #0
	cset	w8, eq
	tbnz	w8, #0, LBB7_30
	b	LBB7_29
LBB7_29:
	adrp	x0, __ZZN4Time9IdxToTimeEhE7timeStr@PAGE
	add	x0, x0, __ZZN4Time9IdxToTimeEhE7timeStr@PAGEOFF
	str	x0, [sp, #16]                   ; 8-byte Folded Spill
	bl	__ZNSt3__112basic_stringIcNS_11char_traitsIcEENS_9allocatorIcEEEC1B8ne180100Ev
	ldr	x1, [sp, #16]                   ; 8-byte Folded Reload
	adrp	x0, __ZNSt3__112basic_stringIcNS_11char_traitsIcEENS_9allocatorIcEEED1Ev@GOTPAGE
	ldr	x0, [x0, __ZNSt3__112basic_stringIcNS_11char_traitsIcEENS_9allocatorIcEEED1Ev@GOTPAGEOFF]
	adrp	x2, ___dso_handle@PAGE
	add	x2, x2, ___dso_handle@PAGEOFF
	bl	___cxa_atexit
	adrp	x0, __ZGVZN4Time9IdxToTimeEhE7timeStr@PAGE
	add	x0, x0, __ZGVZN4Time9IdxToTimeEhE7timeStr@PAGEOFF
	bl	___cxa_guard_release
	b	LBB7_30
LBB7_30:
Ltmp30:
	add	x8, sp, #40
	sub	x0, x29, #40
	add	x1, sp, #64
	bl	__ZNSt3__1plB8ne180100IcNS_11char_traitsIcEENS_9allocatorIcEEEENS_12basic_stringIT_T0_T1_EERKS9_SB_
Ltmp31:
	b	LBB7_31
LBB7_31:
	adrp	x0, __ZZN4Time9IdxToTimeEhE7timeStr@PAGE
	add	x0, x0, __ZZN4Time9IdxToTimeEhE7timeStr@PAGEOFF
	str	x0, [sp, #8]                    ; 8-byte Folded Spill
	add	x1, sp, #40
	str	x1, [sp]                        ; 8-byte Folded Spill
	bl	__ZNSt3__112basic_stringIcNS_11char_traitsIcEENS_9allocatorIcEEEaSB8ne180100EOS5_
	ldr	x0, [sp]                        ; 8-byte Folded Reload
	bl	__ZNSt3__112basic_stringIcNS_11char_traitsIcEENS_9allocatorIcEEED1Ev
	ldr	x0, [sp, #8]                    ; 8-byte Folded Reload
	bl	__ZNKSt3__112basic_stringIcNS_11char_traitsIcEENS_9allocatorIcEEE5c_strB8ne180100Ev
	stur	x0, [x29, #-8]
	add	x0, sp, #64
	bl	__ZNSt3__112basic_stringIcNS_11char_traitsIcEENS_9allocatorIcEEED1Ev
	sub	x0, x29, #40
	bl	__ZNSt3__112basic_stringIcNS_11char_traitsIcEENS_9allocatorIcEEED1Ev
	b	LBB7_32
LBB7_32:
	ldur	x0, [x29, #-8]
	ldp	x29, x30, [sp, #176]            ; 16-byte Folded Reload
	add	sp, sp, #192
	ret
LBB7_33:
Ltmp32:
	bl	___clang_call_terminate
Lfunc_end1:
	.cfi_endproc
	.section	__TEXT,__gcc_except_tab
	.p2align	2, 0x0
GCC_except_table7:
Lexception1:
	.byte	255                             ; @LPStart Encoding = omit
	.byte	155                             ; @TType Encoding = indirect pcrel sdata4
	.uleb128 Lttbase1-Lttbaseref1
Lttbaseref1:
	.byte	1                               ; Call site Encoding = uleb128
	.uleb128 Lcst_end1-Lcst_begin1
Lcst_begin1:
	.uleb128 Ltmp12-Lfunc_begin1            ; >> Call Site 1 <<
	.uleb128 Ltmp31-Ltmp12                  ;   Call between Ltmp12 and Ltmp31
	.uleb128 Ltmp32-Lfunc_begin1            ;     jumps to Ltmp32
	.byte	1                               ;   On action: 1
Lcst_end1:
	.byte	1                               ; >> Action Record 1 <<
                                        ;   Catch TypeInfo 1
	.byte	0                               ;   No further actions
	.p2align	2, 0x0
                                        ; >> Catch TypeInfos <<
	.long	0                               ; TypeInfo 1
Lttbase1:
	.p2align	2, 0x0
                                        ; -- End function
	.section	__TEXT,__text,regular,pure_instructions
	.private_extern	__ZNSt3__112basic_stringIcNS_11char_traitsIcEENS_9allocatorIcEEEaSB8ne180100EPKc ; -- Begin function _ZNSt3__112basic_stringIcNS_11char_traitsIcEENS_9allocatorIcEEEaSB8ne180100EPKc
	.globl	__ZNSt3__112basic_stringIcNS_11char_traitsIcEENS_9allocatorIcEEEaSB8ne180100EPKc
	.weak_definition	__ZNSt3__112basic_stringIcNS_11char_traitsIcEENS_9allocatorIcEEEaSB8ne180100EPKc
	.p2align	2
__ZNSt3__112basic_stringIcNS_11char_traitsIcEENS_9allocatorIcEEEaSB8ne180100EPKc: ; @_ZNSt3__112basic_stringIcNS_11char_traitsIcEENS_9allocatorIcEEEaSB8ne180100EPKc
	.cfi_startproc
; %bb.0:
	sub	sp, sp, #32
	stp	x29, x30, [sp, #16]             ; 16-byte Folded Spill
	add	x29, sp, #16
	.cfi_def_cfa w29, 16
	.cfi_offset w30, -8
	.cfi_offset w29, -16
	str	x0, [sp, #8]
	str	x1, [sp]
	ldr	x0, [sp, #8]
	ldr	x1, [sp]
	bl	__ZNSt3__112basic_stringIcNS_11char_traitsIcEENS_9allocatorIcEEE6assignEPKc
	ldp	x29, x30, [sp, #16]             ; 16-byte Folded Reload
	add	sp, sp, #32
	ret
	.cfi_endproc
                                        ; -- End function
	.private_extern	__ZNSt3__1plB8ne180100IcNS_11char_traitsIcEENS_9allocatorIcEEEENS_12basic_stringIT_T0_T1_EEPKS6_OS9_ ; -- Begin function _ZNSt3__1plB8ne180100IcNS_11char_traitsIcEENS_9allocatorIcEEEENS_12basic_stringIT_T0_T1_EEPKS6_OS9_
	.globl	__ZNSt3__1plB8ne180100IcNS_11char_traitsIcEENS_9allocatorIcEEEENS_12basic_stringIT_T0_T1_EEPKS6_OS9_
	.weak_definition	__ZNSt3__1plB8ne180100IcNS_11char_traitsIcEENS_9allocatorIcEEEENS_12basic_stringIT_T0_T1_EEPKS6_OS9_
	.p2align	2
__ZNSt3__1plB8ne180100IcNS_11char_traitsIcEENS_9allocatorIcEEEENS_12basic_stringIT_T0_T1_EEPKS6_OS9_: ; @_ZNSt3__1plB8ne180100IcNS_11char_traitsIcEENS_9allocatorIcEEEENS_12basic_stringIT_T0_T1_EEPKS6_OS9_
	.cfi_startproc
; %bb.0:
	sub	sp, sp, #48
	stp	x29, x30, [sp, #32]             ; 16-byte Folded Spill
	add	x29, sp, #32
	.cfi_def_cfa w29, 16
	.cfi_offset w30, -8
	.cfi_offset w29, -16
	str	x8, [sp]                        ; 8-byte Folded Spill
	stur	x8, [x29, #-8]
	str	x0, [sp, #16]
	str	x1, [sp, #8]
	ldr	x0, [sp, #8]
	ldr	x2, [sp, #16]
	mov	x1, #0                          ; =0x0
	bl	__ZNSt3__112basic_stringIcNS_11char_traitsIcEENS_9allocatorIcEEE6insertEmPKc
	mov	x1, x0
	ldr	x0, [sp]                        ; 8-byte Folded Reload
	bl	__ZNSt3__112basic_stringIcNS_11char_traitsIcEENS_9allocatorIcEEEC1B8ne180100EOS5_
	ldp	x29, x30, [sp, #32]             ; 16-byte Folded Reload
	add	sp, sp, #48
	ret
	.cfi_endproc
                                        ; -- End function
	.private_extern	__ZNSt3__112basic_stringIcNS_11char_traitsIcEENS_9allocatorIcEEEaSB8ne180100EOS5_ ; -- Begin function _ZNSt3__112basic_stringIcNS_11char_traitsIcEENS_9allocatorIcEEEaSB8ne180100EOS5_
	.globl	__ZNSt3__112basic_stringIcNS_11char_traitsIcEENS_9allocatorIcEEEaSB8ne180100EOS5_
	.weak_definition	__ZNSt3__112basic_stringIcNS_11char_traitsIcEENS_9allocatorIcEEEaSB8ne180100EOS5_
	.p2align	2
__ZNSt3__112basic_stringIcNS_11char_traitsIcEENS_9allocatorIcEEEaSB8ne180100EOS5_: ; @_ZNSt3__112basic_stringIcNS_11char_traitsIcEENS_9allocatorIcEEEaSB8ne180100EOS5_
	.cfi_startproc
; %bb.0:
	sub	sp, sp, #48
	stp	x29, x30, [sp, #32]             ; 16-byte Folded Spill
	add	x29, sp, #32
	.cfi_def_cfa w29, 16
	.cfi_offset w30, -8
	.cfi_offset w29, -16
	stur	x0, [x29, #-8]
	str	x1, [sp, #16]
	ldur	x0, [x29, #-8]
	str	x0, [sp]                        ; 8-byte Folded Spill
	ldr	x1, [sp, #16]
	bl	__ZNSt3__112basic_stringIcNS_11char_traitsIcEENS_9allocatorIcEEE13__move_assignB8ne180100ERS5_NS_17integral_constantIbLb1EEE
	ldr	x0, [sp]                        ; 8-byte Folded Reload
	ldp	x29, x30, [sp, #32]             ; 16-byte Folded Reload
	add	sp, sp, #48
	ret
	.cfi_endproc
                                        ; -- End function
	.private_extern	__ZNSt3__112basic_stringIcNS_11char_traitsIcEENS_9allocatorIcEEEC1B8ne180100Ev ; -- Begin function _ZNSt3__112basic_stringIcNS_11char_traitsIcEENS_9allocatorIcEEEC1B8ne180100Ev
	.globl	__ZNSt3__112basic_stringIcNS_11char_traitsIcEENS_9allocatorIcEEEC1B8ne180100Ev
	.weak_def_can_be_hidden	__ZNSt3__112basic_stringIcNS_11char_traitsIcEENS_9allocatorIcEEEC1B8ne180100Ev
	.p2align	2
__ZNSt3__112basic_stringIcNS_11char_traitsIcEENS_9allocatorIcEEEC1B8ne180100Ev: ; @_ZNSt3__112basic_stringIcNS_11char_traitsIcEENS_9allocatorIcEEEC1B8ne180100Ev
	.cfi_startproc
; %bb.0:
	sub	sp, sp, #32
	stp	x29, x30, [sp, #16]             ; 16-byte Folded Spill
	add	x29, sp, #16
	.cfi_def_cfa w29, 16
	.cfi_offset w30, -8
	.cfi_offset w29, -16
	str	x0, [sp, #8]
	ldr	x0, [sp, #8]
	str	x0, [sp]                        ; 8-byte Folded Spill
	bl	__ZNSt3__112basic_stringIcNS_11char_traitsIcEENS_9allocatorIcEEEC2B8ne180100Ev
	ldr	x0, [sp]                        ; 8-byte Folded Reload
	ldp	x29, x30, [sp, #16]             ; 16-byte Folded Reload
	add	sp, sp, #32
	ret
	.cfi_endproc
                                        ; -- End function
	.private_extern	__ZNSt3__1plB8ne180100IcNS_11char_traitsIcEENS_9allocatorIcEEEENS_12basic_stringIT_T0_T1_EERKS9_SB_ ; -- Begin function _ZNSt3__1plB8ne180100IcNS_11char_traitsIcEENS_9allocatorIcEEEENS_12basic_stringIT_T0_T1_EERKS9_SB_
	.globl	__ZNSt3__1plB8ne180100IcNS_11char_traitsIcEENS_9allocatorIcEEEENS_12basic_stringIT_T0_T1_EERKS9_SB_
	.weak_definition	__ZNSt3__1plB8ne180100IcNS_11char_traitsIcEENS_9allocatorIcEEEENS_12basic_stringIT_T0_T1_EERKS9_SB_
	.p2align	2
__ZNSt3__1plB8ne180100IcNS_11char_traitsIcEENS_9allocatorIcEEEENS_12basic_stringIT_T0_T1_EERKS9_SB_: ; @_ZNSt3__1plB8ne180100IcNS_11char_traitsIcEENS_9allocatorIcEEEENS_12basic_stringIT_T0_T1_EERKS9_SB_
	.cfi_startproc
; %bb.0:
	sub	sp, sp, #128
	stp	x29, x30, [sp, #112]            ; 16-byte Folded Spill
	add	x29, sp, #112
	.cfi_def_cfa w29, 16
	.cfi_offset w30, -8
	.cfi_offset w29, -16
	str	x8, [sp, #16]                   ; 8-byte Folded Spill
	stur	x8, [x29, #-8]
	stur	x0, [x29, #-16]
	stur	x1, [x29, #-24]
	ldur	x0, [x29, #-16]
	bl	__ZNKSt3__112basic_stringIcNS_11char_traitsIcEENS_9allocatorIcEEE4sizeB8ne180100Ev
	stur	x0, [x29, #-32]
	ldur	x0, [x29, #-24]
	bl	__ZNKSt3__112basic_stringIcNS_11char_traitsIcEENS_9allocatorIcEEE4sizeB8ne180100Ev
	stur	x0, [x29, #-40]
	mov	w8, #1                          ; =0x1
	str	w8, [sp, #52]                   ; 4-byte Folded Spill
	mov	w8, #0                          ; =0x0
	str	w8, [sp, #48]                   ; 4-byte Folded Spill
	and	w8, w8, #0x1
	and	w8, w8, #0x1
	sturb	w8, [x29, #-41]
	ldur	x8, [x29, #-32]
	ldur	x9, [x29, #-40]
	add	x8, x8, x9
	str	x8, [sp, #8]                    ; 8-byte Folded Spill
	ldur	x0, [x29, #-16]
	bl	__ZNKSt3__112basic_stringIcNS_11char_traitsIcEENS_9allocatorIcEEE13get_allocatorB8ne180100Ev
	sub	x0, x29, #44
	bl	__ZNSt3__116allocator_traitsINS_9allocatorIcEEE37select_on_container_copy_constructionB8ne180100IS2_vvEES2_RKS2_
	ldr	x1, [sp, #8]                    ; 8-byte Folded Reload
	ldr	x0, [sp, #16]                   ; 8-byte Folded Reload
	sub	x2, x29, #43
	bl	__ZNSt3__112basic_stringIcNS_11char_traitsIcEENS_9allocatorIcEEEC1B8ne180100ENS_24__uninitialized_size_tagEmRKS4_
	ldr	x0, [sp, #16]                   ; 8-byte Folded Reload
	bl	__ZNSt3__112basic_stringIcNS_11char_traitsIcEENS_9allocatorIcEEE13__get_pointerB8ne180100Ev
	bl	__ZNSt3__112__to_addressB8ne180100IcEEPT_S2_
	str	x0, [sp, #56]
	ldr	x8, [sp, #56]
	str	x8, [sp, #24]                   ; 8-byte Folded Spill
	ldur	x0, [x29, #-16]
	bl	__ZNKSt3__112basic_stringIcNS_11char_traitsIcEENS_9allocatorIcEEE4dataB8ne180100Ev
	mov	x1, x0
	ldr	x0, [sp, #24]                   ; 8-byte Folded Reload
	ldur	x2, [x29, #-32]
	bl	__ZNSt3__111char_traitsIcE4copyB8ne180100EPcPKcm
	ldr	x8, [sp, #56]
	str	x8, [sp, #40]                   ; 8-byte Folded Spill
	ldur	x8, [x29, #-32]
	str	x8, [sp, #32]                   ; 8-byte Folded Spill
	ldur	x0, [x29, #-24]
	bl	__ZNKSt3__112basic_stringIcNS_11char_traitsIcEENS_9allocatorIcEEE4dataB8ne180100Ev
	ldr	x9, [sp, #32]                   ; 8-byte Folded Reload
	ldr	x8, [sp, #40]                   ; 8-byte Folded Reload
	mov	x1, x0
	ldur	x2, [x29, #-40]
	add	x0, x8, x9
	bl	__ZNSt3__111char_traitsIcE4copyB8ne180100EPcPKcm
	ldr	w2, [sp, #48]                   ; 4-byte Folded Reload
	ldr	x8, [sp, #56]
	ldur	x10, [x29, #-32]
	ldur	x9, [x29, #-40]
	add	x8, x8, x10
	add	x0, x8, x9
	mov	x1, #1                          ; =0x1
	bl	__ZNSt3__111char_traitsIcE6assignB8ne180100EPcmc
	ldr	w9, [sp, #52]                   ; 4-byte Folded Reload
	and	w8, w9, #0x1
	and	w8, w8, w9
	sturb	w8, [x29, #-41]
	ldurb	w8, [x29, #-41]
	tbnz	w8, #0, LBB12_2
	b	LBB12_1
LBB12_1:
	ldr	x0, [sp, #16]                   ; 8-byte Folded Reload
	bl	__ZNSt3__112basic_stringIcNS_11char_traitsIcEENS_9allocatorIcEEED1Ev
	b	LBB12_2
LBB12_2:
	ldp	x29, x30, [sp, #112]            ; 16-byte Folded Reload
	add	sp, sp, #128
	ret
	.cfi_endproc
                                        ; -- End function
	.private_extern	__ZNKSt3__112basic_stringIcNS_11char_traitsIcEENS_9allocatorIcEEE5c_strB8ne180100Ev ; -- Begin function _ZNKSt3__112basic_stringIcNS_11char_traitsIcEENS_9allocatorIcEEE5c_strB8ne180100Ev
	.globl	__ZNKSt3__112basic_stringIcNS_11char_traitsIcEENS_9allocatorIcEEE5c_strB8ne180100Ev
	.weak_definition	__ZNKSt3__112basic_stringIcNS_11char_traitsIcEENS_9allocatorIcEEE5c_strB8ne180100Ev
	.p2align	2
__ZNKSt3__112basic_stringIcNS_11char_traitsIcEENS_9allocatorIcEEE5c_strB8ne180100Ev: ; @_ZNKSt3__112basic_stringIcNS_11char_traitsIcEENS_9allocatorIcEEE5c_strB8ne180100Ev
	.cfi_startproc
; %bb.0:
	sub	sp, sp, #32
	stp	x29, x30, [sp, #16]             ; 16-byte Folded Spill
	add	x29, sp, #16
	.cfi_def_cfa w29, 16
	.cfi_offset w30, -8
	.cfi_offset w29, -16
	str	x0, [sp, #8]
	ldr	x0, [sp, #8]
	bl	__ZNKSt3__112basic_stringIcNS_11char_traitsIcEENS_9allocatorIcEEE4dataB8ne180100Ev
	ldp	x29, x30, [sp, #16]             ; 16-byte Folded Reload
	add	sp, sp, #32
	ret
	.cfi_endproc
                                        ; -- End function
	.section	__TEXT,__StaticInit,regular,pure_instructions
	.p2align	2                               ; -- Begin function __cxx_global_var_init
___cxx_global_var_init:                 ; @__cxx_global_var_init
	.cfi_startproc
; %bb.0:
	sub	sp, sp, #32
	stp	x29, x30, [sp, #16]             ; 16-byte Folded Spill
	add	x29, sp, #16
	.cfi_def_cfa w29, 16
	.cfi_offset w30, -8
	.cfi_offset w29, -16
	adrp	x0, __ZN12StringHasher6genIDsE@PAGE
	add	x0, x0, __ZN12StringHasher6genIDsE@PAGEOFF
	str	x0, [sp, #8]                    ; 8-byte Folded Spill
	bl	__ZNSt3__113unordered_setItNS_4hashItEENS_8equal_toItEENS_9allocatorItEEEC1B8ne180100Ev
	ldr	x1, [sp, #8]                    ; 8-byte Folded Reload
	adrp	x0, __ZNSt3__113unordered_setItNS_4hashItEENS_8equal_toItEENS_9allocatorItEEED1B8ne180100Ev@PAGE
	add	x0, x0, __ZNSt3__113unordered_setItNS_4hashItEENS_8equal_toItEENS_9allocatorItEEED1B8ne180100Ev@PAGEOFF
	adrp	x2, ___dso_handle@PAGE
	add	x2, x2, ___dso_handle@PAGEOFF
	bl	___cxa_atexit
	ldp	x29, x30, [sp, #16]             ; 16-byte Folded Reload
	add	sp, sp, #32
	ret
	.cfi_endproc
                                        ; -- End function
	.section	__TEXT,__text,regular,pure_instructions
	.private_extern	__ZNSt3__113unordered_setItNS_4hashItEENS_8equal_toItEENS_9allocatorItEEEC1B8ne180100Ev ; -- Begin function _ZNSt3__113unordered_setItNS_4hashItEENS_8equal_toItEENS_9allocatorItEEEC1B8ne180100Ev
	.globl	__ZNSt3__113unordered_setItNS_4hashItEENS_8equal_toItEENS_9allocatorItEEEC1B8ne180100Ev
	.weak_def_can_be_hidden	__ZNSt3__113unordered_setItNS_4hashItEENS_8equal_toItEENS_9allocatorItEEEC1B8ne180100Ev
	.p2align	2
__ZNSt3__113unordered_setItNS_4hashItEENS_8equal_toItEENS_9allocatorItEEEC1B8ne180100Ev: ; @_ZNSt3__113unordered_setItNS_4hashItEENS_8equal_toItEENS_9allocatorItEEEC1B8ne180100Ev
	.cfi_startproc
; %bb.0:
	sub	sp, sp, #32
	stp	x29, x30, [sp, #16]             ; 16-byte Folded Spill
	add	x29, sp, #16
	.cfi_def_cfa w29, 16
	.cfi_offset w30, -8
	.cfi_offset w29, -16
	str	x0, [sp, #8]
	ldr	x0, [sp, #8]
	str	x0, [sp]                        ; 8-byte Folded Spill
	bl	__ZNSt3__113unordered_setItNS_4hashItEENS_8equal_toItEENS_9allocatorItEEEC2B8ne180100Ev
	ldr	x0, [sp]                        ; 8-byte Folded Reload
	ldp	x29, x30, [sp, #16]             ; 16-byte Folded Reload
	add	sp, sp, #32
	ret
	.cfi_endproc
                                        ; -- End function
	.private_extern	__ZNSt3__113unordered_setItNS_4hashItEENS_8equal_toItEENS_9allocatorItEEED1B8ne180100Ev ; -- Begin function _ZNSt3__113unordered_setItNS_4hashItEENS_8equal_toItEENS_9allocatorItEEED1B8ne180100Ev
	.globl	__ZNSt3__113unordered_setItNS_4hashItEENS_8equal_toItEENS_9allocatorItEEED1B8ne180100Ev
	.weak_def_can_be_hidden	__ZNSt3__113unordered_setItNS_4hashItEENS_8equal_toItEENS_9allocatorItEEED1B8ne180100Ev
	.p2align	2
__ZNSt3__113unordered_setItNS_4hashItEENS_8equal_toItEENS_9allocatorItEEED1B8ne180100Ev: ; @_ZNSt3__113unordered_setItNS_4hashItEENS_8equal_toItEENS_9allocatorItEEED1B8ne180100Ev
	.cfi_startproc
; %bb.0:
	sub	sp, sp, #32
	stp	x29, x30, [sp, #16]             ; 16-byte Folded Spill
	add	x29, sp, #16
	.cfi_def_cfa w29, 16
	.cfi_offset w30, -8
	.cfi_offset w29, -16
	str	x0, [sp, #8]
	ldr	x0, [sp, #8]
	str	x0, [sp]                        ; 8-byte Folded Spill
	bl	__ZNSt3__113unordered_setItNS_4hashItEENS_8equal_toItEENS_9allocatorItEEED2B8ne180100Ev
	ldr	x0, [sp]                        ; 8-byte Folded Reload
	ldp	x29, x30, [sp, #16]             ; 16-byte Folded Reload
	add	sp, sp, #32
	ret
	.cfi_endproc
                                        ; -- End function
	.globl	__ZN12StringHasher12hashNameToIdERK6String ; -- Begin function _ZN12StringHasher12hashNameToIdERK6String
	.p2align	2
__ZN12StringHasher12hashNameToIdERK6String: ; @_ZN12StringHasher12hashNameToIdERK6String
	.cfi_startproc
; %bb.0:
	sub	sp, sp, #48
	stp	x29, x30, [sp, #32]             ; 16-byte Folded Spill
	add	x29, sp, #32
	.cfi_def_cfa w29, 16
	.cfi_offset w30, -8
	.cfi_offset w29, -16
	stur	x0, [x29, #-8]
	mov	w8, #5381                       ; =0x1505
	stur	w8, [x29, #-12]
	str	wzr, [sp, #16]
	b	LBB17_1
LBB17_1:                                ; =>This Inner Loop Header: Depth=1
	ldrsw	x8, [sp, #16]
	str	x8, [sp, #8]                    ; 8-byte Folded Spill
	ldur	x0, [x29, #-8]
	bl	__ZNK6String6lengthEv
	ldr	x8, [sp, #8]                    ; 8-byte Folded Reload
	subs	x8, x8, x0
	cset	w8, hs
	tbnz	w8, #0, LBB17_4
	b	LBB17_2
LBB17_2:                                ;   in Loop: Header=BB17_1 Depth=1
	ldur	w9, [x29, #-12]
	ldur	w8, [x29, #-12]
	add	w8, w8, w9, lsl #5
	str	w8, [sp, #4]                    ; 4-byte Folded Spill
	ldur	x0, [x29, #-8]
	ldrsw	x1, [sp, #16]
	bl	__ZNK6StringixEm
	ldr	w8, [sp, #4]                    ; 4-byte Folded Reload
	add	w8, w8, w0, sxtb
	stur	w8, [x29, #-12]
	b	LBB17_3
LBB17_3:                                ;   in Loop: Header=BB17_1 Depth=1
	ldr	w8, [sp, #16]
	add	w8, w8, #1
	str	w8, [sp, #16]
	b	LBB17_1
LBB17_4:
	ldur	w8, [x29, #-12]
	mov	w10, #4096                      ; =0x1000
	udiv	w9, w8, w10
	mul	w9, w9, w10
	subs	w8, w8, w9
	and	w0, w8, #0xffff
	ldp	x29, x30, [sp, #32]             ; 16-byte Folded Reload
	add	sp, sp, #48
	ret
	.cfi_endproc
                                        ; -- End function
	.globl	__ZNK6String6lengthEv           ; -- Begin function _ZNK6String6lengthEv
	.weak_definition	__ZNK6String6lengthEv
	.p2align	2
__ZNK6String6lengthEv:                  ; @_ZNK6String6lengthEv
	.cfi_startproc
; %bb.0:
	sub	sp, sp, #16
	.cfi_def_cfa_offset 16
	str	x0, [sp, #8]
	ldr	x8, [sp, #8]
	ldr	x0, [x8, #8]
	add	sp, sp, #16
	ret
	.cfi_endproc
                                        ; -- End function
	.globl	__ZNK6StringixEm                ; -- Begin function _ZNK6StringixEm
	.weak_definition	__ZNK6StringixEm
	.p2align	2
__ZNK6StringixEm:                       ; @_ZNK6StringixEm
	.cfi_startproc
; %bb.0:
	sub	sp, sp, #32
	.cfi_def_cfa_offset 32
	str	x0, [sp, #24]
	str	x1, [sp, #16]
	ldr	x9, [sp, #24]
	str	x9, [sp, #8]                    ; 8-byte Folded Spill
	ldr	x8, [sp, #16]
	ldr	x9, [x9, #8]
	subs	x8, x8, x9
	cset	w8, hs
	tbnz	w8, #0, LBB19_2
	b	LBB19_1
LBB19_1:
	ldr	x8, [sp, #8]                    ; 8-byte Folded Reload
	ldr	x8, [x8]
	ldr	x9, [sp, #16]
	add	x8, x8, x9
	ldrb	w8, [x8]
	str	w8, [sp, #4]                    ; 4-byte Folded Spill
	b	LBB19_3
LBB19_2:
	mov	w8, #0                          ; =0x0
	str	w8, [sp, #4]                    ; 4-byte Folded Spill
	b	LBB19_3
LBB19_3:
	ldr	w8, [sp, #4]                    ; 4-byte Folded Reload
	sxtb	w0, w8
	add	sp, sp, #32
	ret
	.cfi_endproc
                                        ; -- End function
	.globl	__ZN12StringHasher10secondHashERK6String ; -- Begin function _ZN12StringHasher10secondHashERK6String
	.p2align	2
__ZN12StringHasher10secondHashERK6String: ; @_ZN12StringHasher10secondHashERK6String
	.cfi_startproc
; %bb.0:
	sub	sp, sp, #48
	stp	x29, x30, [sp, #32]             ; 16-byte Folded Spill
	add	x29, sp, #32
	.cfi_def_cfa w29, 16
	.cfi_offset w30, -8
	.cfi_offset w29, -16
	stur	x0, [x29, #-8]
	stur	wzr, [x29, #-12]
	str	wzr, [sp, #16]
	b	LBB20_1
LBB20_1:                                ; =>This Inner Loop Header: Depth=1
	ldrsw	x8, [sp, #16]
	str	x8, [sp, #8]                    ; 8-byte Folded Spill
	ldur	x0, [x29, #-8]
	bl	__ZNK6String6lengthEv
	ldr	x8, [sp, #8]                    ; 8-byte Folded Reload
	subs	x8, x8, x0
	cset	w8, hs
	tbnz	w8, #0, LBB20_4
	b	LBB20_2
LBB20_2:                                ;   in Loop: Header=BB20_1 Depth=1
	ldur	w8, [x29, #-12]
	mov	w9, #31                         ; =0x1f
	mul	w8, w8, w9
	str	w8, [sp, #4]                    ; 4-byte Folded Spill
	ldur	x0, [x29, #-8]
	ldrsw	x1, [sp, #16]
	bl	__ZNK6StringixEm
	ldr	w8, [sp, #4]                    ; 4-byte Folded Reload
	add	w8, w8, w0, sxtb
	stur	w8, [x29, #-12]
	b	LBB20_3
LBB20_3:                                ;   in Loop: Header=BB20_1 Depth=1
	ldr	w8, [sp, #16]
	add	w8, w8, #1
	str	w8, [sp, #16]
	b	LBB20_1
LBB20_4:
	ldur	w8, [x29, #-12]
	mov	w10, #4095                      ; =0xfff
	udiv	w9, w8, w10
	mul	w9, w9, w10
	subs	w8, w8, w9
	add	w8, w8, #1
	and	w0, w8, #0xffff
	ldp	x29, x30, [sp, #32]             ; 16-byte Folded Reload
	add	sp, sp, #48
	ret
	.cfi_endproc
                                        ; -- End function
	.globl	__ZN12StringHasher10isOccupiedEt ; -- Begin function _ZN12StringHasher10isOccupiedEt
	.p2align	2
__ZN12StringHasher10isOccupiedEt:       ; @_ZN12StringHasher10isOccupiedEt
	.cfi_startproc
; %bb.0:
	sub	sp, sp, #64
	stp	x29, x30, [sp, #48]             ; 16-byte Folded Spill
	add	x29, sp, #48
	.cfi_def_cfa w29, 16
	.cfi_offset w30, -8
	.cfi_offset w29, -16
	sub	x1, x29, #2
	sturh	w0, [x29, #-2]
	adrp	x0, __ZN12StringHasher6genIDsE@PAGE
	add	x0, x0, __ZN12StringHasher6genIDsE@PAGEOFF
	str	x0, [sp, #8]                    ; 8-byte Folded Spill
	bl	__ZNSt3__113unordered_setItNS_4hashItEENS_8equal_toItEENS_9allocatorItEEE4findB8ne180100ERKt
	mov	x8, x0
	ldr	x0, [sp, #8]                    ; 8-byte Folded Reload
	sub	x9, x29, #16
	str	x9, [sp, #16]                   ; 8-byte Folded Spill
	stur	x8, [x29, #-16]
	bl	__ZNSt3__113unordered_setItNS_4hashItEENS_8equal_toItEENS_9allocatorItEEE3endB8ne180100Ev
	mov	x8, x0
	ldr	x0, [sp, #16]                   ; 8-byte Folded Reload
	add	x1, sp, #24
	str	x8, [sp, #24]
	bl	__ZNSt3__1neB8ne180100ERKNS_21__hash_const_iteratorIPNS_11__hash_nodeItPvEEEES7_
	and	w0, w0, #0x1
	ldp	x29, x30, [sp, #48]             ; 16-byte Folded Reload
	add	sp, sp, #64
	ret
	.cfi_endproc
                                        ; -- End function
	.private_extern	__ZNSt3__1neB8ne180100ERKNS_21__hash_const_iteratorIPNS_11__hash_nodeItPvEEEES7_ ; -- Begin function _ZNSt3__1neB8ne180100ERKNS_21__hash_const_iteratorIPNS_11__hash_nodeItPvEEEES7_
	.globl	__ZNSt3__1neB8ne180100ERKNS_21__hash_const_iteratorIPNS_11__hash_nodeItPvEEEES7_
	.weak_definition	__ZNSt3__1neB8ne180100ERKNS_21__hash_const_iteratorIPNS_11__hash_nodeItPvEEEES7_
	.p2align	2
__ZNSt3__1neB8ne180100ERKNS_21__hash_const_iteratorIPNS_11__hash_nodeItPvEEEES7_: ; @_ZNSt3__1neB8ne180100ERKNS_21__hash_const_iteratorIPNS_11__hash_nodeItPvEEEES7_
	.cfi_startproc
; %bb.0:
	sub	sp, sp, #32
	stp	x29, x30, [sp, #16]             ; 16-byte Folded Spill
	add	x29, sp, #16
	.cfi_def_cfa w29, 16
	.cfi_offset w30, -8
	.cfi_offset w29, -16
	str	x0, [sp, #8]
	str	x1, [sp]
	ldr	x0, [sp, #8]
	ldr	x1, [sp]
	bl	__ZNSt3__1eqB8ne180100ERKNS_21__hash_const_iteratorIPNS_11__hash_nodeItPvEEEES7_
	eor	w8, w0, #0x1
	and	w0, w8, #0x1
	ldp	x29, x30, [sp, #16]             ; 16-byte Folded Reload
	add	sp, sp, #32
	ret
	.cfi_endproc
                                        ; -- End function
	.private_extern	__ZNSt3__113unordered_setItNS_4hashItEENS_8equal_toItEENS_9allocatorItEEE4findB8ne180100ERKt ; -- Begin function _ZNSt3__113unordered_setItNS_4hashItEENS_8equal_toItEENS_9allocatorItEEE4findB8ne180100ERKt
	.globl	__ZNSt3__113unordered_setItNS_4hashItEENS_8equal_toItEENS_9allocatorItEEE4findB8ne180100ERKt
	.weak_definition	__ZNSt3__113unordered_setItNS_4hashItEENS_8equal_toItEENS_9allocatorItEEE4findB8ne180100ERKt
	.p2align	2
__ZNSt3__113unordered_setItNS_4hashItEENS_8equal_toItEENS_9allocatorItEEE4findB8ne180100ERKt: ; @_ZNSt3__113unordered_setItNS_4hashItEENS_8equal_toItEENS_9allocatorItEEE4findB8ne180100ERKt
	.cfi_startproc
; %bb.0:
	sub	sp, sp, #48
	stp	x29, x30, [sp, #32]             ; 16-byte Folded Spill
	add	x29, sp, #32
	.cfi_def_cfa w29, 16
	.cfi_offset w30, -8
	.cfi_offset w29, -16
	str	x0, [sp, #16]
	str	x1, [sp, #8]
	ldr	x0, [sp, #16]
	ldr	x1, [sp, #8]
	bl	__ZNSt3__112__hash_tableItNS_4hashItEENS_8equal_toItEENS_9allocatorItEEE4findItEENS_15__hash_iteratorIPNS_11__hash_nodeItPvEEEERKT_
	mov	x1, sp
	str	x0, [sp]
	sub	x0, x29, #8
	bl	__ZNSt3__121__hash_const_iteratorIPNS_11__hash_nodeItPvEEEC1B8ne180100ERKNS_15__hash_iteratorIS4_EE
	ldur	x0, [x29, #-8]
	ldp	x29, x30, [sp, #32]             ; 16-byte Folded Reload
	add	sp, sp, #48
	ret
	.cfi_endproc
                                        ; -- End function
	.private_extern	__ZNSt3__113unordered_setItNS_4hashItEENS_8equal_toItEENS_9allocatorItEEE3endB8ne180100Ev ; -- Begin function _ZNSt3__113unordered_setItNS_4hashItEENS_8equal_toItEENS_9allocatorItEEE3endB8ne180100Ev
	.globl	__ZNSt3__113unordered_setItNS_4hashItEENS_8equal_toItEENS_9allocatorItEEE3endB8ne180100Ev
	.weak_definition	__ZNSt3__113unordered_setItNS_4hashItEENS_8equal_toItEENS_9allocatorItEEE3endB8ne180100Ev
	.p2align	2
__ZNSt3__113unordered_setItNS_4hashItEENS_8equal_toItEENS_9allocatorItEEE3endB8ne180100Ev: ; @_ZNSt3__113unordered_setItNS_4hashItEENS_8equal_toItEENS_9allocatorItEEE3endB8ne180100Ev
	.cfi_startproc
; %bb.0:
	sub	sp, sp, #48
	stp	x29, x30, [sp, #32]             ; 16-byte Folded Spill
	add	x29, sp, #32
	.cfi_def_cfa w29, 16
	.cfi_offset w30, -8
	.cfi_offset w29, -16
	str	x0, [sp, #16]
	ldr	x0, [sp, #16]
	bl	__ZNSt3__112__hash_tableItNS_4hashItEENS_8equal_toItEENS_9allocatorItEEE3endEv
	add	x1, sp, #8
	str	x0, [sp, #8]
	sub	x0, x29, #8
	bl	__ZNSt3__121__hash_const_iteratorIPNS_11__hash_nodeItPvEEEC1B8ne180100ERKNS_15__hash_iteratorIS4_EE
	ldur	x0, [x29, #-8]
	ldp	x29, x30, [sp, #32]             ; 16-byte Folded Reload
	add	sp, sp, #48
	ret
	.cfi_endproc
                                        ; -- End function
	.globl	__ZN12StringHasher14getIdForCourseERK6String ; -- Begin function _ZN12StringHasher14getIdForCourseERK6String
	.p2align	2
__ZN12StringHasher14getIdForCourseERK6String: ; @_ZN12StringHasher14getIdForCourseERK6String
	.cfi_startproc
; %bb.0:
	sub	sp, sp, #64
	stp	x29, x30, [sp, #48]             ; 16-byte Folded Spill
	add	x29, sp, #48
	.cfi_def_cfa w29, 16
	.cfi_offset w30, -8
	.cfi_offset w29, -16
	stur	x0, [x29, #-8]
	ldur	x0, [x29, #-8]
	bl	__ZN12StringHasher12hashNameToIdERK6String
	sturh	w0, [x29, #-10]
	ldur	x0, [x29, #-8]
	bl	__ZN12StringHasher10secondHashERK6String
	sturh	w0, [x29, #-12]
	sturh	wzr, [x29, #-14]
	b	LBB25_1
LBB25_1:                                ; =>This Inner Loop Header: Depth=1
	ldurh	w0, [x29, #-10]
	bl	__ZN12StringHasher10isOccupiedEt
	mov	w8, #0                          ; =0x0
	str	w8, [sp, #12]                   ; 4-byte Folded Spill
	tbz	w0, #0, LBB25_3
	b	LBB25_2
LBB25_2:                                ;   in Loop: Header=BB25_1 Depth=1
	ldurh	w8, [x29, #-14]
	subs	w8, w8, #1, lsl #12             ; =4096
	cset	w8, lt
	str	w8, [sp, #12]                   ; 4-byte Folded Spill
	b	LBB25_3
LBB25_3:                                ;   in Loop: Header=BB25_1 Depth=1
	ldr	w8, [sp, #12]                   ; 4-byte Folded Reload
	tbz	w8, #0, LBB25_5
	b	LBB25_4
LBB25_4:                                ;   in Loop: Header=BB25_1 Depth=1
	ldurh	w8, [x29, #-10]
	ldurh	w9, [x29, #-14]
	ldurh	w10, [x29, #-12]
	mul	w9, w9, w10
	add	w8, w8, w9
	mov	w10, #4096                      ; =0x1000
	sdiv	w9, w8, w10
	mul	w9, w9, w10
	subs	w8, w8, w9
	sturh	w8, [x29, #-10]
	ldurh	w8, [x29, #-14]
	add	w8, w8, #1
	sturh	w8, [x29, #-14]
	b	LBB25_1
LBB25_5:
	adrp	x0, __ZN12StringHasher6genIDsE@PAGE
	add	x0, x0, __ZN12StringHasher6genIDsE@PAGEOFF
	sub	x1, x29, #10
	bl	__ZNSt3__113unordered_setItNS_4hashItEENS_8equal_toItEENS_9allocatorItEEE6insertB8ne180100ERKt
	str	x0, [sp, #16]
	str	x1, [sp, #24]
	ldurh	w0, [x29, #-10]
	ldp	x29, x30, [sp, #48]             ; 16-byte Folded Reload
	add	sp, sp, #64
	ret
	.cfi_endproc
                                        ; -- End function
	.private_extern	__ZNSt3__113unordered_setItNS_4hashItEENS_8equal_toItEENS_9allocatorItEEE6insertB8ne180100ERKt ; -- Begin function _ZNSt3__113unordered_setItNS_4hashItEENS_8equal_toItEENS_9allocatorItEEE6insertB8ne180100ERKt
	.globl	__ZNSt3__113unordered_setItNS_4hashItEENS_8equal_toItEENS_9allocatorItEEE6insertB8ne180100ERKt
	.weak_definition	__ZNSt3__113unordered_setItNS_4hashItEENS_8equal_toItEENS_9allocatorItEEE6insertB8ne180100ERKt
	.p2align	2
__ZNSt3__113unordered_setItNS_4hashItEENS_8equal_toItEENS_9allocatorItEEE6insertB8ne180100ERKt: ; @_ZNSt3__113unordered_setItNS_4hashItEENS_8equal_toItEENS_9allocatorItEEE6insertB8ne180100ERKt
	.cfi_startproc
; %bb.0:
	sub	sp, sp, #64
	stp	x29, x30, [sp, #48]             ; 16-byte Folded Spill
	add	x29, sp, #48
	.cfi_def_cfa w29, 16
	.cfi_offset w30, -8
	.cfi_offset w29, -16
	str	x0, [sp, #24]
	str	x1, [sp, #16]
	ldr	x0, [sp, #24]
	ldr	x1, [sp, #16]
	bl	__ZNSt3__112__hash_tableItNS_4hashItEENS_8equal_toItEENS_9allocatorItEEE15__insert_uniqueB8ne180100ERKt
	mov	x8, x1
	mov	x1, sp
	str	x0, [sp]
	str	x8, [sp, #8]
	sub	x0, x29, #16
	bl	__ZNSt3__14pairINS_21__hash_const_iteratorIPNS_11__hash_nodeItPvEEEEbEC1B8ne180100INS_15__hash_iteratorIS5_EEbLi0EEEONS0_IT_T0_EE
	ldur	x0, [x29, #-16]
	ldur	x1, [x29, #-8]
	ldp	x29, x30, [sp, #48]             ; 16-byte Folded Reload
	add	sp, sp, #64
	ret
	.cfi_endproc
                                        ; -- End function
	.globl	__ZNK10Activity_t9printInfoEv   ; -- Begin function _ZNK10Activity_t9printInfoEv
	.p2align	2
__ZNK10Activity_t9printInfoEv:          ; @_ZNK10Activity_t9printInfoEv
	.cfi_startproc
; %bb.0:
	sub	sp, sp, #96
	stp	x29, x30, [sp, #80]             ; 16-byte Folded Spill
	add	x29, sp, #80
	.cfi_def_cfa w29, 16
	.cfi_offset w30, -8
	.cfi_offset w29, -16
	stur	x0, [x29, #-8]
	ldur	x0, [x29, #-8]
	str	x0, [sp, #8]                    ; 8-byte Folded Spill
	bl	__ZNSt3__117holds_alternativeB8ne180100I4WORKJS1_5SLEEP4FREEEEEbRKNS_7variantIJDpT0_EEE
	tbz	w0, #0, LBB27_7
	b	LBB27_1
LBB27_1:
	ldr	x0, [sp, #8]                    ; 8-byte Folded Reload
	bl	__ZNSt3__13getB8ne180100I4WORKJS1_5SLEEP4FREEEEERKT_RKNS_7variantIJDpT0_EEE
	stur	x0, [x29, #-16]
	ldur	x8, [x29, #-16]
	add	x0, x8, #8
	bl	__ZNSt3__117holds_alternativeB8ne180100I11uniCourse_tJS1_6Mand_tEEEbRKNS_7variantIJDpT0_EEE
	tbz	w0, #0, LBB27_3
	b	LBB27_2
LBB27_2:
	ldur	x8, [x29, #-16]
	add	x0, x8, #8
	bl	__ZNSt3__13getB8ne180100I11uniCourse_tJS1_6Mand_tEEERKT_RKNS_7variantIJDpT0_EEE
	stur	x0, [x29, #-24]
	ldur	x0, [x29, #-24]
	bl	__ZNK6String3getEv
	mov	x8, sp
	str	x0, [x8]
	adrp	x0, l_.str.7@PAGE
	add	x0, x0, l_.str.7@PAGEOFF
	bl	_printf
	b	LBB27_6
LBB27_3:
	ldur	x8, [x29, #-16]
	add	x0, x8, #8
	bl	__ZNSt3__117holds_alternativeB8ne180100I6Mand_tJ11uniCourse_tS1_EEEbRKNS_7variantIJDpT0_EEE
	tbz	w0, #0, LBB27_5
	b	LBB27_4
LBB27_4:
	ldur	x8, [x29, #-16]
	add	x0, x8, #8
	bl	__ZNSt3__13getB8ne180100I6Mand_tJ11uniCourse_tS1_EEERKT_RKNS_7variantIJDpT0_EEE
	stur	x0, [x29, #-32]
	ldur	x0, [x29, #-32]
	bl	__ZNK6String3getEv
	mov	x8, sp
	str	x0, [x8]
	adrp	x0, l_.str.8@PAGE
	add	x0, x0, l_.str.8@PAGEOFF
	bl	_printf
	b	LBB27_5
LBB27_5:
	b	LBB27_6
LBB27_6:
	b	LBB27_18
LBB27_7:
	ldr	x0, [sp, #8]                    ; 8-byte Folded Reload
	bl	__ZNSt3__117holds_alternativeB8ne180100I5SLEEPJ4WORKS1_4FREEEEEbRKNS_7variantIJDpT0_EEE
	tbz	w0, #0, LBB27_9
	b	LBB27_8
LBB27_8:
	ldr	x0, [sp, #8]                    ; 8-byte Folded Reload
	bl	__ZNSt3__13getB8ne180100I5SLEEPJ4WORKS1_4FREEEEERKT_RKNS_7variantIJDpT0_EEE
	str	x0, [sp, #40]
	ldr	x8, [sp, #40]
	add	x0, x8, #8
	bl	__ZNK6String3getEv
	mov	x8, sp
	str	x0, [x8]
	adrp	x0, l_.str.9@PAGE
	add	x0, x0, l_.str.9@PAGEOFF
	bl	_printf
	b	LBB27_17
LBB27_9:
	ldr	x0, [sp, #8]                    ; 8-byte Folded Reload
	bl	__ZNSt3__117holds_alternativeB8ne180100I4FREEJ4WORK5SLEEPS1_EEEbRKNS_7variantIJDpT0_EEE
	tbz	w0, #0, LBB27_16
	b	LBB27_10
LBB27_10:
	ldr	x0, [sp, #8]                    ; 8-byte Folded Reload
	bl	__ZNSt3__13getB8ne180100I4FREEJ4WORK5SLEEPS1_EEERKT_RKNS_7variantIJDpT0_EEE
	str	x0, [sp, #32]
	ldr	x0, [sp, #32]
	bl	__ZNSt3__117holds_alternativeB8ne180100I7Break_tJS1_6None_tEEEbRKNS_7variantIJDpT0_EEE
	tbz	w0, #0, LBB27_12
	b	LBB27_11
LBB27_11:
	ldr	x0, [sp, #32]
	bl	__ZNSt3__13getB8ne180100I7Break_tJS1_6None_tEEERKT_RKNS_7variantIJDpT0_EEE
	str	x0, [sp, #24]
	ldr	x8, [sp, #24]
	add	x0, x8, #8
	bl	__ZNK6String3getEv
	mov	x8, sp
	str	x0, [x8]
	adrp	x0, l_.str.9@PAGE
	add	x0, x0, l_.str.9@PAGEOFF
	bl	_printf
	b	LBB27_15
LBB27_12:
	ldr	x0, [sp, #32]
	bl	__ZNSt3__117holds_alternativeB8ne180100I6None_tJ7Break_tS1_EEEbRKNS_7variantIJDpT0_EEE
	tbz	w0, #0, LBB27_14
	b	LBB27_13
LBB27_13:
	ldr	x0, [sp, #32]
	bl	__ZNSt3__13getB8ne180100I6None_tJ7Break_tS1_EEERKT_RKNS_7variantIJDpT0_EEE
	str	x0, [sp, #16]
	ldr	x0, [sp, #16]
	bl	__ZNK6String3getEv
	mov	x8, sp
	str	x0, [x8]
	adrp	x0, l_.str.9@PAGE
	add	x0, x0, l_.str.9@PAGEOFF
	bl	_printf
	b	LBB27_14
LBB27_14:
	b	LBB27_15
LBB27_15:
	b	LBB27_16
LBB27_16:
	b	LBB27_17
LBB27_17:
	b	LBB27_18
LBB27_18:
	ldp	x29, x30, [sp, #80]             ; 16-byte Folded Reload
	add	sp, sp, #96
	ret
	.cfi_endproc
                                        ; -- End function
	.private_extern	__ZNSt3__117holds_alternativeB8ne180100I4WORKJS1_5SLEEP4FREEEEEbRKNS_7variantIJDpT0_EEE ; -- Begin function _ZNSt3__117holds_alternativeB8ne180100I4WORKJS1_5SLEEP4FREEEEEbRKNS_7variantIJDpT0_EEE
	.globl	__ZNSt3__117holds_alternativeB8ne180100I4WORKJS1_5SLEEP4FREEEEEbRKNS_7variantIJDpT0_EEE
	.weak_definition	__ZNSt3__117holds_alternativeB8ne180100I4WORKJS1_5SLEEP4FREEEEEbRKNS_7variantIJDpT0_EEE
	.p2align	2
__ZNSt3__117holds_alternativeB8ne180100I4WORKJS1_5SLEEP4FREEEEEbRKNS_7variantIJDpT0_EEE: ; @_ZNSt3__117holds_alternativeB8ne180100I4WORKJS1_5SLEEP4FREEEEEbRKNS_7variantIJDpT0_EEE
	.cfi_startproc
; %bb.0:
	sub	sp, sp, #32
	stp	x29, x30, [sp, #16]             ; 16-byte Folded Spill
	add	x29, sp, #16
	.cfi_def_cfa w29, 16
	.cfi_offset w30, -8
	.cfi_offset w29, -16
	str	x0, [sp, #8]
	ldr	x0, [sp, #8]
	bl	__ZNSt3__119__holds_alternativeB8ne180100ILm0EJ4WORK5SLEEP4FREEEEEbRKNS_7variantIJDpT0_EEE
	and	w0, w0, #0x1
	ldp	x29, x30, [sp, #16]             ; 16-byte Folded Reload
	add	sp, sp, #32
	ret
	.cfi_endproc
                                        ; -- End function
	.private_extern	__ZNSt3__13getB8ne180100I4WORKJS1_5SLEEP4FREEEEERKT_RKNS_7variantIJDpT0_EEE ; -- Begin function _ZNSt3__13getB8ne180100I4WORKJS1_5SLEEP4FREEEEERKT_RKNS_7variantIJDpT0_EEE
	.globl	__ZNSt3__13getB8ne180100I4WORKJS1_5SLEEP4FREEEEERKT_RKNS_7variantIJDpT0_EEE
	.weak_definition	__ZNSt3__13getB8ne180100I4WORKJS1_5SLEEP4FREEEEERKT_RKNS_7variantIJDpT0_EEE
	.p2align	2
__ZNSt3__13getB8ne180100I4WORKJS1_5SLEEP4FREEEEERKT_RKNS_7variantIJDpT0_EEE: ; @_ZNSt3__13getB8ne180100I4WORKJS1_5SLEEP4FREEEEERKT_RKNS_7variantIJDpT0_EEE
	.cfi_startproc
; %bb.0:
	sub	sp, sp, #32
	stp	x29, x30, [sp, #16]             ; 16-byte Folded Spill
	add	x29, sp, #16
	.cfi_def_cfa w29, 16
	.cfi_offset w30, -8
	.cfi_offset w29, -16
	str	x0, [sp, #8]
	ldr	x0, [sp, #8]
	bl	__ZNSt3__13getB8ne180100ILm0EJ4WORK5SLEEP4FREEEEERKNS_19variant_alternativeIXT_ENS_7variantIJDpT0_EEEE4typeERKS8_
	ldp	x29, x30, [sp, #16]             ; 16-byte Folded Reload
	add	sp, sp, #32
	ret
	.cfi_endproc
                                        ; -- End function
	.private_extern	__ZNSt3__117holds_alternativeB8ne180100I11uniCourse_tJS1_6Mand_tEEEbRKNS_7variantIJDpT0_EEE ; -- Begin function _ZNSt3__117holds_alternativeB8ne180100I11uniCourse_tJS1_6Mand_tEEEbRKNS_7variantIJDpT0_EEE
	.globl	__ZNSt3__117holds_alternativeB8ne180100I11uniCourse_tJS1_6Mand_tEEEbRKNS_7variantIJDpT0_EEE
	.weak_definition	__ZNSt3__117holds_alternativeB8ne180100I11uniCourse_tJS1_6Mand_tEEEbRKNS_7variantIJDpT0_EEE
	.p2align	2
__ZNSt3__117holds_alternativeB8ne180100I11uniCourse_tJS1_6Mand_tEEEbRKNS_7variantIJDpT0_EEE: ; @_ZNSt3__117holds_alternativeB8ne180100I11uniCourse_tJS1_6Mand_tEEEbRKNS_7variantIJDpT0_EEE
	.cfi_startproc
; %bb.0:
	sub	sp, sp, #32
	stp	x29, x30, [sp, #16]             ; 16-byte Folded Spill
	add	x29, sp, #16
	.cfi_def_cfa w29, 16
	.cfi_offset w30, -8
	.cfi_offset w29, -16
	str	x0, [sp, #8]
	ldr	x0, [sp, #8]
	bl	__ZNSt3__119__holds_alternativeB8ne180100ILm0EJ11uniCourse_t6Mand_tEEEbRKNS_7variantIJDpT0_EEE
	and	w0, w0, #0x1
	ldp	x29, x30, [sp, #16]             ; 16-byte Folded Reload
	add	sp, sp, #32
	ret
	.cfi_endproc
                                        ; -- End function
	.private_extern	__ZNSt3__13getB8ne180100I11uniCourse_tJS1_6Mand_tEEERKT_RKNS_7variantIJDpT0_EEE ; -- Begin function _ZNSt3__13getB8ne180100I11uniCourse_tJS1_6Mand_tEEERKT_RKNS_7variantIJDpT0_EEE
	.globl	__ZNSt3__13getB8ne180100I11uniCourse_tJS1_6Mand_tEEERKT_RKNS_7variantIJDpT0_EEE
	.weak_definition	__ZNSt3__13getB8ne180100I11uniCourse_tJS1_6Mand_tEEERKT_RKNS_7variantIJDpT0_EEE
	.p2align	2
__ZNSt3__13getB8ne180100I11uniCourse_tJS1_6Mand_tEEERKT_RKNS_7variantIJDpT0_EEE: ; @_ZNSt3__13getB8ne180100I11uniCourse_tJS1_6Mand_tEEERKT_RKNS_7variantIJDpT0_EEE
	.cfi_startproc
; %bb.0:
	sub	sp, sp, #32
	stp	x29, x30, [sp, #16]             ; 16-byte Folded Spill
	add	x29, sp, #16
	.cfi_def_cfa w29, 16
	.cfi_offset w30, -8
	.cfi_offset w29, -16
	str	x0, [sp, #8]
	ldr	x0, [sp, #8]
	bl	__ZNSt3__13getB8ne180100ILm0EJ11uniCourse_t6Mand_tEEERKNS_19variant_alternativeIXT_ENS_7variantIJDpT0_EEEE4typeERKS7_
	ldp	x29, x30, [sp, #16]             ; 16-byte Folded Reload
	add	sp, sp, #32
	ret
	.cfi_endproc
                                        ; -- End function
	.globl	__ZNK6String3getEv              ; -- Begin function _ZNK6String3getEv
	.weak_definition	__ZNK6String3getEv
	.p2align	2
__ZNK6String3getEv:                     ; @_ZNK6String3getEv
	.cfi_startproc
; %bb.0:
	sub	sp, sp, #32
	.cfi_def_cfa_offset 32
	str	x0, [sp, #24]
	ldr	x8, [sp, #24]
	str	x8, [sp, #16]                   ; 8-byte Folded Spill
	ldr	x8, [x8]
	subs	x8, x8, #0
	cset	w8, eq
	tbnz	w8, #0, LBB32_2
	b	LBB32_1
LBB32_1:
	ldr	x8, [sp, #16]                   ; 8-byte Folded Reload
	ldr	x8, [x8]
	str	x8, [sp, #8]                    ; 8-byte Folded Spill
	b	LBB32_3
LBB32_2:
	adrp	x8, l_.str@PAGE
	add	x8, x8, l_.str@PAGEOFF
	str	x8, [sp, #8]                    ; 8-byte Folded Spill
	b	LBB32_3
LBB32_3:
	ldr	x0, [sp, #8]                    ; 8-byte Folded Reload
	add	sp, sp, #32
	ret
	.cfi_endproc
                                        ; -- End function
	.private_extern	__ZNSt3__117holds_alternativeB8ne180100I6Mand_tJ11uniCourse_tS1_EEEbRKNS_7variantIJDpT0_EEE ; -- Begin function _ZNSt3__117holds_alternativeB8ne180100I6Mand_tJ11uniCourse_tS1_EEEbRKNS_7variantIJDpT0_EEE
	.globl	__ZNSt3__117holds_alternativeB8ne180100I6Mand_tJ11uniCourse_tS1_EEEbRKNS_7variantIJDpT0_EEE
	.weak_definition	__ZNSt3__117holds_alternativeB8ne180100I6Mand_tJ11uniCourse_tS1_EEEbRKNS_7variantIJDpT0_EEE
	.p2align	2
__ZNSt3__117holds_alternativeB8ne180100I6Mand_tJ11uniCourse_tS1_EEEbRKNS_7variantIJDpT0_EEE: ; @_ZNSt3__117holds_alternativeB8ne180100I6Mand_tJ11uniCourse_tS1_EEEbRKNS_7variantIJDpT0_EEE
	.cfi_startproc
; %bb.0:
	sub	sp, sp, #32
	stp	x29, x30, [sp, #16]             ; 16-byte Folded Spill
	add	x29, sp, #16
	.cfi_def_cfa w29, 16
	.cfi_offset w30, -8
	.cfi_offset w29, -16
	str	x0, [sp, #8]
	ldr	x0, [sp, #8]
	bl	__ZNSt3__119__holds_alternativeB8ne180100ILm1EJ11uniCourse_t6Mand_tEEEbRKNS_7variantIJDpT0_EEE
	and	w0, w0, #0x1
	ldp	x29, x30, [sp, #16]             ; 16-byte Folded Reload
	add	sp, sp, #32
	ret
	.cfi_endproc
                                        ; -- End function
	.private_extern	__ZNSt3__13getB8ne180100I6Mand_tJ11uniCourse_tS1_EEERKT_RKNS_7variantIJDpT0_EEE ; -- Begin function _ZNSt3__13getB8ne180100I6Mand_tJ11uniCourse_tS1_EEERKT_RKNS_7variantIJDpT0_EEE
	.globl	__ZNSt3__13getB8ne180100I6Mand_tJ11uniCourse_tS1_EEERKT_RKNS_7variantIJDpT0_EEE
	.weak_definition	__ZNSt3__13getB8ne180100I6Mand_tJ11uniCourse_tS1_EEERKT_RKNS_7variantIJDpT0_EEE
	.p2align	2
__ZNSt3__13getB8ne180100I6Mand_tJ11uniCourse_tS1_EEERKT_RKNS_7variantIJDpT0_EEE: ; @_ZNSt3__13getB8ne180100I6Mand_tJ11uniCourse_tS1_EEERKT_RKNS_7variantIJDpT0_EEE
	.cfi_startproc
; %bb.0:
	sub	sp, sp, #32
	stp	x29, x30, [sp, #16]             ; 16-byte Folded Spill
	add	x29, sp, #16
	.cfi_def_cfa w29, 16
	.cfi_offset w30, -8
	.cfi_offset w29, -16
	str	x0, [sp, #8]
	ldr	x0, [sp, #8]
	bl	__ZNSt3__13getB8ne180100ILm1EJ11uniCourse_t6Mand_tEEERKNS_19variant_alternativeIXT_ENS_7variantIJDpT0_EEEE4typeERKS7_
	ldp	x29, x30, [sp, #16]             ; 16-byte Folded Reload
	add	sp, sp, #32
	ret
	.cfi_endproc
                                        ; -- End function
	.private_extern	__ZNSt3__117holds_alternativeB8ne180100I5SLEEPJ4WORKS1_4FREEEEEbRKNS_7variantIJDpT0_EEE ; -- Begin function _ZNSt3__117holds_alternativeB8ne180100I5SLEEPJ4WORKS1_4FREEEEEbRKNS_7variantIJDpT0_EEE
	.globl	__ZNSt3__117holds_alternativeB8ne180100I5SLEEPJ4WORKS1_4FREEEEEbRKNS_7variantIJDpT0_EEE
	.weak_definition	__ZNSt3__117holds_alternativeB8ne180100I5SLEEPJ4WORKS1_4FREEEEEbRKNS_7variantIJDpT0_EEE
	.p2align	2
__ZNSt3__117holds_alternativeB8ne180100I5SLEEPJ4WORKS1_4FREEEEEbRKNS_7variantIJDpT0_EEE: ; @_ZNSt3__117holds_alternativeB8ne180100I5SLEEPJ4WORKS1_4FREEEEEbRKNS_7variantIJDpT0_EEE
	.cfi_startproc
; %bb.0:
	sub	sp, sp, #32
	stp	x29, x30, [sp, #16]             ; 16-byte Folded Spill
	add	x29, sp, #16
	.cfi_def_cfa w29, 16
	.cfi_offset w30, -8
	.cfi_offset w29, -16
	str	x0, [sp, #8]
	ldr	x0, [sp, #8]
	bl	__ZNSt3__119__holds_alternativeB8ne180100ILm1EJ4WORK5SLEEP4FREEEEEbRKNS_7variantIJDpT0_EEE
	and	w0, w0, #0x1
	ldp	x29, x30, [sp, #16]             ; 16-byte Folded Reload
	add	sp, sp, #32
	ret
	.cfi_endproc
                                        ; -- End function
	.private_extern	__ZNSt3__13getB8ne180100I5SLEEPJ4WORKS1_4FREEEEERKT_RKNS_7variantIJDpT0_EEE ; -- Begin function _ZNSt3__13getB8ne180100I5SLEEPJ4WORKS1_4FREEEEERKT_RKNS_7variantIJDpT0_EEE
	.globl	__ZNSt3__13getB8ne180100I5SLEEPJ4WORKS1_4FREEEEERKT_RKNS_7variantIJDpT0_EEE
	.weak_definition	__ZNSt3__13getB8ne180100I5SLEEPJ4WORKS1_4FREEEEERKT_RKNS_7variantIJDpT0_EEE
	.p2align	2
__ZNSt3__13getB8ne180100I5SLEEPJ4WORKS1_4FREEEEERKT_RKNS_7variantIJDpT0_EEE: ; @_ZNSt3__13getB8ne180100I5SLEEPJ4WORKS1_4FREEEEERKT_RKNS_7variantIJDpT0_EEE
	.cfi_startproc
; %bb.0:
	sub	sp, sp, #32
	stp	x29, x30, [sp, #16]             ; 16-byte Folded Spill
	add	x29, sp, #16
	.cfi_def_cfa w29, 16
	.cfi_offset w30, -8
	.cfi_offset w29, -16
	str	x0, [sp, #8]
	ldr	x0, [sp, #8]
	bl	__ZNSt3__13getB8ne180100ILm1EJ4WORK5SLEEP4FREEEEERKNS_19variant_alternativeIXT_ENS_7variantIJDpT0_EEEE4typeERKS8_
	ldp	x29, x30, [sp, #16]             ; 16-byte Folded Reload
	add	sp, sp, #32
	ret
	.cfi_endproc
                                        ; -- End function
	.private_extern	__ZNSt3__117holds_alternativeB8ne180100I4FREEJ4WORK5SLEEPS1_EEEbRKNS_7variantIJDpT0_EEE ; -- Begin function _ZNSt3__117holds_alternativeB8ne180100I4FREEJ4WORK5SLEEPS1_EEEbRKNS_7variantIJDpT0_EEE
	.globl	__ZNSt3__117holds_alternativeB8ne180100I4FREEJ4WORK5SLEEPS1_EEEbRKNS_7variantIJDpT0_EEE
	.weak_definition	__ZNSt3__117holds_alternativeB8ne180100I4FREEJ4WORK5SLEEPS1_EEEbRKNS_7variantIJDpT0_EEE
	.p2align	2
__ZNSt3__117holds_alternativeB8ne180100I4FREEJ4WORK5SLEEPS1_EEEbRKNS_7variantIJDpT0_EEE: ; @_ZNSt3__117holds_alternativeB8ne180100I4FREEJ4WORK5SLEEPS1_EEEbRKNS_7variantIJDpT0_EEE
	.cfi_startproc
; %bb.0:
	sub	sp, sp, #32
	stp	x29, x30, [sp, #16]             ; 16-byte Folded Spill
	add	x29, sp, #16
	.cfi_def_cfa w29, 16
	.cfi_offset w30, -8
	.cfi_offset w29, -16
	str	x0, [sp, #8]
	ldr	x0, [sp, #8]
	bl	__ZNSt3__119__holds_alternativeB8ne180100ILm2EJ4WORK5SLEEP4FREEEEEbRKNS_7variantIJDpT0_EEE
	and	w0, w0, #0x1
	ldp	x29, x30, [sp, #16]             ; 16-byte Folded Reload
	add	sp, sp, #32
	ret
	.cfi_endproc
                                        ; -- End function
	.private_extern	__ZNSt3__13getB8ne180100I4FREEJ4WORK5SLEEPS1_EEERKT_RKNS_7variantIJDpT0_EEE ; -- Begin function _ZNSt3__13getB8ne180100I4FREEJ4WORK5SLEEPS1_EEERKT_RKNS_7variantIJDpT0_EEE
	.globl	__ZNSt3__13getB8ne180100I4FREEJ4WORK5SLEEPS1_EEERKT_RKNS_7variantIJDpT0_EEE
	.weak_definition	__ZNSt3__13getB8ne180100I4FREEJ4WORK5SLEEPS1_EEERKT_RKNS_7variantIJDpT0_EEE
	.p2align	2
__ZNSt3__13getB8ne180100I4FREEJ4WORK5SLEEPS1_EEERKT_RKNS_7variantIJDpT0_EEE: ; @_ZNSt3__13getB8ne180100I4FREEJ4WORK5SLEEPS1_EEERKT_RKNS_7variantIJDpT0_EEE
	.cfi_startproc
; %bb.0:
	sub	sp, sp, #32
	stp	x29, x30, [sp, #16]             ; 16-byte Folded Spill
	add	x29, sp, #16
	.cfi_def_cfa w29, 16
	.cfi_offset w30, -8
	.cfi_offset w29, -16
	str	x0, [sp, #8]
	ldr	x0, [sp, #8]
	bl	__ZNSt3__13getB8ne180100ILm2EJ4WORK5SLEEP4FREEEEERKNS_19variant_alternativeIXT_ENS_7variantIJDpT0_EEEE4typeERKS8_
	ldp	x29, x30, [sp, #16]             ; 16-byte Folded Reload
	add	sp, sp, #32
	ret
	.cfi_endproc
                                        ; -- End function
	.private_extern	__ZNSt3__117holds_alternativeB8ne180100I7Break_tJS1_6None_tEEEbRKNS_7variantIJDpT0_EEE ; -- Begin function _ZNSt3__117holds_alternativeB8ne180100I7Break_tJS1_6None_tEEEbRKNS_7variantIJDpT0_EEE
	.globl	__ZNSt3__117holds_alternativeB8ne180100I7Break_tJS1_6None_tEEEbRKNS_7variantIJDpT0_EEE
	.weak_definition	__ZNSt3__117holds_alternativeB8ne180100I7Break_tJS1_6None_tEEEbRKNS_7variantIJDpT0_EEE
	.p2align	2
__ZNSt3__117holds_alternativeB8ne180100I7Break_tJS1_6None_tEEEbRKNS_7variantIJDpT0_EEE: ; @_ZNSt3__117holds_alternativeB8ne180100I7Break_tJS1_6None_tEEEbRKNS_7variantIJDpT0_EEE
	.cfi_startproc
; %bb.0:
	sub	sp, sp, #32
	stp	x29, x30, [sp, #16]             ; 16-byte Folded Spill
	add	x29, sp, #16
	.cfi_def_cfa w29, 16
	.cfi_offset w30, -8
	.cfi_offset w29, -16
	str	x0, [sp, #8]
	ldr	x0, [sp, #8]
	bl	__ZNSt3__119__holds_alternativeB8ne180100ILm0EJ7Break_t6None_tEEEbRKNS_7variantIJDpT0_EEE
	and	w0, w0, #0x1
	ldp	x29, x30, [sp, #16]             ; 16-byte Folded Reload
	add	sp, sp, #32
	ret
	.cfi_endproc
                                        ; -- End function
	.private_extern	__ZNSt3__13getB8ne180100I7Break_tJS1_6None_tEEERKT_RKNS_7variantIJDpT0_EEE ; -- Begin function _ZNSt3__13getB8ne180100I7Break_tJS1_6None_tEEERKT_RKNS_7variantIJDpT0_EEE
	.globl	__ZNSt3__13getB8ne180100I7Break_tJS1_6None_tEEERKT_RKNS_7variantIJDpT0_EEE
	.weak_definition	__ZNSt3__13getB8ne180100I7Break_tJS1_6None_tEEERKT_RKNS_7variantIJDpT0_EEE
	.p2align	2
__ZNSt3__13getB8ne180100I7Break_tJS1_6None_tEEERKT_RKNS_7variantIJDpT0_EEE: ; @_ZNSt3__13getB8ne180100I7Break_tJS1_6None_tEEERKT_RKNS_7variantIJDpT0_EEE
	.cfi_startproc
; %bb.0:
	sub	sp, sp, #32
	stp	x29, x30, [sp, #16]             ; 16-byte Folded Spill
	add	x29, sp, #16
	.cfi_def_cfa w29, 16
	.cfi_offset w30, -8
	.cfi_offset w29, -16
	str	x0, [sp, #8]
	ldr	x0, [sp, #8]
	bl	__ZNSt3__13getB8ne180100ILm0EJ7Break_t6None_tEEERKNS_19variant_alternativeIXT_ENS_7variantIJDpT0_EEEE4typeERKS7_
	ldp	x29, x30, [sp, #16]             ; 16-byte Folded Reload
	add	sp, sp, #32
	ret
	.cfi_endproc
                                        ; -- End function
	.private_extern	__ZNSt3__117holds_alternativeB8ne180100I6None_tJ7Break_tS1_EEEbRKNS_7variantIJDpT0_EEE ; -- Begin function _ZNSt3__117holds_alternativeB8ne180100I6None_tJ7Break_tS1_EEEbRKNS_7variantIJDpT0_EEE
	.globl	__ZNSt3__117holds_alternativeB8ne180100I6None_tJ7Break_tS1_EEEbRKNS_7variantIJDpT0_EEE
	.weak_definition	__ZNSt3__117holds_alternativeB8ne180100I6None_tJ7Break_tS1_EEEbRKNS_7variantIJDpT0_EEE
	.p2align	2
__ZNSt3__117holds_alternativeB8ne180100I6None_tJ7Break_tS1_EEEbRKNS_7variantIJDpT0_EEE: ; @_ZNSt3__117holds_alternativeB8ne180100I6None_tJ7Break_tS1_EEEbRKNS_7variantIJDpT0_EEE
	.cfi_startproc
; %bb.0:
	sub	sp, sp, #32
	stp	x29, x30, [sp, #16]             ; 16-byte Folded Spill
	add	x29, sp, #16
	.cfi_def_cfa w29, 16
	.cfi_offset w30, -8
	.cfi_offset w29, -16
	str	x0, [sp, #8]
	ldr	x0, [sp, #8]
	bl	__ZNSt3__119__holds_alternativeB8ne180100ILm1EJ7Break_t6None_tEEEbRKNS_7variantIJDpT0_EEE
	and	w0, w0, #0x1
	ldp	x29, x30, [sp, #16]             ; 16-byte Folded Reload
	add	sp, sp, #32
	ret
	.cfi_endproc
                                        ; -- End function
	.private_extern	__ZNSt3__13getB8ne180100I6None_tJ7Break_tS1_EEERKT_RKNS_7variantIJDpT0_EEE ; -- Begin function _ZNSt3__13getB8ne180100I6None_tJ7Break_tS1_EEERKT_RKNS_7variantIJDpT0_EEE
	.globl	__ZNSt3__13getB8ne180100I6None_tJ7Break_tS1_EEERKT_RKNS_7variantIJDpT0_EEE
	.weak_definition	__ZNSt3__13getB8ne180100I6None_tJ7Break_tS1_EEERKT_RKNS_7variantIJDpT0_EEE
	.p2align	2
__ZNSt3__13getB8ne180100I6None_tJ7Break_tS1_EEERKT_RKNS_7variantIJDpT0_EEE: ; @_ZNSt3__13getB8ne180100I6None_tJ7Break_tS1_EEERKT_RKNS_7variantIJDpT0_EEE
	.cfi_startproc
; %bb.0:
	sub	sp, sp, #32
	stp	x29, x30, [sp, #16]             ; 16-byte Folded Spill
	add	x29, sp, #16
	.cfi_def_cfa w29, 16
	.cfi_offset w30, -8
	.cfi_offset w29, -16
	str	x0, [sp, #8]
	ldr	x0, [sp, #8]
	bl	__ZNSt3__13getB8ne180100ILm1EJ7Break_t6None_tEEERKNS_19variant_alternativeIXT_ENS_7variantIJDpT0_EEEE4typeERKS7_
	ldp	x29, x30, [sp, #16]             ; 16-byte Folded Reload
	add	sp, sp, #32
	ret
	.cfi_endproc
                                        ; -- End function
	.globl	__ZN10Activity_t13debugActivityEv ; -- Begin function _ZN10Activity_t13debugActivityEv
	.p2align	2
__ZN10Activity_t13debugActivityEv:      ; @_ZN10Activity_t13debugActivityEv
	.cfi_startproc
; %bb.0:
	sub	sp, sp, #112
	stp	x29, x30, [sp, #96]             ; 16-byte Folded Spill
	add	x29, sp, #96
	.cfi_def_cfa w29, 16
	.cfi_offset w30, -8
	.cfi_offset w29, -16
	stur	x0, [x29, #-8]
	ldur	x8, [x29, #-8]
	str	x8, [sp, #16]                   ; 8-byte Folded Spill
	ldrb	w9, [x8, #96]
	sturb	w9, [x29, #-9]
	ldrb	w8, [x8, #97]
	sturb	w8, [x29, #-10]
	ldurb	w0, [x29, #-9]
	bl	__ZN4Time9IdxToTimeEh
	mov	x8, sp
	str	x0, [x8]
	adrp	x0, l_.str.10@PAGE
	add	x0, x0, l_.str.10@PAGEOFF
	bl	_printf
	ldurb	w0, [x29, #-10]
	bl	__ZN4Time9IdxToTimeEh
	mov	x8, sp
	str	x0, [x8]
	adrp	x0, l_.str.11@PAGE
	add	x0, x0, l_.str.11@PAGEOFF
	bl	_printf
	ldr	x0, [sp, #16]                   ; 8-byte Folded Reload
	bl	__ZNSt3__117holds_alternativeB8ne180100I4WORKJS1_5SLEEP4FREEEEEbRKNS_7variantIJDpT0_EEE
	tbz	w0, #0, LBB43_7
	b	LBB43_1
LBB43_1:
	ldr	x0, [sp, #16]                   ; 8-byte Folded Reload
	bl	__ZNSt3__13getB8ne180100I4WORKJS1_5SLEEP4FREEEEERT_RNS_7variantIJDpT0_EEE
	stur	x0, [x29, #-24]
	ldur	x8, [x29, #-24]
	add	x0, x8, #8
	bl	__ZNSt3__117holds_alternativeB8ne180100I11uniCourse_tJS1_6Mand_tEEEbRKNS_7variantIJDpT0_EEE
	tbz	w0, #0, LBB43_3
	b	LBB43_2
LBB43_2:
	ldur	x8, [x29, #-24]
	add	x0, x8, #8
	bl	__ZNSt3__13getB8ne180100I11uniCourse_tJS1_6Mand_tEEERKT_RKNS_7variantIJDpT0_EEE
	stur	x0, [x29, #-32]
	ldur	x0, [x29, #-32]
	bl	__ZNK6String3getEv
	mov	x8, sp
	str	x0, [x8]
	adrp	x0, l_.str.7@PAGE
	add	x0, x0, l_.str.7@PAGEOFF
	bl	_printf
	b	LBB43_6
LBB43_3:
	ldur	x8, [x29, #-24]
	add	x0, x8, #8
	bl	__ZNSt3__117holds_alternativeB8ne180100I6Mand_tJ11uniCourse_tS1_EEEbRKNS_7variantIJDpT0_EEE
	tbz	w0, #0, LBB43_5
	b	LBB43_4
LBB43_4:
	ldur	x8, [x29, #-24]
	add	x0, x8, #8
	bl	__ZNSt3__13getB8ne180100I6Mand_tJ11uniCourse_tS1_EEERKT_RKNS_7variantIJDpT0_EEE
	stur	x0, [x29, #-40]
	ldur	x0, [x29, #-40]
	bl	__ZNK6String3getEv
	mov	x8, sp
	str	x0, [x8]
	adrp	x0, l_.str.8@PAGE
	add	x0, x0, l_.str.8@PAGEOFF
	bl	_printf
	b	LBB43_5
LBB43_5:
	b	LBB43_6
LBB43_6:
	b	LBB43_18
LBB43_7:
	ldr	x0, [sp, #16]                   ; 8-byte Folded Reload
	bl	__ZNSt3__117holds_alternativeB8ne180100I5SLEEPJ4WORKS1_4FREEEEEbRKNS_7variantIJDpT0_EEE
	tbz	w0, #0, LBB43_9
	b	LBB43_8
LBB43_8:
	ldr	x0, [sp, #16]                   ; 8-byte Folded Reload
	bl	__ZNSt3__13getB8ne180100I5SLEEPJ4WORKS1_4FREEEEERT_RNS_7variantIJDpT0_EEE
	str	x0, [sp, #48]
	ldr	x8, [sp, #48]
	add	x0, x8, #8
	bl	__ZNK6String3getEv
	mov	x8, sp
	str	x0, [x8]
	adrp	x0, l_.str.9@PAGE
	add	x0, x0, l_.str.9@PAGEOFF
	bl	_printf
	b	LBB43_17
LBB43_9:
	ldr	x0, [sp, #16]                   ; 8-byte Folded Reload
	bl	__ZNSt3__117holds_alternativeB8ne180100I4FREEJ4WORK5SLEEPS1_EEEbRKNS_7variantIJDpT0_EEE
	tbz	w0, #0, LBB43_16
	b	LBB43_10
LBB43_10:
	ldr	x0, [sp, #16]                   ; 8-byte Folded Reload
	bl	__ZNSt3__13getB8ne180100I4FREEJ4WORK5SLEEPS1_EEERT_RNS_7variantIJDpT0_EEE
	str	x0, [sp, #40]
	ldr	x0, [sp, #40]
	bl	__ZNSt3__117holds_alternativeB8ne180100I7Break_tJS1_6None_tEEEbRKNS_7variantIJDpT0_EEE
	tbz	w0, #0, LBB43_12
	b	LBB43_11
LBB43_11:
	ldr	x0, [sp, #40]
	bl	__ZNSt3__13getB8ne180100I7Break_tJS1_6None_tEEERKT_RKNS_7variantIJDpT0_EEE
	str	x0, [sp, #32]
	ldr	x8, [sp, #32]
	add	x0, x8, #8
	bl	__ZNK6String3getEv
	mov	x8, sp
	str	x0, [x8]
	adrp	x0, l_.str.9@PAGE
	add	x0, x0, l_.str.9@PAGEOFF
	bl	_printf
	b	LBB43_15
LBB43_12:
	ldr	x0, [sp, #40]
	bl	__ZNSt3__117holds_alternativeB8ne180100I6None_tJ7Break_tS1_EEEbRKNS_7variantIJDpT0_EEE
	tbz	w0, #0, LBB43_14
	b	LBB43_13
LBB43_13:
	ldr	x0, [sp, #40]
	bl	__ZNSt3__13getB8ne180100I6None_tJ7Break_tS1_EEERKT_RKNS_7variantIJDpT0_EEE
	str	x0, [sp, #24]
	ldr	x0, [sp, #24]
	bl	__ZNK6String3getEv
	mov	x8, sp
	str	x0, [x8]
	adrp	x0, l_.str.9@PAGE
	add	x0, x0, l_.str.9@PAGEOFF
	bl	_printf
	b	LBB43_14
LBB43_14:
	b	LBB43_15
LBB43_15:
	b	LBB43_16
LBB43_16:
	b	LBB43_17
LBB43_17:
	b	LBB43_18
LBB43_18:
	ldp	x29, x30, [sp, #96]             ; 16-byte Folded Reload
	add	sp, sp, #112
	ret
	.cfi_endproc
                                        ; -- End function
	.private_extern	__ZNSt3__13getB8ne180100I4WORKJS1_5SLEEP4FREEEEERT_RNS_7variantIJDpT0_EEE ; -- Begin function _ZNSt3__13getB8ne180100I4WORKJS1_5SLEEP4FREEEEERT_RNS_7variantIJDpT0_EEE
	.globl	__ZNSt3__13getB8ne180100I4WORKJS1_5SLEEP4FREEEEERT_RNS_7variantIJDpT0_EEE
	.weak_definition	__ZNSt3__13getB8ne180100I4WORKJS1_5SLEEP4FREEEEERT_RNS_7variantIJDpT0_EEE
	.p2align	2
__ZNSt3__13getB8ne180100I4WORKJS1_5SLEEP4FREEEEERT_RNS_7variantIJDpT0_EEE: ; @_ZNSt3__13getB8ne180100I4WORKJS1_5SLEEP4FREEEEERT_RNS_7variantIJDpT0_EEE
	.cfi_startproc
; %bb.0:
	sub	sp, sp, #32
	stp	x29, x30, [sp, #16]             ; 16-byte Folded Spill
	add	x29, sp, #16
	.cfi_def_cfa w29, 16
	.cfi_offset w30, -8
	.cfi_offset w29, -16
	str	x0, [sp, #8]
	ldr	x0, [sp, #8]
	bl	__ZNSt3__13getB8ne180100ILm0EJ4WORK5SLEEP4FREEEEERNS_19variant_alternativeIXT_ENS_7variantIJDpT0_EEEE4typeERS8_
	ldp	x29, x30, [sp, #16]             ; 16-byte Folded Reload
	add	sp, sp, #32
	ret
	.cfi_endproc
                                        ; -- End function
	.private_extern	__ZNSt3__13getB8ne180100I5SLEEPJ4WORKS1_4FREEEEERT_RNS_7variantIJDpT0_EEE ; -- Begin function _ZNSt3__13getB8ne180100I5SLEEPJ4WORKS1_4FREEEEERT_RNS_7variantIJDpT0_EEE
	.globl	__ZNSt3__13getB8ne180100I5SLEEPJ4WORKS1_4FREEEEERT_RNS_7variantIJDpT0_EEE
	.weak_definition	__ZNSt3__13getB8ne180100I5SLEEPJ4WORKS1_4FREEEEERT_RNS_7variantIJDpT0_EEE
	.p2align	2
__ZNSt3__13getB8ne180100I5SLEEPJ4WORKS1_4FREEEEERT_RNS_7variantIJDpT0_EEE: ; @_ZNSt3__13getB8ne180100I5SLEEPJ4WORKS1_4FREEEEERT_RNS_7variantIJDpT0_EEE
	.cfi_startproc
; %bb.0:
	sub	sp, sp, #32
	stp	x29, x30, [sp, #16]             ; 16-byte Folded Spill
	add	x29, sp, #16
	.cfi_def_cfa w29, 16
	.cfi_offset w30, -8
	.cfi_offset w29, -16
	str	x0, [sp, #8]
	ldr	x0, [sp, #8]
	bl	__ZNSt3__13getB8ne180100ILm1EJ4WORK5SLEEP4FREEEEERNS_19variant_alternativeIXT_ENS_7variantIJDpT0_EEEE4typeERS8_
	ldp	x29, x30, [sp, #16]             ; 16-byte Folded Reload
	add	sp, sp, #32
	ret
	.cfi_endproc
                                        ; -- End function
	.private_extern	__ZNSt3__13getB8ne180100I4FREEJ4WORK5SLEEPS1_EEERT_RNS_7variantIJDpT0_EEE ; -- Begin function _ZNSt3__13getB8ne180100I4FREEJ4WORK5SLEEPS1_EEERT_RNS_7variantIJDpT0_EEE
	.globl	__ZNSt3__13getB8ne180100I4FREEJ4WORK5SLEEPS1_EEERT_RNS_7variantIJDpT0_EEE
	.weak_definition	__ZNSt3__13getB8ne180100I4FREEJ4WORK5SLEEPS1_EEERT_RNS_7variantIJDpT0_EEE
	.p2align	2
__ZNSt3__13getB8ne180100I4FREEJ4WORK5SLEEPS1_EEERT_RNS_7variantIJDpT0_EEE: ; @_ZNSt3__13getB8ne180100I4FREEJ4WORK5SLEEPS1_EEERT_RNS_7variantIJDpT0_EEE
	.cfi_startproc
; %bb.0:
	sub	sp, sp, #32
	stp	x29, x30, [sp, #16]             ; 16-byte Folded Spill
	add	x29, sp, #16
	.cfi_def_cfa w29, 16
	.cfi_offset w30, -8
	.cfi_offset w29, -16
	str	x0, [sp, #8]
	ldr	x0, [sp, #8]
	bl	__ZNSt3__13getB8ne180100ILm2EJ4WORK5SLEEP4FREEEEERNS_19variant_alternativeIXT_ENS_7variantIJDpT0_EEEE4typeERS8_
	ldp	x29, x30, [sp, #16]             ; 16-byte Folded Reload
	add	sp, sp, #32
	ret
	.cfi_endproc
                                        ; -- End function
	.globl	__ZN10Activity_t11getScheduleEv ; -- Begin function _ZN10Activity_t11getScheduleEv
	.p2align	2
__ZN10Activity_t11getScheduleEv:        ; @_ZN10Activity_t11getScheduleEv
	.cfi_startproc
; %bb.0:
	sub	sp, sp, #16
	.cfi_def_cfa_offset 16
	str	x0, [sp]
	ldr	x8, [sp]
	ldrh	w8, [x8, #96]
	strh	w8, [sp, #14]
	ldrh	w0, [sp, #14]
	add	sp, sp, #16
	ret
	.cfi_endproc
                                        ; -- End function
	.globl	__ZN10Activity_t15getActivityInfoEv ; -- Begin function _ZN10Activity_t15getActivityInfoEv
	.p2align	2
__ZN10Activity_t15getActivityInfoEv:    ; @_ZN10Activity_t15getActivityInfoEv
	.cfi_startproc
; %bb.0:
	sub	sp, sp, #48
	stp	x29, x30, [sp, #32]             ; 16-byte Folded Spill
	add	x29, sp, #32
	.cfi_def_cfa w29, 16
	.cfi_offset w30, -8
	.cfi_offset w29, -16
	str	x8, [sp, #8]                    ; 8-byte Folded Spill
	mov	x8, x0
	ldr	x0, [sp, #8]                    ; 8-byte Folded Reload
	mov	x9, x0
	stur	x9, [x29, #-8]
	str	x8, [sp, #16]
	ldr	x1, [sp, #16]
	bl	__ZNSt3__17variantIJ4WORK5SLEEP4FREEEEC1B8ne180100ERKS4_
	ldp	x29, x30, [sp, #32]             ; 16-byte Folded Reload
	add	sp, sp, #48
	ret
	.cfi_endproc
                                        ; -- End function
	.private_extern	__ZNSt3__17variantIJ4WORK5SLEEP4FREEEEC1B8ne180100ERKS4_ ; -- Begin function _ZNSt3__17variantIJ4WORK5SLEEP4FREEEEC1B8ne180100ERKS4_
	.globl	__ZNSt3__17variantIJ4WORK5SLEEP4FREEEEC1B8ne180100ERKS4_
	.weak_def_can_be_hidden	__ZNSt3__17variantIJ4WORK5SLEEP4FREEEEC1B8ne180100ERKS4_
	.p2align	2
__ZNSt3__17variantIJ4WORK5SLEEP4FREEEEC1B8ne180100ERKS4_: ; @_ZNSt3__17variantIJ4WORK5SLEEP4FREEEEC1B8ne180100ERKS4_
	.cfi_startproc
; %bb.0:
	sub	sp, sp, #48
	stp	x29, x30, [sp, #32]             ; 16-byte Folded Spill
	add	x29, sp, #32
	.cfi_def_cfa w29, 16
	.cfi_offset w30, -8
	.cfi_offset w29, -16
	stur	x0, [x29, #-8]
	str	x1, [sp, #16]
	ldur	x0, [x29, #-8]
	str	x0, [sp, #8]                    ; 8-byte Folded Spill
	ldr	x1, [sp, #16]
	bl	__ZNSt3__17variantIJ4WORK5SLEEP4FREEEEC2B8ne180100ERKS4_
	ldr	x0, [sp, #8]                    ; 8-byte Folded Reload
	ldp	x29, x30, [sp, #32]             ; 16-byte Folded Reload
	add	sp, sp, #48
	ret
	.cfi_endproc
                                        ; -- End function
	.globl	__ZN10Activity_t6setEndEh       ; -- Begin function _ZN10Activity_t6setEndEh
	.p2align	2
__ZN10Activity_t6setEndEh:              ; @_ZN10Activity_t6setEndEh
	.cfi_startproc
; %bb.0:
	sub	sp, sp, #16
	.cfi_def_cfa_offset 16
	str	x0, [sp, #8]
	strb	w1, [sp, #7]
	ldr	x9, [sp, #8]
	ldrb	w8, [sp, #7]
	strb	w8, [x9, #97]
	add	sp, sp, #16
	ret
	.cfi_endproc
                                        ; -- End function
	.globl	__ZN10Activity_t8setStartEh     ; -- Begin function _ZN10Activity_t8setStartEh
	.p2align	2
__ZN10Activity_t8setStartEh:            ; @_ZN10Activity_t8setStartEh
	.cfi_startproc
; %bb.0:
	sub	sp, sp, #16
	.cfi_def_cfa_offset 16
	str	x0, [sp, #8]
	strb	w1, [sp, #7]
	ldr	x9, [sp, #8]
	ldrb	w8, [sp, #7]
	strb	w8, [x9, #96]
	add	sp, sp, #16
	ret
	.cfi_endproc
                                        ; -- End function
	.globl	__ZNK10Activity_teqERKS_        ; -- Begin function _ZNK10Activity_teqERKS_
	.p2align	2
__ZNK10Activity_teqERKS_:               ; @_ZNK10Activity_teqERKS_
	.cfi_startproc
; %bb.0:
	sub	sp, sp, #32
	.cfi_def_cfa_offset 32
	str	x0, [sp, #24]
	str	x1, [sp, #16]
	ldr	x8, [sp, #24]
	str	x8, [sp]                        ; 8-byte Folded Spill
	ldrb	w8, [x8, #96]
	ldr	x9, [sp, #16]
	ldrb	w9, [x9, #96]
	subs	w8, w8, w9
	cset	w8, ne
	mov	w9, #0                          ; =0x0
	str	w9, [sp, #12]                   ; 4-byte Folded Spill
	tbnz	w8, #0, LBB52_2
	b	LBB52_1
LBB52_1:
	ldr	x8, [sp]                        ; 8-byte Folded Reload
	ldrb	w8, [x8, #97]
	ldr	x9, [sp, #16]
	ldrb	w9, [x9, #97]
	subs	w8, w8, w9
	cset	w8, eq
	str	w8, [sp, #12]                   ; 4-byte Folded Spill
	b	LBB52_2
LBB52_2:
	ldr	w8, [sp, #12]                   ; 4-byte Folded Reload
	and	w0, w8, #0x1
	add	sp, sp, #32
	ret
	.cfi_endproc
                                        ; -- End function
	.globl	__ZN11TimeTable_tC2Ev           ; -- Begin function _ZN11TimeTable_tC2Ev
	.p2align	2
__ZN11TimeTable_tC2Ev:                  ; @_ZN11TimeTable_tC2Ev
Lfunc_begin2:
	.cfi_startproc
	.cfi_personality 155, ___gxx_personality_v0
	.cfi_lsda 16, Lexception2
; %bb.0:
	sub	sp, sp, #144
	stp	x29, x30, [sp, #128]            ; 16-byte Folded Spill
	add	x29, sp, #128
	.cfi_def_cfa w29, 16
	.cfi_offset w30, -8
	.cfi_offset w29, -16
	stur	x0, [x29, #-8]
	ldur	x0, [x29, #-8]
	str	x0, [sp]                        ; 8-byte Folded Spill
	bl	__ZNSt3__16vectorIP10Activity_tNS_9allocatorIS2_EEEC1B8ne180100Ev
Ltmp40:
	mov	x0, #104                        ; =0x68
	bl	__Znwm
	str	x0, [sp, #8]                    ; 8-byte Folded Spill
Ltmp41:
	b	LBB53_1
LBB53_1:
	mov	w8, #1                          ; =0x1
	and	w8, w8, #0x1
	and	w8, w8, #0x1
	strb	w8, [sp, #23]
Ltmp42:
	add	x0, sp, #24
	adrp	x1, l_.str.12@PAGE
	add	x1, x1, l_.str.12@PAGEOFF
	bl	__ZN6StringC1EPKc
Ltmp43:
	b	LBB53_2
LBB53_2:
Ltmp45:
	add	x0, sp, #40
	add	x1, sp, #24
	bl	__ZNSt3__17variantIJ7Break_t6None_tEEC1B8ne180100IS2_Li0ELi0ELi0ES2_Lm1ELi0EEEOT_
Ltmp46:
	b	LBB53_3
LBB53_3:
	add	x8, sp, #40
	mov	w9, #2                          ; =0x2
	strh	w9, [sp, #72]
	add	x0, x8, #40
Ltmp48:
	adrp	x1, l_.str.13@PAGE
	add	x1, x1, l_.str.13@PAGEOFF
	bl	__ZN6StringC1EPKc
Ltmp49:
	b	LBB53_4
LBB53_4:
Ltmp51:
	ldr	x0, [sp, #8]                    ; 8-byte Folded Reload
	add	x1, sp, #40
	mov	w2, #0                          ; =0x0
	mov	w3, #95                         ; =0x5f
	bl	__ZN10Activity_tC1I4FREEEET_hh
Ltmp52:
	b	LBB53_5
LBB53_5:
	mov	w8, #0                          ; =0x0
	and	w8, w8, #0x1
	and	w8, w8, #0x1
	strb	w8, [sp, #23]
	add	x0, sp, #40
	bl	__ZN4FREED1Ev
	add	x0, sp, #24
	bl	__ZN6None_tD1Ev
	ldr	x0, [sp]                        ; 8-byte Folded Reload
	ldr	x8, [sp, #8]                    ; 8-byte Folded Reload
	sub	x2, x29, #16
	stur	x8, [x29, #-16]
Ltmp54:
	mov	x1, #96                         ; =0x60
	bl	__ZNSt3__16vectorIP10Activity_tNS_9allocatorIS2_EEE6resizeEmRKS2_
Ltmp55:
	b	LBB53_6
LBB53_6:
	ldr	x0, [sp]                        ; 8-byte Folded Reload
	ldp	x29, x30, [sp, #128]            ; 16-byte Folded Reload
	add	sp, sp, #144
	ret
LBB53_7:
Ltmp56:
	stur	x0, [x29, #-24]
	mov	x8, x1
	stur	w8, [x29, #-28]
	b	LBB53_16
LBB53_8:
Ltmp44:
	stur	x0, [x29, #-24]
	mov	x8, x1
	stur	w8, [x29, #-28]
	b	LBB53_13
LBB53_9:
Ltmp47:
	stur	x0, [x29, #-24]
	mov	x8, x1
	stur	w8, [x29, #-28]
	b	LBB53_12
LBB53_10:
Ltmp50:
	stur	x0, [x29, #-24]
	mov	x8, x1
	stur	w8, [x29, #-28]
	add	x0, sp, #40
	bl	__ZNSt3__17variantIJ7Break_t6None_tEED1B8ne180100Ev
	b	LBB53_12
LBB53_11:
Ltmp53:
	stur	x0, [x29, #-24]
	mov	x8, x1
	stur	w8, [x29, #-28]
	add	x0, sp, #40
	bl	__ZN4FREED1Ev
	b	LBB53_12
LBB53_12:
	add	x0, sp, #24
	bl	__ZN6None_tD1Ev
	b	LBB53_13
LBB53_13:
	ldrb	w8, [sp, #23]
	tbz	w8, #0, LBB53_15
	b	LBB53_14
LBB53_14:
	ldr	x0, [sp, #8]                    ; 8-byte Folded Reload
	bl	__ZdlPv
	b	LBB53_15
LBB53_15:
	b	LBB53_16
LBB53_16:
	ldr	x0, [sp]                        ; 8-byte Folded Reload
	bl	__ZNSt3__16vectorIP10Activity_tNS_9allocatorIS2_EEED1B8ne180100Ev
	b	LBB53_17
LBB53_17:
	ldur	x0, [x29, #-24]
	bl	__Unwind_Resume
Lfunc_end2:
	.cfi_endproc
	.section	__TEXT,__gcc_except_tab
	.p2align	2, 0x0
GCC_except_table53:
Lexception2:
	.byte	255                             ; @LPStart Encoding = omit
	.byte	255                             ; @TType Encoding = omit
	.byte	1                               ; Call site Encoding = uleb128
	.uleb128 Lcst_end2-Lcst_begin2
Lcst_begin2:
	.uleb128 Ltmp40-Lfunc_begin2            ; >> Call Site 1 <<
	.uleb128 Ltmp41-Ltmp40                  ;   Call between Ltmp40 and Ltmp41
	.uleb128 Ltmp56-Lfunc_begin2            ;     jumps to Ltmp56
	.byte	0                               ;   On action: cleanup
	.uleb128 Ltmp42-Lfunc_begin2            ; >> Call Site 2 <<
	.uleb128 Ltmp43-Ltmp42                  ;   Call between Ltmp42 and Ltmp43
	.uleb128 Ltmp44-Lfunc_begin2            ;     jumps to Ltmp44
	.byte	0                               ;   On action: cleanup
	.uleb128 Ltmp45-Lfunc_begin2            ; >> Call Site 3 <<
	.uleb128 Ltmp46-Ltmp45                  ;   Call between Ltmp45 and Ltmp46
	.uleb128 Ltmp47-Lfunc_begin2            ;     jumps to Ltmp47
	.byte	0                               ;   On action: cleanup
	.uleb128 Ltmp48-Lfunc_begin2            ; >> Call Site 4 <<
	.uleb128 Ltmp49-Ltmp48                  ;   Call between Ltmp48 and Ltmp49
	.uleb128 Ltmp50-Lfunc_begin2            ;     jumps to Ltmp50
	.byte	0                               ;   On action: cleanup
	.uleb128 Ltmp51-Lfunc_begin2            ; >> Call Site 5 <<
	.uleb128 Ltmp52-Ltmp51                  ;   Call between Ltmp51 and Ltmp52
	.uleb128 Ltmp53-Lfunc_begin2            ;     jumps to Ltmp53
	.byte	0                               ;   On action: cleanup
	.uleb128 Ltmp54-Lfunc_begin2            ; >> Call Site 6 <<
	.uleb128 Ltmp55-Ltmp54                  ;   Call between Ltmp54 and Ltmp55
	.uleb128 Ltmp56-Lfunc_begin2            ;     jumps to Ltmp56
	.byte	0                               ;   On action: cleanup
	.uleb128 Ltmp55-Lfunc_begin2            ; >> Call Site 7 <<
	.uleb128 Lfunc_end2-Ltmp55              ;   Call between Ltmp55 and Lfunc_end2
	.byte	0                               ;     has no landing pad
	.byte	0                               ;   On action: cleanup
Lcst_end2:
	.p2align	2, 0x0
                                        ; -- End function
	.section	__TEXT,__text,regular,pure_instructions
	.private_extern	__ZNSt3__16vectorIP10Activity_tNS_9allocatorIS2_EEEC1B8ne180100Ev ; -- Begin function _ZNSt3__16vectorIP10Activity_tNS_9allocatorIS2_EEEC1B8ne180100Ev
	.globl	__ZNSt3__16vectorIP10Activity_tNS_9allocatorIS2_EEEC1B8ne180100Ev
	.weak_def_can_be_hidden	__ZNSt3__16vectorIP10Activity_tNS_9allocatorIS2_EEEC1B8ne180100Ev
	.p2align	2
__ZNSt3__16vectorIP10Activity_tNS_9allocatorIS2_EEEC1B8ne180100Ev: ; @_ZNSt3__16vectorIP10Activity_tNS_9allocatorIS2_EEEC1B8ne180100Ev
	.cfi_startproc
; %bb.0:
	sub	sp, sp, #32
	stp	x29, x30, [sp, #16]             ; 16-byte Folded Spill
	add	x29, sp, #16
	.cfi_def_cfa w29, 16
	.cfi_offset w30, -8
	.cfi_offset w29, -16
	str	x0, [sp, #8]
	ldr	x0, [sp, #8]
	str	x0, [sp]                        ; 8-byte Folded Spill
	bl	__ZNSt3__16vectorIP10Activity_tNS_9allocatorIS2_EEEC2B8ne180100Ev
	ldr	x0, [sp]                        ; 8-byte Folded Reload
	ldp	x29, x30, [sp, #16]             ; 16-byte Folded Reload
	add	sp, sp, #32
	ret
	.cfi_endproc
                                        ; -- End function
	.globl	__ZN6StringC1EPKc               ; -- Begin function _ZN6StringC1EPKc
	.weak_def_can_be_hidden	__ZN6StringC1EPKc
	.p2align	2
__ZN6StringC1EPKc:                      ; @_ZN6StringC1EPKc
	.cfi_startproc
; %bb.0:
	sub	sp, sp, #48
	stp	x29, x30, [sp, #32]             ; 16-byte Folded Spill
	add	x29, sp, #32
	.cfi_def_cfa w29, 16
	.cfi_offset w30, -8
	.cfi_offset w29, -16
	stur	x0, [x29, #-8]
	str	x1, [sp, #16]
	ldur	x0, [x29, #-8]
	str	x0, [sp, #8]                    ; 8-byte Folded Spill
	ldr	x1, [sp, #16]
	bl	__ZN6StringC2EPKc
	ldr	x0, [sp, #8]                    ; 8-byte Folded Reload
	ldp	x29, x30, [sp, #32]             ; 16-byte Folded Reload
	add	sp, sp, #48
	ret
	.cfi_endproc
                                        ; -- End function
	.globl	__ZNSt3__17variantIJ7Break_t6None_tEEC1B8ne180100IS2_Li0ELi0ELi0ES2_Lm1ELi0EEEOT_ ; -- Begin function _ZNSt3__17variantIJ7Break_t6None_tEEC1B8ne180100IS2_Li0ELi0ELi0ES2_Lm1ELi0EEEOT_
	.weak_def_can_be_hidden	__ZNSt3__17variantIJ7Break_t6None_tEEC1B8ne180100IS2_Li0ELi0ELi0ES2_Lm1ELi0EEEOT_
	.p2align	2
__ZNSt3__17variantIJ7Break_t6None_tEEC1B8ne180100IS2_Li0ELi0ELi0ES2_Lm1ELi0EEEOT_: ; @_ZNSt3__17variantIJ7Break_t6None_tEEC1B8ne180100IS2_Li0ELi0ELi0ES2_Lm1ELi0EEEOT_
	.cfi_startproc
; %bb.0:
	sub	sp, sp, #48
	stp	x29, x30, [sp, #32]             ; 16-byte Folded Spill
	add	x29, sp, #32
	.cfi_def_cfa w29, 16
	.cfi_offset w30, -8
	.cfi_offset w29, -16
	stur	x0, [x29, #-8]
	str	x1, [sp, #16]
	ldur	x0, [x29, #-8]
	str	x0, [sp, #8]                    ; 8-byte Folded Spill
	ldr	x1, [sp, #16]
	bl	__ZNSt3__17variantIJ7Break_t6None_tEEC2B8ne180100IS2_Li0ELi0ELi0ES2_Lm1ELi0EEEOT_
	ldr	x0, [sp, #8]                    ; 8-byte Folded Reload
	ldp	x29, x30, [sp, #32]             ; 16-byte Folded Reload
	add	sp, sp, #48
	ret
	.cfi_endproc
                                        ; -- End function
	.private_extern	__ZNSt3__17variantIJ7Break_t6None_tEED1B8ne180100Ev ; -- Begin function _ZNSt3__17variantIJ7Break_t6None_tEED1B8ne180100Ev
	.globl	__ZNSt3__17variantIJ7Break_t6None_tEED1B8ne180100Ev
	.weak_def_can_be_hidden	__ZNSt3__17variantIJ7Break_t6None_tEED1B8ne180100Ev
	.p2align	2
__ZNSt3__17variantIJ7Break_t6None_tEED1B8ne180100Ev: ; @_ZNSt3__17variantIJ7Break_t6None_tEED1B8ne180100Ev
	.cfi_startproc
; %bb.0:
	sub	sp, sp, #32
	stp	x29, x30, [sp, #16]             ; 16-byte Folded Spill
	add	x29, sp, #16
	.cfi_def_cfa w29, 16
	.cfi_offset w30, -8
	.cfi_offset w29, -16
	str	x0, [sp, #8]
	ldr	x0, [sp, #8]
	str	x0, [sp]                        ; 8-byte Folded Spill
	bl	__ZNSt3__17variantIJ7Break_t6None_tEED2B8ne180100Ev
	ldr	x0, [sp]                        ; 8-byte Folded Reload
	ldp	x29, x30, [sp, #16]             ; 16-byte Folded Reload
	add	sp, sp, #32
	ret
	.cfi_endproc
                                        ; -- End function
	.globl	__ZN10Activity_tC1I4FREEEET_hh  ; -- Begin function _ZN10Activity_tC1I4FREEEET_hh
	.weak_def_can_be_hidden	__ZN10Activity_tC1I4FREEEET_hh
	.p2align	2
__ZN10Activity_tC1I4FREEEET_hh:         ; @_ZN10Activity_tC1I4FREEEET_hh
	.cfi_startproc
; %bb.0:
	sub	sp, sp, #48
	stp	x29, x30, [sp, #32]             ; 16-byte Folded Spill
	add	x29, sp, #32
	.cfi_def_cfa w29, 16
	.cfi_offset w30, -8
	.cfi_offset w29, -16
	stur	x0, [x29, #-8]
	mov	x8, x1
	str	x8, [sp, #16]
	strb	w2, [sp, #15]
	strb	w3, [sp, #14]
	ldur	x0, [x29, #-8]
	str	x0, [sp]                        ; 8-byte Folded Spill
	ldrb	w2, [sp, #15]
	ldrb	w3, [sp, #14]
	bl	__ZN10Activity_tC2I4FREEEET_hh
	ldr	x0, [sp]                        ; 8-byte Folded Reload
	ldp	x29, x30, [sp, #32]             ; 16-byte Folded Reload
	add	sp, sp, #48
	ret
	.cfi_endproc
                                        ; -- End function
	.globl	__ZN4FREED1Ev                   ; -- Begin function _ZN4FREED1Ev
	.weak_def_can_be_hidden	__ZN4FREED1Ev
	.p2align	2
__ZN4FREED1Ev:                          ; @_ZN4FREED1Ev
	.cfi_startproc
; %bb.0:
	sub	sp, sp, #32
	stp	x29, x30, [sp, #16]             ; 16-byte Folded Spill
	add	x29, sp, #16
	.cfi_def_cfa w29, 16
	.cfi_offset w30, -8
	.cfi_offset w29, -16
	str	x0, [sp, #8]
	ldr	x0, [sp, #8]
	str	x0, [sp]                        ; 8-byte Folded Spill
	bl	__ZN4FREED2Ev
	ldr	x0, [sp]                        ; 8-byte Folded Reload
	ldp	x29, x30, [sp, #16]             ; 16-byte Folded Reload
	add	sp, sp, #32
	ret
	.cfi_endproc
                                        ; -- End function
	.globl	__ZN6None_tD1Ev                 ; -- Begin function _ZN6None_tD1Ev
	.weak_def_can_be_hidden	__ZN6None_tD1Ev
	.p2align	2
__ZN6None_tD1Ev:                        ; @_ZN6None_tD1Ev
	.cfi_startproc
; %bb.0:
	sub	sp, sp, #32
	stp	x29, x30, [sp, #16]             ; 16-byte Folded Spill
	add	x29, sp, #16
	.cfi_def_cfa w29, 16
	.cfi_offset w30, -8
	.cfi_offset w29, -16
	str	x0, [sp, #8]
	ldr	x0, [sp, #8]
	str	x0, [sp]                        ; 8-byte Folded Spill
	bl	__ZN6None_tD2Ev
	ldr	x0, [sp]                        ; 8-byte Folded Reload
	ldp	x29, x30, [sp, #16]             ; 16-byte Folded Reload
	add	sp, sp, #32
	ret
	.cfi_endproc
                                        ; -- End function
	.private_extern	__ZNSt3__16vectorIP10Activity_tNS_9allocatorIS2_EEE6resizeEmRKS2_ ; -- Begin function _ZNSt3__16vectorIP10Activity_tNS_9allocatorIS2_EEE6resizeEmRKS2_
	.globl	__ZNSt3__16vectorIP10Activity_tNS_9allocatorIS2_EEE6resizeEmRKS2_
	.weak_definition	__ZNSt3__16vectorIP10Activity_tNS_9allocatorIS2_EEE6resizeEmRKS2_
	.p2align	2
__ZNSt3__16vectorIP10Activity_tNS_9allocatorIS2_EEE6resizeEmRKS2_: ; @_ZNSt3__16vectorIP10Activity_tNS_9allocatorIS2_EEE6resizeEmRKS2_
	.cfi_startproc
; %bb.0:
	sub	sp, sp, #64
	stp	x29, x30, [sp, #48]             ; 16-byte Folded Spill
	add	x29, sp, #48
	.cfi_def_cfa w29, 16
	.cfi_offset w30, -8
	.cfi_offset w29, -16
	stur	x0, [x29, #-8]
	stur	x1, [x29, #-16]
	str	x2, [sp, #24]
	ldur	x0, [x29, #-8]
	str	x0, [sp, #8]                    ; 8-byte Folded Spill
	bl	__ZNKSt3__16vectorIP10Activity_tNS_9allocatorIS2_EEE4sizeB8ne180100Ev
	str	x0, [sp, #16]
	ldr	x8, [sp, #16]
	ldur	x9, [x29, #-16]
	subs	x8, x8, x9
	cset	w8, hs
	tbnz	w8, #0, LBB61_2
	b	LBB61_1
LBB61_1:
	ldr	x0, [sp, #8]                    ; 8-byte Folded Reload
	ldur	x8, [x29, #-16]
	ldr	x9, [sp, #16]
	subs	x1, x8, x9
	ldr	x2, [sp, #24]
	bl	__ZNSt3__16vectorIP10Activity_tNS_9allocatorIS2_EEE8__appendEmRKS2_
	b	LBB61_5
LBB61_2:
	ldr	x8, [sp, #16]
	ldur	x9, [x29, #-16]
	subs	x8, x8, x9
	cset	w8, ls
	tbnz	w8, #0, LBB61_4
	b	LBB61_3
LBB61_3:
	ldr	x0, [sp, #8]                    ; 8-byte Folded Reload
	ldr	x8, [x0]
	ldur	x9, [x29, #-16]
	add	x1, x8, x9, lsl #3
	bl	__ZNSt3__16vectorIP10Activity_tNS_9allocatorIS2_EEE17__destruct_at_endB8ne180100EPS2_
	b	LBB61_4
LBB61_4:
	b	LBB61_5
LBB61_5:
	ldp	x29, x30, [sp, #48]             ; 16-byte Folded Reload
	add	sp, sp, #64
	ret
	.cfi_endproc
                                        ; -- End function
	.private_extern	__ZNSt3__16vectorIP10Activity_tNS_9allocatorIS2_EEED1B8ne180100Ev ; -- Begin function _ZNSt3__16vectorIP10Activity_tNS_9allocatorIS2_EEED1B8ne180100Ev
	.globl	__ZNSt3__16vectorIP10Activity_tNS_9allocatorIS2_EEED1B8ne180100Ev
	.weak_def_can_be_hidden	__ZNSt3__16vectorIP10Activity_tNS_9allocatorIS2_EEED1B8ne180100Ev
	.p2align	2
__ZNSt3__16vectorIP10Activity_tNS_9allocatorIS2_EEED1B8ne180100Ev: ; @_ZNSt3__16vectorIP10Activity_tNS_9allocatorIS2_EEED1B8ne180100Ev
	.cfi_startproc
; %bb.0:
	sub	sp, sp, #32
	stp	x29, x30, [sp, #16]             ; 16-byte Folded Spill
	add	x29, sp, #16
	.cfi_def_cfa w29, 16
	.cfi_offset w30, -8
	.cfi_offset w29, -16
	str	x0, [sp, #8]
	ldr	x0, [sp, #8]
	str	x0, [sp]                        ; 8-byte Folded Spill
	bl	__ZNSt3__16vectorIP10Activity_tNS_9allocatorIS2_EEED2B8ne180100Ev
	ldr	x0, [sp]                        ; 8-byte Folded Reload
	ldp	x29, x30, [sp, #16]             ; 16-byte Folded Reload
	add	sp, sp, #32
	ret
	.cfi_endproc
                                        ; -- End function
	.globl	__ZN11TimeTable_tC1Ev           ; -- Begin function _ZN11TimeTable_tC1Ev
	.p2align	2
__ZN11TimeTable_tC1Ev:                  ; @_ZN11TimeTable_tC1Ev
	.cfi_startproc
; %bb.0:
	sub	sp, sp, #32
	stp	x29, x30, [sp, #16]             ; 16-byte Folded Spill
	add	x29, sp, #16
	.cfi_def_cfa w29, 16
	.cfi_offset w30, -8
	.cfi_offset w29, -16
	str	x0, [sp, #8]
	ldr	x0, [sp, #8]
	str	x0, [sp]                        ; 8-byte Folded Spill
	bl	__ZN11TimeTable_tC2Ev
	ldr	x0, [sp]                        ; 8-byte Folded Reload
	ldp	x29, x30, [sp, #16]             ; 16-byte Folded Reload
	add	sp, sp, #32
	ret
	.cfi_endproc
                                        ; -- End function
	.globl	__ZN11TimeTable_t6insertEP10Activity_t ; -- Begin function _ZN11TimeTable_t6insertEP10Activity_t
	.p2align	2
__ZN11TimeTable_t6insertEP10Activity_t: ; @_ZN11TimeTable_t6insertEP10Activity_t
Lfunc_begin3:
	.cfi_startproc
	.cfi_personality 155, ___gxx_personality_v0
	.cfi_lsda 16, Lexception3
; %bb.0:
	sub	sp, sp, #96
	stp	x29, x30, [sp, #80]             ; 16-byte Folded Spill
	add	x29, sp, #80
	.cfi_def_cfa w29, 16
	.cfi_offset w30, -8
	.cfi_offset w29, -16
	stur	x0, [x29, #-8]
	stur	x1, [x29, #-16]
	ldur	x8, [x29, #-8]
	str	x8, [sp, #16]                   ; 8-byte Folded Spill
	ldur	x0, [x29, #-16]
	bl	__ZN10Activity_t11getScheduleEv
	mov	x8, x0
	sub	x0, x29, #18
	str	x0, [sp, #24]                   ; 8-byte Folded Spill
	sturh	w8, [x29, #-18]
	bl	__ZNSt3__13getB8ne180100ILm0EhhEEONS_13tuple_elementIXT_ENS_4pairIT0_T1_EEE4typeEOS5_
	mov	x8, x0
	ldr	x0, [sp, #24]                   ; 8-byte Folded Reload
	stur	x8, [x29, #-32]
	bl	__ZNSt3__13getB8ne180100ILm1EhhEEONS_13tuple_elementIXT_ENS_4pairIT0_T1_EEE4typeEOS5_
	str	x0, [sp, #40]
	ldur	x8, [x29, #-32]
	ldrb	w8, [x8]
	strb	w8, [sp, #39]
	b	LBB64_1
LBB64_1:                                ; =>This Inner Loop Header: Depth=1
	ldrb	w8, [sp, #39]
	ldr	x9, [sp, #40]
	ldrb	w9, [x9]
	subs	w8, w8, w9
	cset	w8, gt
	tbnz	w8, #0, LBB64_7
	b	LBB64_2
LBB64_2:                                ;   in Loop: Header=BB64_1 Depth=1
	ldr	x0, [sp, #16]                   ; 8-byte Folded Reload
	ldrb	w1, [sp, #39]
Ltmp57:
	bl	__ZN11TimeTable_t13isOverridableEh
	str	w0, [sp, #12]                   ; 4-byte Folded Spill
Ltmp58:
	b	LBB64_3
LBB64_3:                                ;   in Loop: Header=BB64_1 Depth=1
	ldr	w8, [sp, #12]                   ; 4-byte Folded Reload
	tbz	w8, #0, LBB64_5
	b	LBB64_4
LBB64_4:                                ;   in Loop: Header=BB64_1 Depth=1
	ldr	x0, [sp, #16]                   ; 8-byte Folded Reload
	ldur	x8, [x29, #-16]
	str	x8, [sp]                        ; 8-byte Folded Spill
	ldrb	w8, [sp, #39]
	mov	x1, x8
	bl	__ZNSt3__16vectorIP10Activity_tNS_9allocatorIS2_EEEixB8ne180100Em
	ldr	x8, [sp]                        ; 8-byte Folded Reload
	str	x8, [x0]
	b	LBB64_5
LBB64_5:                                ;   in Loop: Header=BB64_1 Depth=1
	b	LBB64_6
LBB64_6:                                ;   in Loop: Header=BB64_1 Depth=1
	ldrb	w8, [sp, #39]
	add	w8, w8, #1
	strb	w8, [sp, #39]
	b	LBB64_1
LBB64_7:
	ldp	x29, x30, [sp, #80]             ; 16-byte Folded Reload
	add	sp, sp, #96
	ret
LBB64_8:
Ltmp59:
	bl	___clang_call_terminate
Lfunc_end3:
	.cfi_endproc
	.section	__TEXT,__gcc_except_tab
	.p2align	2, 0x0
GCC_except_table64:
Lexception3:
	.byte	255                             ; @LPStart Encoding = omit
	.byte	155                             ; @TType Encoding = indirect pcrel sdata4
	.uleb128 Lttbase2-Lttbaseref2
Lttbaseref2:
	.byte	1                               ; Call site Encoding = uleb128
	.uleb128 Lcst_end3-Lcst_begin3
Lcst_begin3:
	.uleb128 Ltmp57-Lfunc_begin3            ; >> Call Site 1 <<
	.uleb128 Ltmp58-Ltmp57                  ;   Call between Ltmp57 and Ltmp58
	.uleb128 Ltmp59-Lfunc_begin3            ;     jumps to Ltmp59
	.byte	1                               ;   On action: 1
Lcst_end3:
	.byte	1                               ; >> Action Record 1 <<
                                        ;   Catch TypeInfo 1
	.byte	0                               ;   No further actions
	.p2align	2, 0x0
                                        ; >> Catch TypeInfos <<
	.long	0                               ; TypeInfo 1
Lttbase2:
	.p2align	2, 0x0
                                        ; -- End function
	.section	__TEXT,__text,regular,pure_instructions
	.private_extern	__ZNSt3__13getB8ne180100ILm0EhhEEONS_13tuple_elementIXT_ENS_4pairIT0_T1_EEE4typeEOS5_ ; -- Begin function _ZNSt3__13getB8ne180100ILm0EhhEEONS_13tuple_elementIXT_ENS_4pairIT0_T1_EEE4typeEOS5_
	.globl	__ZNSt3__13getB8ne180100ILm0EhhEEONS_13tuple_elementIXT_ENS_4pairIT0_T1_EEE4typeEOS5_
	.weak_definition	__ZNSt3__13getB8ne180100ILm0EhhEEONS_13tuple_elementIXT_ENS_4pairIT0_T1_EEE4typeEOS5_
	.p2align	2
__ZNSt3__13getB8ne180100ILm0EhhEEONS_13tuple_elementIXT_ENS_4pairIT0_T1_EEE4typeEOS5_: ; @_ZNSt3__13getB8ne180100ILm0EhhEEONS_13tuple_elementIXT_ENS_4pairIT0_T1_EEE4typeEOS5_
	.cfi_startproc
; %bb.0:
	sub	sp, sp, #32
	stp	x29, x30, [sp, #16]             ; 16-byte Folded Spill
	add	x29, sp, #16
	.cfi_def_cfa w29, 16
	.cfi_offset w30, -8
	.cfi_offset w29, -16
	str	x0, [sp, #8]
	ldr	x0, [sp, #8]
	bl	__ZNSt3__110__get_pairILm0EE3getB8ne180100IhhEEOT_ONS_4pairIS3_T0_EE
	ldp	x29, x30, [sp, #16]             ; 16-byte Folded Reload
	add	sp, sp, #32
	ret
	.cfi_endproc
                                        ; -- End function
	.private_extern	__ZNSt3__13getB8ne180100ILm1EhhEEONS_13tuple_elementIXT_ENS_4pairIT0_T1_EEE4typeEOS5_ ; -- Begin function _ZNSt3__13getB8ne180100ILm1EhhEEONS_13tuple_elementIXT_ENS_4pairIT0_T1_EEE4typeEOS5_
	.globl	__ZNSt3__13getB8ne180100ILm1EhhEEONS_13tuple_elementIXT_ENS_4pairIT0_T1_EEE4typeEOS5_
	.weak_definition	__ZNSt3__13getB8ne180100ILm1EhhEEONS_13tuple_elementIXT_ENS_4pairIT0_T1_EEE4typeEOS5_
	.p2align	2
__ZNSt3__13getB8ne180100ILm1EhhEEONS_13tuple_elementIXT_ENS_4pairIT0_T1_EEE4typeEOS5_: ; @_ZNSt3__13getB8ne180100ILm1EhhEEONS_13tuple_elementIXT_ENS_4pairIT0_T1_EEE4typeEOS5_
	.cfi_startproc
; %bb.0:
	sub	sp, sp, #32
	stp	x29, x30, [sp, #16]             ; 16-byte Folded Spill
	add	x29, sp, #16
	.cfi_def_cfa w29, 16
	.cfi_offset w30, -8
	.cfi_offset w29, -16
	str	x0, [sp, #8]
	ldr	x0, [sp, #8]
	bl	__ZNSt3__110__get_pairILm1EE3getB8ne180100IhhEEOT0_ONS_4pairIT_S3_EE
	ldp	x29, x30, [sp, #16]             ; 16-byte Folded Reload
	add	sp, sp, #32
	ret
	.cfi_endproc
                                        ; -- End function
	.globl	__ZN11TimeTable_t13isOverridableEh ; -- Begin function _ZN11TimeTable_t13isOverridableEh
	.p2align	2
__ZN11TimeTable_t13isOverridableEh:     ; @_ZN11TimeTable_t13isOverridableEh
Lfunc_begin4:
	.cfi_startproc
	.cfi_personality 155, ___gxx_personality_v0
	.cfi_lsda 16, Lexception4
; %bb.0:
	sub	sp, sp, #192
	stp	x29, x30, [sp, #176]            ; 16-byte Folded Spill
	add	x29, sp, #176
	.cfi_def_cfa w29, 16
	.cfi_offset w30, -8
	.cfi_offset w29, -16
	adrp	x8, ___stack_chk_guard@GOTPAGE
	ldr	x8, [x8, ___stack_chk_guard@GOTPAGEOFF]
	ldr	x8, [x8]
	stur	x8, [x29, #-8]
	str	x0, [sp, #56]
	strb	w1, [sp, #55]
	ldr	x0, [sp, #56]
	ldrb	w8, [sp, #55]
	mov	x1, x8
	bl	__ZNSt3__16vectorIP10Activity_tNS_9allocatorIS2_EEEixB8ne180100Em
	ldr	x0, [x0]
Ltmp60:
	add	x8, sp, #72
	bl	__ZN10Activity_t15getActivityInfoEv
Ltmp61:
	b	LBB67_1
LBB67_1:
	add	x0, sp, #72
	bl	__ZNSt3__117holds_alternativeB8ne180100I4FREEJ4WORK5SLEEPS1_EEEbRKNS_7variantIJDpT0_EEE
	tbz	w0, #0, LBB67_7
	b	LBB67_2
LBB67_2:
Ltmp63:
	add	x0, sp, #72
	bl	__ZNSt3__13getB8ne180100I4FREEJ4WORK5SLEEPS1_EEERT_RNS_7variantIJDpT0_EEE
	str	x0, [sp, #16]                   ; 8-byte Folded Spill
Ltmp64:
	b	LBB67_3
LBB67_3:
	ldr	x8, [sp, #16]                   ; 8-byte Folded Reload
	str	x8, [sp, #40]
	ldr	x0, [sp, #40]
	bl	__ZNSt3__117holds_alternativeB8ne180100I6None_tJ7Break_tS1_EEEbRKNS_7variantIJDpT0_EEE
	tbz	w0, #0, LBB67_6
	b	LBB67_4
LBB67_4:
	mov	w8, #1                          ; =0x1
	and	w9, w8, #0x1
	and	w9, w9, w8
	strb	w9, [sp, #71]
	str	w8, [sp, #24]
	b	LBB67_8
LBB67_5:
Ltmp65:
	str	x0, [sp, #32]
	mov	x8, x1
	str	w8, [sp, #28]
	add	x0, sp, #72
	bl	__ZNSt3__17variantIJ4WORK5SLEEP4FREEEED1B8ne180100Ev
	b	LBB67_11
LBB67_6:
	mov	w8, #1                          ; =0x1
	mov	w9, #0                          ; =0x0
	and	w9, w9, #0x1
	and	w9, w9, w8
	strb	w9, [sp, #71]
	str	w8, [sp, #24]
	b	LBB67_8
LBB67_7:
	mov	w8, #1                          ; =0x1
	mov	w9, #0                          ; =0x0
	and	w9, w9, #0x1
	and	w9, w9, w8
	strb	w9, [sp, #71]
	str	w8, [sp, #24]
	b	LBB67_8
LBB67_8:
	add	x0, sp, #72
	bl	__ZNSt3__17variantIJ4WORK5SLEEP4FREEEED1B8ne180100Ev
	ldrb	w8, [sp, #71]
	str	w8, [sp, #12]                   ; 4-byte Folded Spill
	ldur	x9, [x29, #-8]
	adrp	x8, ___stack_chk_guard@GOTPAGE
	ldr	x8, [x8, ___stack_chk_guard@GOTPAGEOFF]
	ldr	x8, [x8]
	subs	x8, x8, x9
	cset	w8, eq
	tbnz	w8, #0, LBB67_10
	b	LBB67_9
LBB67_9:
	bl	___stack_chk_fail
LBB67_10:
	ldr	w8, [sp, #12]                   ; 4-byte Folded Reload
	and	w0, w8, #0x1
	ldp	x29, x30, [sp, #176]            ; 16-byte Folded Reload
	add	sp, sp, #192
	ret
LBB67_11:
	ldr	x0, [sp, #32]
	str	x0, [sp]                        ; 8-byte Folded Spill
	b	LBB67_13
LBB67_12:
Ltmp62:
	str	x0, [sp]                        ; 8-byte Folded Spill
	b	LBB67_13
LBB67_13:
	ldr	x0, [sp]                        ; 8-byte Folded Reload
	bl	__Unwind_Resume
Lfunc_end4:
	.cfi_endproc
	.section	__TEXT,__gcc_except_tab
	.p2align	2, 0x0
GCC_except_table67:
Lexception4:
	.byte	255                             ; @LPStart Encoding = omit
	.byte	255                             ; @TType Encoding = omit
	.byte	1                               ; Call site Encoding = uleb128
	.uleb128 Lcst_end4-Lcst_begin4
Lcst_begin4:
	.uleb128 Ltmp60-Lfunc_begin4            ; >> Call Site 1 <<
	.uleb128 Ltmp61-Ltmp60                  ;   Call between Ltmp60 and Ltmp61
	.uleb128 Ltmp62-Lfunc_begin4            ;     jumps to Ltmp62
	.byte	0                               ;   On action: cleanup
	.uleb128 Ltmp63-Lfunc_begin4            ; >> Call Site 2 <<
	.uleb128 Ltmp64-Ltmp63                  ;   Call between Ltmp63 and Ltmp64
	.uleb128 Ltmp65-Lfunc_begin4            ;     jumps to Ltmp65
	.byte	0                               ;   On action: cleanup
	.uleb128 Ltmp64-Lfunc_begin4            ; >> Call Site 3 <<
	.uleb128 Lfunc_end4-Ltmp64              ;   Call between Ltmp64 and Lfunc_end4
	.byte	0                               ;     has no landing pad
	.byte	0                               ;   On action: cleanup
Lcst_end4:
	.p2align	2, 0x0
                                        ; -- End function
	.section	__TEXT,__text,regular,pure_instructions
	.private_extern	__ZNSt3__16vectorIP10Activity_tNS_9allocatorIS2_EEEixB8ne180100Em ; -- Begin function _ZNSt3__16vectorIP10Activity_tNS_9allocatorIS2_EEEixB8ne180100Em
	.globl	__ZNSt3__16vectorIP10Activity_tNS_9allocatorIS2_EEEixB8ne180100Em
	.weak_definition	__ZNSt3__16vectorIP10Activity_tNS_9allocatorIS2_EEEixB8ne180100Em
	.p2align	2
__ZNSt3__16vectorIP10Activity_tNS_9allocatorIS2_EEEixB8ne180100Em: ; @_ZNSt3__16vectorIP10Activity_tNS_9allocatorIS2_EEEixB8ne180100Em
	.cfi_startproc
; %bb.0:
	sub	sp, sp, #16
	.cfi_def_cfa_offset 16
	str	x0, [sp, #8]
	str	x1, [sp]
	ldr	x8, [sp, #8]
	ldr	x8, [x8]
	ldr	x9, [sp]
	add	x0, x8, x9, lsl #3
	add	sp, sp, #16
	ret
	.cfi_endproc
                                        ; -- End function
	.globl	__ZN11TimeTable_t7refreshEv     ; -- Begin function _ZN11TimeTable_t7refreshEv
	.p2align	2
__ZN11TimeTable_t7refreshEv:            ; @_ZN11TimeTable_t7refreshEv
	.cfi_startproc
; %bb.0:
	sub	sp, sp, #48
	stp	x29, x30, [sp, #32]             ; 16-byte Folded Spill
	add	x29, sp, #32
	.cfi_def_cfa w29, 16
	.cfi_offset w30, -8
	.cfi_offset w29, -16
	stur	x0, [x29, #-8]
	ldur	x8, [x29, #-8]
	str	x8, [sp, #8]                    ; 8-byte Folded Spill
	stur	wzr, [x29, #-12]
	b	LBB69_1
LBB69_1:                                ; =>This Inner Loop Header: Depth=1
	ldur	w8, [x29, #-12]
	subs	w8, w8, #96
	cset	w8, ge
	tbnz	w8, #0, LBB69_4
	b	LBB69_2
LBB69_2:                                ;   in Loop: Header=BB69_1 Depth=1
	ldr	x0, [sp, #8]                    ; 8-byte Folded Reload
	ldursw	x1, [x29, #-12]
	bl	__ZNSt3__16vectorIP10Activity_tNS_9allocatorIS2_EEEixB8ne180100Em
	ldr	x0, [x0]
	ldur	w8, [x29, #-12]
	and	w1, w8, #0xff
	bl	__ZN10Activity_t8setStartEh
	b	LBB69_3
LBB69_3:                                ;   in Loop: Header=BB69_1 Depth=1
	ldur	w8, [x29, #-12]
	add	w8, w8, #1
	stur	w8, [x29, #-12]
	b	LBB69_1
LBB69_4:
	ldr	x0, [sp, #8]                    ; 8-byte Folded Reload
	bl	__ZN11TimeTable_t5mergeEv
	ldp	x29, x30, [sp, #32]             ; 16-byte Folded Reload
	add	sp, sp, #48
	ret
	.cfi_endproc
                                        ; -- End function
	.globl	__ZN11TimeTable_t5mergeEv       ; -- Begin function _ZN11TimeTable_t5mergeEv
	.p2align	2
__ZN11TimeTable_t5mergeEv:              ; @_ZN11TimeTable_t5mergeEv
	.cfi_startproc
; %bb.0:
	sub	sp, sp, #64
	stp	x29, x30, [sp, #48]             ; 16-byte Folded Spill
	add	x29, sp, #48
	.cfi_def_cfa w29, 16
	.cfi_offset w30, -8
	.cfi_offset w29, -16
	stur	x0, [x29, #-8]
	ldur	x8, [x29, #-8]
	str	x8, [sp, #16]                   ; 8-byte Folded Spill
	stur	wzr, [x29, #-12]
	b	LBB70_1
LBB70_1:                                ; =>This Loop Header: Depth=1
                                        ;     Child Loop BB70_3 Depth 2
                                        ;     Child Loop BB70_10 Depth 2
	ldur	w8, [x29, #-12]
	subs	w8, w8, #96
	cset	w8, ge
	tbnz	w8, #0, LBB70_15
	b	LBB70_2
LBB70_2:                                ;   in Loop: Header=BB70_1 Depth=1
	ldur	w8, [x29, #-12]
	stur	w8, [x29, #-16]
	b	LBB70_3
LBB70_3:                                ;   Parent Loop BB70_1 Depth=1
                                        ; =>  This Inner Loop Header: Depth=2
	ldr	x0, [sp, #16]                   ; 8-byte Folded Reload
	ldursw	x1, [x29, #-16]
	bl	__ZNSt3__16vectorIP10Activity_tNS_9allocatorIS2_EEEixB8ne180100Em
	mov	x8, x0
	ldr	x0, [sp, #16]                   ; 8-byte Folded Reload
	ldr	x8, [x8]
	str	x8, [sp]                        ; 8-byte Folded Spill
	ldur	w8, [x29, #-16]
	add	w9, w8, #1
                                        ; implicit-def: $x8
	mov	x8, x9
	sxtw	x1, w8
	bl	__ZNSt3__16vectorIP10Activity_tNS_9allocatorIS2_EEEixB8ne180100Em
	ldr	x8, [sp]                        ; 8-byte Folded Reload
	ldr	x9, [x0]
	subs	x8, x8, x9
	cset	w8, ne
	mov	w9, #0                          ; =0x0
	str	w9, [sp, #12]                   ; 4-byte Folded Spill
	tbnz	w8, #0, LBB70_5
	b	LBB70_4
LBB70_4:                                ;   in Loop: Header=BB70_3 Depth=2
	ldur	w8, [x29, #-16]
	subs	w8, w8, #95
	cset	w8, lt
	str	w8, [sp, #12]                   ; 4-byte Folded Spill
	b	LBB70_5
LBB70_5:                                ;   in Loop: Header=BB70_3 Depth=2
	ldr	w8, [sp, #12]                   ; 4-byte Folded Reload
	tbz	w8, #0, LBB70_7
	b	LBB70_6
LBB70_6:                                ;   in Loop: Header=BB70_3 Depth=2
	ldur	w8, [x29, #-16]
	add	w8, w8, #1
	stur	w8, [x29, #-16]
	b	LBB70_3
LBB70_7:                                ;   in Loop: Header=BB70_1 Depth=1
	ldur	w8, [x29, #-16]
	subs	w8, w8, #0
	cset	w8, ne
	tbnz	w8, #0, LBB70_9
	b	LBB70_8
LBB70_8:                                ;   in Loop: Header=BB70_1 Depth=1
	b	LBB70_14
LBB70_9:                                ;   in Loop: Header=BB70_1 Depth=1
	ldur	w8, [x29, #-12]
	stur	w8, [x29, #-20]
	b	LBB70_10
LBB70_10:                               ;   Parent Loop BB70_1 Depth=1
                                        ; =>  This Inner Loop Header: Depth=2
	ldur	w8, [x29, #-12]
	ldur	w9, [x29, #-16]
	subs	w8, w8, w9
	cset	w8, gt
	tbnz	w8, #0, LBB70_13
	b	LBB70_11
LBB70_11:                               ;   in Loop: Header=BB70_10 Depth=2
	ldr	x0, [sp, #16]                   ; 8-byte Folded Reload
	ldursw	x1, [x29, #-20]
	bl	__ZNSt3__16vectorIP10Activity_tNS_9allocatorIS2_EEEixB8ne180100Em
	ldr	x0, [x0]
	ldur	w8, [x29, #-12]
	and	w1, w8, #0xff
	bl	__ZN10Activity_t8setStartEh
	ldr	x0, [sp, #16]                   ; 8-byte Folded Reload
	ldursw	x1, [x29, #-20]
	bl	__ZNSt3__16vectorIP10Activity_tNS_9allocatorIS2_EEEixB8ne180100Em
	ldr	x0, [x0]
	ldur	w8, [x29, #-16]
	and	w1, w8, #0xff
	bl	__ZN10Activity_t6setEndEh
	b	LBB70_12
LBB70_12:                               ;   in Loop: Header=BB70_10 Depth=2
	ldur	w8, [x29, #-20]
	add	w8, w8, #1
	stur	w8, [x29, #-20]
	b	LBB70_10
LBB70_13:                               ;   in Loop: Header=BB70_1 Depth=1
	b	LBB70_14
LBB70_14:                               ;   in Loop: Header=BB70_1 Depth=1
	ldur	w8, [x29, #-12]
	add	w8, w8, #1
	stur	w8, [x29, #-12]
	b	LBB70_1
LBB70_15:
	ldp	x29, x30, [sp, #48]             ; 16-byte Folded Reload
	add	sp, sp, #64
	ret
	.cfi_endproc
                                        ; -- End function
	.globl	__ZN11TimeTable_t5debugEv       ; -- Begin function _ZN11TimeTable_t5debugEv
	.p2align	2
__ZN11TimeTable_t5debugEv:              ; @_ZN11TimeTable_t5debugEv
	.cfi_startproc
; %bb.0:
	sub	sp, sp, #96
	stp	x29, x30, [sp, #80]             ; 16-byte Folded Spill
	add	x29, sp, #80
	.cfi_def_cfa w29, 16
	.cfi_offset w30, -8
	.cfi_offset w29, -16
	stur	x0, [x29, #-8]
	ldur	x0, [x29, #-8]
	str	x0, [sp, #24]                   ; 8-byte Folded Spill
	sturb	wzr, [x29, #-9]
	mov	x1, #0                          ; =0x0
	bl	__ZNSt3__16vectorIP10Activity_tNS_9allocatorIS2_EEEixB8ne180100Em
	ldr	x8, [x0]
	stur	x8, [x29, #-24]
	mov	w8, #1                          ; =0x1
	sturb	w8, [x29, #-25]
	b	LBB71_1
LBB71_1:                                ; =>This Inner Loop Header: Depth=1
	ldr	x0, [sp, #24]                   ; 8-byte Folded Reload
	ldurb	w8, [x29, #-25]
                                        ; kill: def $x8 killed $w8
	str	x8, [sp, #16]                   ; 8-byte Folded Spill
	bl	__ZNKSt3__16vectorIP10Activity_tNS_9allocatorIS2_EEE4sizeB8ne180100Ev
	ldr	x8, [sp, #16]                   ; 8-byte Folded Reload
	subs	x8, x8, x0
	cset	w8, hs
	tbnz	w8, #0, LBB71_6
	b	LBB71_2
LBB71_2:                                ;   in Loop: Header=BB71_1 Depth=1
	ldr	x0, [sp, #24]                   ; 8-byte Folded Reload
	ldurb	w8, [x29, #-25]
	mov	x1, x8
	bl	__ZNSt3__16vectorIP10Activity_tNS_9allocatorIS2_EEEixB8ne180100Em
	ldr	x8, [x0]
	ldur	x9, [x29, #-24]
	subs	x8, x8, x9
	cset	w8, eq
	tbnz	w8, #0, LBB71_4
	b	LBB71_3
LBB71_3:                                ;   in Loop: Header=BB71_1 Depth=1
	ldurb	w0, [x29, #-9]
	bl	__ZN4Time9IdxToTimeEh
	str	x0, [sp, #40]
	ldurb	w8, [x29, #-25]
	subs	w8, w8, #1
	and	w0, w8, #0xff
	bl	__ZN4Time9IdxToTimeEh
	str	x0, [sp, #32]
	ldurb	w11, [x29, #-9]
	ldurb	w8, [x29, #-25]
	subs	w10, w8, #1
	mov	x9, sp
                                        ; implicit-def: $x8
	mov	x8, x11
	str	x8, [x9]
                                        ; implicit-def: $x8
	mov	x8, x10
	str	x8, [x9, #8]
	adrp	x0, l_.str.14@PAGE
	add	x0, x0, l_.str.14@PAGEOFF
	bl	_printf
	ldurb	w0, [x29, #-9]
	bl	__ZN4Time9IdxToTimeEh
	mov	x8, sp
	str	x0, [x8]
	adrp	x0, l_.str.15@PAGE
	add	x0, x0, l_.str.15@PAGEOFF
	bl	_printf
	ldurb	w8, [x29, #-25]
	subs	w8, w8, #1
	and	w0, w8, #0xff
	bl	__ZN4Time9IdxToTimeEh
	mov	x8, sp
	str	x0, [x8]
	adrp	x0, l_.str.16@PAGE
	add	x0, x0, l_.str.16@PAGEOFF
	bl	_printf
	ldur	x0, [x29, #-24]
	bl	__ZNK10Activity_t9printInfoEv
	ldr	x0, [sp, #24]                   ; 8-byte Folded Reload
	ldurb	w8, [x29, #-25]
	mov	x1, x8
	bl	__ZNSt3__16vectorIP10Activity_tNS_9allocatorIS2_EEEixB8ne180100Em
	ldr	x8, [x0]
	stur	x8, [x29, #-24]
	ldurb	w8, [x29, #-25]
	sturb	w8, [x29, #-9]
	b	LBB71_4
LBB71_4:                                ;   in Loop: Header=BB71_1 Depth=1
	b	LBB71_5
LBB71_5:                                ;   in Loop: Header=BB71_1 Depth=1
	ldurb	w8, [x29, #-25]
	add	w8, w8, #1
	sturb	w8, [x29, #-25]
	b	LBB71_1
LBB71_6:
	ldurb	w0, [x29, #-9]
	bl	__ZN4Time9IdxToTimeEh
	mov	x8, sp
	str	x0, [x8]
	adrp	x0, l_.str.15@PAGE
	add	x0, x0, l_.str.15@PAGEOFF
	bl	_printf
	mov	w0, #95                         ; =0x5f
	bl	__ZN4Time9IdxToTimeEh
	mov	x8, sp
	str	x0, [x8]
	adrp	x0, l_.str.16@PAGE
	add	x0, x0, l_.str.16@PAGEOFF
	bl	_printf
	ldur	x0, [x29, #-24]
	bl	__ZNK10Activity_t9printInfoEv
	ldp	x29, x30, [sp, #80]             ; 16-byte Folded Reload
	add	sp, sp, #96
	ret
	.cfi_endproc
                                        ; -- End function
	.private_extern	__ZNKSt3__16vectorIP10Activity_tNS_9allocatorIS2_EEE4sizeB8ne180100Ev ; -- Begin function _ZNKSt3__16vectorIP10Activity_tNS_9allocatorIS2_EEE4sizeB8ne180100Ev
	.globl	__ZNKSt3__16vectorIP10Activity_tNS_9allocatorIS2_EEE4sizeB8ne180100Ev
	.weak_definition	__ZNKSt3__16vectorIP10Activity_tNS_9allocatorIS2_EEE4sizeB8ne180100Ev
	.p2align	2
__ZNKSt3__16vectorIP10Activity_tNS_9allocatorIS2_EEE4sizeB8ne180100Ev: ; @_ZNKSt3__16vectorIP10Activity_tNS_9allocatorIS2_EEE4sizeB8ne180100Ev
	.cfi_startproc
; %bb.0:
	sub	sp, sp, #16
	.cfi_def_cfa_offset 16
	str	x0, [sp, #8]
	ldr	x9, [sp, #8]
	ldr	x8, [x9, #8]
	ldr	x9, [x9]
	subs	x8, x8, x9
	mov	x9, #8                          ; =0x8
	sdiv	x0, x8, x9
	add	sp, sp, #16
	ret
	.cfi_endproc
                                        ; -- End function
	.private_extern	__ZNSt3__17variantIJ4WORK5SLEEP4FREEEED1B8ne180100Ev ; -- Begin function _ZNSt3__17variantIJ4WORK5SLEEP4FREEEED1B8ne180100Ev
	.globl	__ZNSt3__17variantIJ4WORK5SLEEP4FREEEED1B8ne180100Ev
	.weak_def_can_be_hidden	__ZNSt3__17variantIJ4WORK5SLEEP4FREEEED1B8ne180100Ev
	.p2align	2
__ZNSt3__17variantIJ4WORK5SLEEP4FREEEED1B8ne180100Ev: ; @_ZNSt3__17variantIJ4WORK5SLEEP4FREEEED1B8ne180100Ev
	.cfi_startproc
; %bb.0:
	sub	sp, sp, #32
	stp	x29, x30, [sp, #16]             ; 16-byte Folded Spill
	add	x29, sp, #16
	.cfi_def_cfa w29, 16
	.cfi_offset w30, -8
	.cfi_offset w29, -16
	str	x0, [sp, #8]
	ldr	x0, [sp, #8]
	str	x0, [sp]                        ; 8-byte Folded Spill
	bl	__ZNSt3__17variantIJ4WORK5SLEEP4FREEEED2B8ne180100Ev
	ldr	x0, [sp]                        ; 8-byte Folded Reload
	ldp	x29, x30, [sp, #16]             ; 16-byte Folded Reload
	add	sp, sp, #32
	ret
	.cfi_endproc
                                        ; -- End function
	.globl	__ZN11TimeTable_t6isFreeEh      ; -- Begin function _ZN11TimeTable_t6isFreeEh
	.p2align	2
__ZN11TimeTable_t6isFreeEh:             ; @_ZN11TimeTable_t6isFreeEh
	.cfi_startproc
; %bb.0:
	sub	sp, sp, #176
	stp	x29, x30, [sp, #160]            ; 16-byte Folded Spill
	add	x29, sp, #160
	.cfi_def_cfa w29, 16
	.cfi_offset w30, -8
	.cfi_offset w29, -16
	adrp	x8, ___stack_chk_guard@GOTPAGE
	ldr	x8, [x8, ___stack_chk_guard@GOTPAGEOFF]
	ldr	x8, [x8]
	stur	x8, [x29, #-8]
	str	x0, [sp, #40]
	strb	w1, [sp, #39]
	ldr	x0, [sp, #40]
	ldrb	w8, [sp, #39]
	mov	x1, x8
	bl	__ZNSt3__16vectorIP10Activity_tNS_9allocatorIS2_EEEixB8ne180100Em
	ldr	x8, [x0]
	str	x8, [sp, #24]
	ldr	x0, [sp, #24]
	add	x8, sp, #56
	str	x8, [sp, #8]                    ; 8-byte Folded Spill
	bl	__ZN10Activity_t15getActivityInfoEv
	ldr	x0, [sp, #8]                    ; 8-byte Folded Reload
	bl	__ZNSt3__117holds_alternativeB8ne180100I4FREEJ4WORK5SLEEPS1_EEEbRKNS_7variantIJDpT0_EEE
	mov	x8, x0
	ldr	x0, [sp, #8]                    ; 8-byte Folded Reload
	str	w8, [sp, #20]                   ; 4-byte Folded Spill
	bl	__ZNSt3__17variantIJ4WORK5SLEEP4FREEEED1B8ne180100Ev
	ldr	w0, [sp, #20]                   ; 4-byte Folded Reload
	tbz	w0, #0, LBB74_2
	b	LBB74_1
LBB74_1:
	mov	w8, #1                          ; =0x1
	and	w8, w8, #0x1
	and	w8, w8, #0x1
	strb	w8, [sp, #55]
	b	LBB74_3
LBB74_2:
	mov	w8, #0                          ; =0x0
	and	w8, w8, #0x1
	and	w8, w8, #0x1
	strb	w8, [sp, #55]
	b	LBB74_3
LBB74_3:
	ldrb	w8, [sp, #55]
	str	w8, [sp, #4]                    ; 4-byte Folded Spill
	ldur	x9, [x29, #-8]
	adrp	x8, ___stack_chk_guard@GOTPAGE
	ldr	x8, [x8, ___stack_chk_guard@GOTPAGEOFF]
	ldr	x8, [x8]
	subs	x8, x8, x9
	cset	w8, eq
	tbnz	w8, #0, LBB74_5
	b	LBB74_4
LBB74_4:
	bl	___stack_chk_fail
LBB74_5:
	ldr	w8, [sp, #4]                    ; 4-byte Folded Reload
	and	w0, w8, #0x1
	ldp	x29, x30, [sp, #160]            ; 16-byte Folded Reload
	add	sp, sp, #176
	ret
	.cfi_endproc
                                        ; -- End function
	.globl	__ZN11TimeTable_tD2Ev           ; -- Begin function _ZN11TimeTable_tD2Ev
	.p2align	2
__ZN11TimeTable_tD2Ev:                  ; @_ZN11TimeTable_tD2Ev
Lfunc_begin5:
	.cfi_startproc
	.cfi_personality 155, ___gxx_personality_v0
	.cfi_lsda 16, Lexception5
; %bb.0:
	sub	sp, sp, #64
	stp	x29, x30, [sp, #48]             ; 16-byte Folded Spill
	add	x29, sp, #48
	.cfi_def_cfa w29, 16
	.cfi_offset w30, -8
	.cfi_offset w29, -16
	stur	x0, [x29, #-16]
	ldur	x8, [x29, #-16]
	str	x8, [sp, #8]                    ; 8-byte Folded Spill
	stur	x8, [x29, #-8]
	stur	wzr, [x29, #-20]
	b	LBB75_1
LBB75_1:                                ; =>This Inner Loop Header: Depth=1
	ldr	x0, [sp, #8]                    ; 8-byte Folded Reload
	ldursw	x8, [x29, #-20]
	str	x8, [sp]                        ; 8-byte Folded Spill
	bl	__ZNKSt3__16vectorIP10Activity_tNS_9allocatorIS2_EEE4sizeB8ne180100Ev
	ldr	x8, [sp]                        ; 8-byte Folded Reload
	subs	x8, x8, x0
	cset	w8, hs
	tbnz	w8, #0, LBB75_7
	b	LBB75_2
LBB75_2:                                ;   in Loop: Header=BB75_1 Depth=1
	ldr	x0, [sp, #8]                    ; 8-byte Folded Reload
	ldursw	x1, [x29, #-20]
	bl	__ZNSt3__16vectorIP10Activity_tNS_9allocatorIS2_EEEixB8ne180100Em
	ldr	x8, [x0]
	str	x8, [sp, #16]
	ldr	x8, [sp, #16]
	subs	x8, x8, #0
	cset	w8, ne
	tbnz	w8, #0, LBB75_4
	b	LBB75_3
LBB75_3:                                ;   in Loop: Header=BB75_1 Depth=1
	b	LBB75_6
LBB75_4:                                ;   in Loop: Header=BB75_1 Depth=1
	ldr	x0, [sp, #16]
Ltmp68:
	bl	_free
Ltmp69:
	b	LBB75_5
LBB75_5:                                ;   in Loop: Header=BB75_1 Depth=1
	b	LBB75_6
LBB75_6:                                ;   in Loop: Header=BB75_1 Depth=1
	ldur	w8, [x29, #-20]
	add	w8, w8, #1
	stur	w8, [x29, #-20]
	b	LBB75_1
LBB75_7:
	ldr	x0, [sp, #8]                    ; 8-byte Folded Reload
	bl	__ZNSt3__16vectorIP10Activity_tNS_9allocatorIS2_EEED1B8ne180100Ev
	ldur	x0, [x29, #-8]
	ldp	x29, x30, [sp, #48]             ; 16-byte Folded Reload
	add	sp, sp, #64
	ret
LBB75_8:
Ltmp70:
	bl	___clang_call_terminate
Lfunc_end5:
	.cfi_endproc
	.section	__TEXT,__gcc_except_tab
	.p2align	2, 0x0
GCC_except_table75:
Lexception5:
	.byte	255                             ; @LPStart Encoding = omit
	.byte	155                             ; @TType Encoding = indirect pcrel sdata4
	.uleb128 Lttbase3-Lttbaseref3
Lttbaseref3:
	.byte	1                               ; Call site Encoding = uleb128
	.uleb128 Lcst_end5-Lcst_begin5
Lcst_begin5:
	.uleb128 Ltmp68-Lfunc_begin5            ; >> Call Site 1 <<
	.uleb128 Ltmp69-Ltmp68                  ;   Call between Ltmp68 and Ltmp69
	.uleb128 Ltmp70-Lfunc_begin5            ;     jumps to Ltmp70
	.byte	1                               ;   On action: 1
Lcst_end5:
	.byte	1                               ; >> Action Record 1 <<
                                        ;   Catch TypeInfo 1
	.byte	0                               ;   No further actions
	.p2align	2, 0x0
                                        ; >> Catch TypeInfos <<
	.long	0                               ; TypeInfo 1
Lttbase3:
	.p2align	2, 0x0
                                        ; -- End function
	.section	__TEXT,__text,regular,pure_instructions
	.globl	__ZN11TimeTable_tD1Ev           ; -- Begin function _ZN11TimeTable_tD1Ev
	.p2align	2
__ZN11TimeTable_tD1Ev:                  ; @_ZN11TimeTable_tD1Ev
	.cfi_startproc
; %bb.0:
	sub	sp, sp, #32
	stp	x29, x30, [sp, #16]             ; 16-byte Folded Spill
	add	x29, sp, #16
	.cfi_def_cfa w29, 16
	.cfi_offset w30, -8
	.cfi_offset w29, -16
	str	x0, [sp, #8]
	ldr	x0, [sp, #8]
	str	x0, [sp]                        ; 8-byte Folded Spill
	bl	__ZN11TimeTable_tD2Ev
	ldr	x0, [sp]                        ; 8-byte Folded Reload
	ldp	x29, x30, [sp, #16]             ; 16-byte Folded Reload
	add	sp, sp, #32
	ret
	.cfi_endproc
                                        ; -- End function
	.globl	__ZN11TimeTable_t20findLongestFreeBlockEh ; -- Begin function _ZN11TimeTable_t20findLongestFreeBlockEh
	.p2align	2
__ZN11TimeTable_t20findLongestFreeBlockEh: ; @_ZN11TimeTable_t20findLongestFreeBlockEh
	.cfi_startproc
; %bb.0:
	sub	sp, sp, #48
	stp	x29, x30, [sp, #32]             ; 16-byte Folded Spill
	add	x29, sp, #32
	.cfi_def_cfa w29, 16
	.cfi_offset w30, -8
	.cfi_offset w29, -16
	stur	x0, [x29, #-8]
	sturb	w1, [x29, #-9]
	ldur	x8, [x29, #-8]
	str	x8, [sp, #8]                    ; 8-byte Folded Spill
	mov	w8, #255                        ; =0xff
	sturb	w8, [x29, #-10]
	sturb	wzr, [x29, #-11]
	sturb	wzr, [x29, #-12]
	b	LBB77_1
LBB77_1:                                ; =>This Loop Header: Depth=1
                                        ;     Child Loop BB77_5 Depth 2
	ldurb	w8, [x29, #-12]
	subs	w8, w8, #96
	cset	w8, ge
	tbnz	w8, #0, LBB77_15
	b	LBB77_2
LBB77_2:                                ;   in Loop: Header=BB77_1 Depth=1
	ldr	x0, [sp, #8]                    ; 8-byte Folded Reload
	ldurb	w1, [x29, #-12]
	bl	__ZN11TimeTable_t6isFreeEh
	tbnz	w0, #0, LBB77_4
	b	LBB77_3
LBB77_3:                                ;   in Loop: Header=BB77_1 Depth=1
	b	LBB77_14
LBB77_4:                                ;   in Loop: Header=BB77_1 Depth=1
	ldurb	w8, [x29, #-12]
	sturb	w8, [x29, #-13]
	sturb	wzr, [x29, #-14]
	b	LBB77_5
LBB77_5:                                ;   Parent Loop BB77_1 Depth=1
                                        ; =>  This Inner Loop Header: Depth=2
	ldr	x0, [sp, #8]                    ; 8-byte Folded Reload
	ldurb	w1, [x29, #-13]
	bl	__ZN11TimeTable_t6isFreeEh
	mov	w8, #0                          ; =0x0
	str	w8, [sp, #4]                    ; 4-byte Folded Spill
	tbz	w0, #0, LBB77_7
	b	LBB77_6
LBB77_6:                                ;   in Loop: Header=BB77_5 Depth=2
	ldurb	w8, [x29, #-13]
	subs	w8, w8, #96
	cset	w8, lt
	str	w8, [sp, #4]                    ; 4-byte Folded Spill
	b	LBB77_7
LBB77_7:                                ;   in Loop: Header=BB77_5 Depth=2
	ldr	w8, [sp, #4]                    ; 4-byte Folded Reload
	tbz	w8, #0, LBB77_9
	b	LBB77_8
LBB77_8:                                ;   in Loop: Header=BB77_5 Depth=2
	ldurb	w8, [x29, #-14]
	add	w8, w8, #1
	sturb	w8, [x29, #-14]
	ldurb	w8, [x29, #-13]
	add	w8, w8, #1
	sturb	w8, [x29, #-13]
	b	LBB77_5
LBB77_9:                                ;   in Loop: Header=BB77_1 Depth=1
	ldurb	w8, [x29, #-14]
	ldurb	w9, [x29, #-9]
	subs	w8, w8, w9
	cset	w8, ge
	tbnz	w8, #0, LBB77_11
	b	LBB77_10
LBB77_10:                               ;   in Loop: Header=BB77_1 Depth=1
	b	LBB77_14
LBB77_11:                               ;   in Loop: Header=BB77_1 Depth=1
	ldurb	w8, [x29, #-11]
	ldurb	w9, [x29, #-14]
	subs	w8, w8, w9
	cset	w8, ge
	tbnz	w8, #0, LBB77_13
	b	LBB77_12
LBB77_12:                               ;   in Loop: Header=BB77_1 Depth=1
	ldurb	w8, [x29, #-12]
	sturb	w8, [x29, #-10]
	ldurb	w8, [x29, #-14]
	sturb	w8, [x29, #-11]
	b	LBB77_13
LBB77_13:                               ;   in Loop: Header=BB77_1 Depth=1
	b	LBB77_14
LBB77_14:                               ;   in Loop: Header=BB77_1 Depth=1
	ldurb	w8, [x29, #-12]
	add	w8, w8, #1
	sturb	w8, [x29, #-12]
	b	LBB77_1
LBB77_15:
	ldurb	w0, [x29, #-10]
	ldp	x29, x30, [sp, #32]             ; 16-byte Folded Reload
	add	sp, sp, #48
	ret
	.cfi_endproc
                                        ; -- End function
	.globl	__ZN11TimeTable_t8devDebugEv    ; -- Begin function _ZN11TimeTable_t8devDebugEv
	.p2align	2
__ZN11TimeTable_t8devDebugEv:           ; @_ZN11TimeTable_t8devDebugEv
Lfunc_begin6:
	.cfi_startproc
	.cfi_personality 155, ___gxx_personality_v0
	.cfi_lsda 16, Lexception6
; %bb.0:
	stp	x28, x27, [sp, #-32]!           ; 16-byte Folded Spill
	stp	x29, x30, [sp, #16]             ; 16-byte Folded Spill
	add	x29, sp, #16
	sub	sp, sp, #672
	.cfi_def_cfa w29, 16
	.cfi_offset w30, -8
	.cfi_offset w29, -16
	.cfi_offset w27, -24
	.cfi_offset w28, -32
	adrp	x8, ___stack_chk_guard@GOTPAGE
	ldr	x8, [x8, ___stack_chk_guard@GOTPAGEOFF]
	ldr	x8, [x8]
	stur	x8, [x29, #-24]
	str	x0, [sp, #88]
	ldr	x8, [sp, #88]
	str	x8, [sp, #48]                   ; 8-byte Folded Spill
Ltmp71:
	add	x0, sp, #96
	adrp	x1, l_.str.17@PAGE
	add	x1, x1, l_.str.17@PAGEOFF
	mov	w2, #16                         ; =0x10
	bl	__ZNSt3__114basic_ofstreamIcNS_11char_traitsIcEEEC1EPKcj
Ltmp72:
	b	LBB78_1
LBB78_1:
	add	x8, sp, #96
	ldr	x9, [sp, #96]
	ldur	x9, [x9, #-24]
	add	x0, x8, x9
Ltmp74:
	bl	__ZNKSt3__19basic_iosIcNS_11char_traitsIcEEEntB8ne180100Ev
	str	w0, [sp, #44]                   ; 4-byte Folded Spill
Ltmp75:
	b	LBB78_2
LBB78_2:
	ldr	w8, [sp, #44]                   ; 4-byte Folded Reload
	tbz	w8, #0, LBB78_6
	b	LBB78_3
LBB78_3:
	adrp	x8, ___stderrp@GOTPAGE
	ldr	x8, [x8, ___stderrp@GOTPAGEOFF]
	ldr	x0, [x8]
Ltmp76:
	adrp	x1, l_.str.18@PAGE
	add	x1, x1, l_.str.18@PAGEOFF
	bl	_fprintf
Ltmp77:
	b	LBB78_4
LBB78_4:
	b	LBB78_6
LBB78_5:
Ltmp88:
	str	x0, [sp, #80]
	mov	x8, x1
	str	w8, [sp, #76]
	add	x0, sp, #96
	bl	__ZNSt3__114basic_ofstreamIcNS_11char_traitsIcEEED1Ev
	b	LBB78_18
LBB78_6:
	adrp	x8, __ZNSt3__14coutE@GOTPAGE
	ldr	x8, [x8, __ZNSt3__14coutE@GOTPAGEOFF]
	ldr	x9, [x8]
	ldur	x9, [x9, #-24]
	add	x0, x8, x9
Ltmp78:
	bl	__ZNKSt3__19basic_iosIcNS_11char_traitsIcEEE5rdbufB8ne180100Ev
	str	x0, [sp, #32]                   ; 8-byte Folded Spill
Ltmp79:
	b	LBB78_7
LBB78_7:
	ldr	x8, [sp, #32]                   ; 8-byte Folded Reload
	str	x8, [sp, #64]
	adrp	x8, __ZNSt3__14coutE@GOTPAGE
	ldr	x8, [x8, __ZNSt3__14coutE@GOTPAGEOFF]
	ldr	x9, [x8]
	ldur	x9, [x9, #-24]
	add	x8, x8, x9
	str	x8, [sp, #16]                   ; 8-byte Folded Spill
Ltmp80:
	add	x0, sp, #96
	bl	__ZNKSt3__114basic_ofstreamIcNS_11char_traitsIcEEE5rdbufEv
	str	x0, [sp, #24]                   ; 8-byte Folded Spill
Ltmp81:
	b	LBB78_8
LBB78_8:
Ltmp82:
	ldr	x1, [sp, #24]                   ; 8-byte Folded Reload
	ldr	x0, [sp, #16]                   ; 8-byte Folded Reload
	bl	__ZNSt3__19basic_iosIcNS_11char_traitsIcEEE5rdbufB8ne180100EPNS_15basic_streambufIcS2_EE
Ltmp83:
	b	LBB78_9
LBB78_9:
Ltmp84:
	ldr	x0, [sp, #48]                   ; 8-byte Folded Reload
	bl	__ZN11TimeTable_t7refreshEv
Ltmp85:
	b	LBB78_10
LBB78_10:
	strb	wzr, [sp, #63]
	b	LBB78_11
LBB78_11:                               ; =>This Inner Loop Header: Depth=1
	ldrb	w8, [sp, #63]
	subs	w8, w8, #96
	cset	w8, ge
	tbnz	w8, #0, LBB78_15
	b	LBB78_12
LBB78_12:                               ;   in Loop: Header=BB78_11 Depth=1
	ldr	x0, [sp, #48]                   ; 8-byte Folded Reload
	ldrb	w8, [sp, #63]
	mov	x1, x8
	bl	__ZNSt3__16vectorIP10Activity_tNS_9allocatorIS2_EEEixB8ne180100Em
	ldr	x0, [x0]
Ltmp86:
	bl	__ZN10Activity_t13debugActivityEv
Ltmp87:
	b	LBB78_13
LBB78_13:                               ;   in Loop: Header=BB78_11 Depth=1
	b	LBB78_14
LBB78_14:                               ;   in Loop: Header=BB78_11 Depth=1
	ldrb	w8, [sp, #63]
	add	w8, w8, #1
	strb	w8, [sp, #63]
	b	LBB78_11
LBB78_15:
	add	x0, sp, #96
	bl	__ZNSt3__114basic_ofstreamIcNS_11char_traitsIcEEED1Ev
	ldur	x9, [x29, #-24]
	adrp	x8, ___stack_chk_guard@GOTPAGE
	ldr	x8, [x8, ___stack_chk_guard@GOTPAGEOFF]
	ldr	x8, [x8]
	subs	x8, x8, x9
	cset	w8, eq
	tbnz	w8, #0, LBB78_17
	b	LBB78_16
LBB78_16:
	bl	___stack_chk_fail
LBB78_17:
	add	sp, sp, #672
	ldp	x29, x30, [sp, #16]             ; 16-byte Folded Reload
	ldp	x28, x27, [sp], #32             ; 16-byte Folded Reload
	ret
LBB78_18:
	ldr	x0, [sp, #80]
	str	x0, [sp, #8]                    ; 8-byte Folded Spill
	b	LBB78_20
LBB78_19:
Ltmp73:
	str	x0, [sp, #8]                    ; 8-byte Folded Spill
	b	LBB78_20
LBB78_20:
	ldr	x0, [sp, #8]                    ; 8-byte Folded Reload
	bl	__Unwind_Resume
Lfunc_end6:
	.cfi_endproc
	.section	__TEXT,__gcc_except_tab
	.p2align	2, 0x0
GCC_except_table78:
Lexception6:
	.byte	255                             ; @LPStart Encoding = omit
	.byte	255                             ; @TType Encoding = omit
	.byte	1                               ; Call site Encoding = uleb128
	.uleb128 Lcst_end6-Lcst_begin6
Lcst_begin6:
	.uleb128 Ltmp71-Lfunc_begin6            ; >> Call Site 1 <<
	.uleb128 Ltmp72-Ltmp71                  ;   Call between Ltmp71 and Ltmp72
	.uleb128 Ltmp73-Lfunc_begin6            ;     jumps to Ltmp73
	.byte	0                               ;   On action: cleanup
	.uleb128 Ltmp74-Lfunc_begin6            ; >> Call Site 2 <<
	.uleb128 Ltmp87-Ltmp74                  ;   Call between Ltmp74 and Ltmp87
	.uleb128 Ltmp88-Lfunc_begin6            ;     jumps to Ltmp88
	.byte	0                               ;   On action: cleanup
	.uleb128 Ltmp87-Lfunc_begin6            ; >> Call Site 3 <<
	.uleb128 Lfunc_end6-Ltmp87              ;   Call between Ltmp87 and Lfunc_end6
	.byte	0                               ;     has no landing pad
	.byte	0                               ;   On action: cleanup
Lcst_end6:
	.p2align	2, 0x0
                                        ; -- End function
	.section	__TEXT,__text,regular,pure_instructions
	.private_extern	__ZNSt3__114basic_ofstreamIcNS_11char_traitsIcEEEC1EPKcj ; -- Begin function _ZNSt3__114basic_ofstreamIcNS_11char_traitsIcEEEC1EPKcj
	.globl	__ZNSt3__114basic_ofstreamIcNS_11char_traitsIcEEEC1EPKcj
	.weak_def_can_be_hidden	__ZNSt3__114basic_ofstreamIcNS_11char_traitsIcEEEC1EPKcj
	.p2align	2
__ZNSt3__114basic_ofstreamIcNS_11char_traitsIcEEEC1EPKcj: ; @_ZNSt3__114basic_ofstreamIcNS_11char_traitsIcEEEC1EPKcj
Lfunc_begin7:
	.cfi_startproc
	.cfi_personality 155, ___gxx_personality_v0
	.cfi_lsda 16, Lexception7
; %bb.0:
	sub	sp, sp, #96
	stp	x29, x30, [sp, #80]             ; 16-byte Folded Spill
	add	x29, sp, #80
	.cfi_def_cfa w29, 16
	.cfi_offset w30, -8
	.cfi_offset w29, -16
	stur	x0, [x29, #-16]
	stur	x1, [x29, #-24]
	stur	w2, [x29, #-28]
	ldur	x8, [x29, #-16]
	str	x8, [sp, #24]                   ; 8-byte Folded Spill
	mov	x9, x8
	stur	x9, [x29, #-8]
	add	x0, x8, #416
	bl	__ZNSt3__19basic_iosIcNS_11char_traitsIcEEEC2B8ne180100Ev
	ldr	x8, [sp, #24]                   ; 8-byte Folded Reload
	adrp	x9, __ZTVNSt3__114basic_ofstreamIcNS_11char_traitsIcEEEE@GOTPAGE
	ldr	x9, [x9, __ZTVNSt3__114basic_ofstreamIcNS_11char_traitsIcEEEE@GOTPAGEOFF]
	add	x10, x9, #24
	str	x10, [x8]
	add	x9, x9, #64
	str	x9, [x8, #416]
Ltmp89:
	mov	x0, x8
	adrp	x9, __ZTTNSt3__114basic_ofstreamIcNS_11char_traitsIcEEEE@GOTPAGE
	ldr	x9, [x9, __ZTTNSt3__114basic_ofstreamIcNS_11char_traitsIcEEEE@GOTPAGEOFF]
	add	x1, x9, #8
	add	x2, x8, #8
	bl	__ZNSt3__113basic_ostreamIcNS_11char_traitsIcEEEC2B8ne180100EPNS_15basic_streambufIcS2_EE
Ltmp90:
	b	LBB79_1
LBB79_1:
	ldr	x8, [sp, #24]                   ; 8-byte Folded Reload
	adrp	x9, __ZTVNSt3__114basic_ofstreamIcNS_11char_traitsIcEEEE@GOTPAGE
	ldr	x9, [x9, __ZTVNSt3__114basic_ofstreamIcNS_11char_traitsIcEEEE@GOTPAGEOFF]
	add	x10, x9, #24
	str	x10, [x8]
	add	x9, x9, #64
	str	x9, [x8, #416]
	add	x0, x8, #8
	str	x0, [sp, #16]                   ; 8-byte Folded Spill
Ltmp92:
	bl	__ZNSt3__113basic_filebufIcNS_11char_traitsIcEEEC1Ev
Ltmp93:
	b	LBB79_2
LBB79_2:
	ldr	x8, [sp, #24]                   ; 8-byte Folded Reload
	add	x0, x8, #8
	ldur	x1, [x29, #-24]
	ldur	w8, [x29, #-28]
	orr	w2, w8, #0x10
Ltmp95:
	bl	__ZNSt3__113basic_filebufIcNS_11char_traitsIcEEE4openEPKcj
	str	x0, [sp, #8]                    ; 8-byte Folded Spill
Ltmp96:
	b	LBB79_3
LBB79_3:
	ldr	x8, [sp, #8]                    ; 8-byte Folded Reload
	subs	x8, x8, #0
	cset	w8, ne
	tbnz	w8, #0, LBB79_9
	b	LBB79_4
LBB79_4:
	ldr	x8, [sp, #24]                   ; 8-byte Folded Reload
	ldr	x9, [x8]
	ldur	x9, [x9, #-24]
	add	x0, x8, x9
Ltmp97:
	mov	w1, #4                          ; =0x4
	bl	__ZNSt3__19basic_iosIcNS_11char_traitsIcEEE8setstateB8ne180100Ej
Ltmp98:
	b	LBB79_5
LBB79_5:
	b	LBB79_9
LBB79_6:
Ltmp91:
	str	x0, [sp, #40]
	mov	x8, x1
	str	w8, [sp, #36]
	b	LBB79_11
LBB79_7:
Ltmp94:
	str	x0, [sp, #40]
	mov	x8, x1
	str	w8, [sp, #36]
	b	LBB79_10
LBB79_8:
Ltmp99:
	mov	x8, x0
	ldr	x0, [sp, #16]                   ; 8-byte Folded Reload
	str	x8, [sp, #40]
	mov	x8, x1
	str	w8, [sp, #36]
	bl	__ZNSt3__113basic_filebufIcNS_11char_traitsIcEEED1Ev
	b	LBB79_10
LBB79_9:
	ldur	x0, [x29, #-8]
	ldp	x29, x30, [sp, #80]             ; 16-byte Folded Reload
	add	sp, sp, #96
	ret
LBB79_10:
	ldr	x0, [sp, #24]                   ; 8-byte Folded Reload
	adrp	x8, __ZTTNSt3__114basic_ofstreamIcNS_11char_traitsIcEEEE@GOTPAGE
	ldr	x8, [x8, __ZTTNSt3__114basic_ofstreamIcNS_11char_traitsIcEEEE@GOTPAGEOFF]
	add	x1, x8, #8
	bl	__ZNSt3__113basic_ostreamIcNS_11char_traitsIcEEED2Ev
	b	LBB79_11
LBB79_11:
	ldr	x8, [sp, #24]                   ; 8-byte Folded Reload
	add	x0, x8, #416
	bl	__ZNSt3__19basic_iosIcNS_11char_traitsIcEEED2Ev
	b	LBB79_12
LBB79_12:
	ldr	x0, [sp, #40]
	bl	__Unwind_Resume
Lfunc_end7:
	.cfi_endproc
	.section	__TEXT,__gcc_except_tab
	.p2align	2, 0x0
GCC_except_table79:
Lexception7:
	.byte	255                             ; @LPStart Encoding = omit
	.byte	255                             ; @TType Encoding = omit
	.byte	1                               ; Call site Encoding = uleb128
	.uleb128 Lcst_end7-Lcst_begin7
Lcst_begin7:
	.uleb128 Lfunc_begin7-Lfunc_begin7      ; >> Call Site 1 <<
	.uleb128 Ltmp89-Lfunc_begin7            ;   Call between Lfunc_begin7 and Ltmp89
	.byte	0                               ;     has no landing pad
	.byte	0                               ;   On action: cleanup
	.uleb128 Ltmp89-Lfunc_begin7            ; >> Call Site 2 <<
	.uleb128 Ltmp90-Ltmp89                  ;   Call between Ltmp89 and Ltmp90
	.uleb128 Ltmp91-Lfunc_begin7            ;     jumps to Ltmp91
	.byte	0                               ;   On action: cleanup
	.uleb128 Ltmp92-Lfunc_begin7            ; >> Call Site 3 <<
	.uleb128 Ltmp93-Ltmp92                  ;   Call between Ltmp92 and Ltmp93
	.uleb128 Ltmp94-Lfunc_begin7            ;     jumps to Ltmp94
	.byte	0                               ;   On action: cleanup
	.uleb128 Ltmp95-Lfunc_begin7            ; >> Call Site 4 <<
	.uleb128 Ltmp98-Ltmp95                  ;   Call between Ltmp95 and Ltmp98
	.uleb128 Ltmp99-Lfunc_begin7            ;     jumps to Ltmp99
	.byte	0                               ;   On action: cleanup
	.uleb128 Ltmp98-Lfunc_begin7            ; >> Call Site 5 <<
	.uleb128 Lfunc_end7-Ltmp98              ;   Call between Ltmp98 and Lfunc_end7
	.byte	0                               ;     has no landing pad
	.byte	0                               ;   On action: cleanup
Lcst_end7:
	.p2align	2, 0x0
                                        ; -- End function
	.section	__TEXT,__text,regular,pure_instructions
	.private_extern	__ZNKSt3__19basic_iosIcNS_11char_traitsIcEEEntB8ne180100Ev ; -- Begin function _ZNKSt3__19basic_iosIcNS_11char_traitsIcEEEntB8ne180100Ev
	.globl	__ZNKSt3__19basic_iosIcNS_11char_traitsIcEEEntB8ne180100Ev
	.weak_definition	__ZNKSt3__19basic_iosIcNS_11char_traitsIcEEEntB8ne180100Ev
	.p2align	2
__ZNKSt3__19basic_iosIcNS_11char_traitsIcEEEntB8ne180100Ev: ; @_ZNKSt3__19basic_iosIcNS_11char_traitsIcEEEntB8ne180100Ev
	.cfi_startproc
; %bb.0:
	sub	sp, sp, #32
	stp	x29, x30, [sp, #16]             ; 16-byte Folded Spill
	add	x29, sp, #16
	.cfi_def_cfa w29, 16
	.cfi_offset w30, -8
	.cfi_offset w29, -16
	str	x0, [sp, #8]
	ldr	x0, [sp, #8]
	bl	__ZNKSt3__19basic_iosIcNS_11char_traitsIcEEE4failB8ne180100Ev
	and	w0, w0, #0x1
	ldp	x29, x30, [sp, #16]             ; 16-byte Folded Reload
	add	sp, sp, #32
	ret
	.cfi_endproc
                                        ; -- End function
	.private_extern	__ZNKSt3__19basic_iosIcNS_11char_traitsIcEEE5rdbufB8ne180100Ev ; -- Begin function _ZNKSt3__19basic_iosIcNS_11char_traitsIcEEE5rdbufB8ne180100Ev
	.globl	__ZNKSt3__19basic_iosIcNS_11char_traitsIcEEE5rdbufB8ne180100Ev
	.weak_definition	__ZNKSt3__19basic_iosIcNS_11char_traitsIcEEE5rdbufB8ne180100Ev
	.p2align	2
__ZNKSt3__19basic_iosIcNS_11char_traitsIcEEE5rdbufB8ne180100Ev: ; @_ZNKSt3__19basic_iosIcNS_11char_traitsIcEEE5rdbufB8ne180100Ev
	.cfi_startproc
; %bb.0:
	sub	sp, sp, #32
	stp	x29, x30, [sp, #16]             ; 16-byte Folded Spill
	add	x29, sp, #16
	.cfi_def_cfa w29, 16
	.cfi_offset w30, -8
	.cfi_offset w29, -16
	str	x0, [sp, #8]
	ldr	x0, [sp, #8]
	bl	__ZNKSt3__18ios_base5rdbufB8ne180100Ev
	ldp	x29, x30, [sp, #16]             ; 16-byte Folded Reload
	add	sp, sp, #32
	ret
	.cfi_endproc
                                        ; -- End function
	.private_extern	__ZNSt3__19basic_iosIcNS_11char_traitsIcEEE5rdbufB8ne180100EPNS_15basic_streambufIcS2_EE ; -- Begin function _ZNSt3__19basic_iosIcNS_11char_traitsIcEEE5rdbufB8ne180100EPNS_15basic_streambufIcS2_EE
	.globl	__ZNSt3__19basic_iosIcNS_11char_traitsIcEEE5rdbufB8ne180100EPNS_15basic_streambufIcS2_EE
	.weak_definition	__ZNSt3__19basic_iosIcNS_11char_traitsIcEEE5rdbufB8ne180100EPNS_15basic_streambufIcS2_EE
	.p2align	2
__ZNSt3__19basic_iosIcNS_11char_traitsIcEEE5rdbufB8ne180100EPNS_15basic_streambufIcS2_EE: ; @_ZNSt3__19basic_iosIcNS_11char_traitsIcEEE5rdbufB8ne180100EPNS_15basic_streambufIcS2_EE
	.cfi_startproc
; %bb.0:
	sub	sp, sp, #48
	stp	x29, x30, [sp, #32]             ; 16-byte Folded Spill
	add	x29, sp, #32
	.cfi_def_cfa w29, 16
	.cfi_offset w30, -8
	.cfi_offset w29, -16
	stur	x0, [x29, #-8]
	str	x1, [sp, #16]
	ldur	x0, [x29, #-8]
	str	x0, [sp]                        ; 8-byte Folded Spill
	bl	__ZNKSt3__19basic_iosIcNS_11char_traitsIcEEE5rdbufB8ne180100Ev
	mov	x8, x0
	ldr	x0, [sp]                        ; 8-byte Folded Reload
	str	x8, [sp, #8]
	ldr	x1, [sp, #16]
	bl	__ZNSt3__18ios_base5rdbufB8ne180100EPv
	ldr	x0, [sp, #8]
	ldp	x29, x30, [sp, #32]             ; 16-byte Folded Reload
	add	sp, sp, #48
	ret
	.cfi_endproc
                                        ; -- End function
	.private_extern	__ZNKSt3__114basic_ofstreamIcNS_11char_traitsIcEEE5rdbufEv ; -- Begin function _ZNKSt3__114basic_ofstreamIcNS_11char_traitsIcEEE5rdbufEv
	.globl	__ZNKSt3__114basic_ofstreamIcNS_11char_traitsIcEEE5rdbufEv
	.weak_definition	__ZNKSt3__114basic_ofstreamIcNS_11char_traitsIcEEE5rdbufEv
	.p2align	2
__ZNKSt3__114basic_ofstreamIcNS_11char_traitsIcEEE5rdbufEv: ; @_ZNKSt3__114basic_ofstreamIcNS_11char_traitsIcEEE5rdbufEv
	.cfi_startproc
; %bb.0:
	sub	sp, sp, #16
	.cfi_def_cfa_offset 16
	str	x0, [sp, #8]
	ldr	x8, [sp, #8]
	add	x0, x8, #8
	add	sp, sp, #16
	ret
	.cfi_endproc
                                        ; -- End function
	.globl	__ZNSt3__114basic_ofstreamIcNS_11char_traitsIcEEED1Ev ; -- Begin function _ZNSt3__114basic_ofstreamIcNS_11char_traitsIcEEED1Ev
	.weak_def_can_be_hidden	__ZNSt3__114basic_ofstreamIcNS_11char_traitsIcEEED1Ev
	.p2align	2
__ZNSt3__114basic_ofstreamIcNS_11char_traitsIcEEED1Ev: ; @_ZNSt3__114basic_ofstreamIcNS_11char_traitsIcEEED1Ev
	.cfi_startproc
; %bb.0:
	sub	sp, sp, #32
	stp	x29, x30, [sp, #16]             ; 16-byte Folded Spill
	add	x29, sp, #16
	.cfi_def_cfa w29, 16
	.cfi_offset w30, -8
	.cfi_offset w29, -16
	str	x0, [sp, #8]
	ldr	x0, [sp, #8]
	str	x0, [sp]                        ; 8-byte Folded Spill
	adrp	x1, __ZTTNSt3__114basic_ofstreamIcNS_11char_traitsIcEEEE@GOTPAGE
	ldr	x1, [x1, __ZTTNSt3__114basic_ofstreamIcNS_11char_traitsIcEEEE@GOTPAGEOFF]
	bl	__ZNSt3__114basic_ofstreamIcNS_11char_traitsIcEEED2Ev
	ldr	x8, [sp]                        ; 8-byte Folded Reload
	add	x0, x8, #416
	bl	__ZNSt3__19basic_iosIcNS_11char_traitsIcEEED2Ev
	ldr	x0, [sp]                        ; 8-byte Folded Reload
	ldp	x29, x30, [sp, #16]             ; 16-byte Folded Reload
	add	sp, sp, #32
	ret
	.cfi_endproc
                                        ; -- End function
	.globl	_main                           ; -- Begin function main
	.p2align	2
_main:                                  ; @main
Lfunc_begin8:
	.cfi_startproc
	.cfi_personality 155, ___gxx_personality_v0
	.cfi_lsda 16, Lexception8
; %bb.0:
	stp	x28, x27, [sp, #-32]!           ; 16-byte Folded Spill
	stp	x29, x30, [sp, #16]             ; 16-byte Folded Spill
	add	x29, sp, #16
	sub	sp, sp, #1408
	.cfi_def_cfa w29, 16
	.cfi_offset w30, -8
	.cfi_offset w29, -16
	.cfi_offset w27, -24
	.cfi_offset w28, -32
	adrp	x8, ___stack_chk_guard@GOTPAGE
	ldr	x8, [x8, ___stack_chk_guard@GOTPAGEOFF]
	ldr	x8, [x8]
	stur	x8, [x29, #-24]
	str	wzr, [sp, #876]
Ltmp101:
	adrp	x0, l_.str.19@PAGE
	add	x0, x0, l_.str.19@PAGEOFF
	bl	_printf
Ltmp102:
	b	LBB85_1
LBB85_1:
Ltmp103:
	mov	x9, sp
	mov	x8, #8                          ; =0x8
	str	x8, [x9]
	adrp	x0, l_.str.20@PAGE
	add	x0, x0, l_.str.20@PAGEOFF
	bl	_printf
Ltmp104:
	b	LBB85_2
LBB85_2:
Ltmp105:
	add	x0, sp, #856
	adrp	x1, l_.str.21@PAGE
	add	x1, x1, l_.str.21@PAGEOFF
	bl	__ZN6StringC1EPKc
Ltmp106:
	b	LBB85_3
LBB85_3:
Ltmp108:
	add	x0, sp, #840
	adrp	x1, l_.str.22@PAGE
	add	x1, x1, l_.str.22@PAGEOFF
	bl	__ZN6StringC1EPKc
Ltmp109:
	b	LBB85_4
LBB85_4:
Ltmp111:
	add	x0, sp, #808
	adrp	x1, l_.str.23@PAGE
	add	x1, x1, l_.str.23@PAGEOFF
	bl	__ZN6StringC1EPKc
Ltmp112:
	b	LBB85_5
LBB85_5:
Ltmp114:
	add	x0, sp, #760
	add	x1, sp, #856
	bl	__ZN6StringC1ERKS_
Ltmp115:
	b	LBB85_6
LBB85_6:
	add	x8, sp, #760
	add	x0, x8, #16
	bl	__ZNSt3__16vectorINS0_INS_4pairIhhEENS_9allocatorIS2_EEEENS3_IS5_EEEC1B8ne180100Ev
	mov	w8, #2                          ; =0x2
	strh	w8, [sp, #800]
	mov	w8, #1                          ; =0x1
	strh	w8, [sp, #802]
	strh	w8, [sp, #804]
Ltmp117:
	add	x0, sp, #736
	add	x1, sp, #840
	bl	__ZN6StringC1ERKS_
Ltmp118:
	b	LBB85_7
LBB85_7:
	mov	w8, #2                          ; =0x2
	strh	w8, [sp, #752]
	mov	w8, #1                          ; =0x1
	strh	w8, [sp, #754]
	add	x8, sp, #712
	mov	w9, #8                          ; =0x8
	strb	w9, [sp, #712]
	mov	w9, #6                          ; =0x6
	strb	w9, [sp, #713]
	add	x0, x8, #8
Ltmp120:
	adrp	x1, l_.str.23@PAGE
	add	x1, x1, l_.str.23@PAGEOFF
	bl	__ZN6StringC1EPKc
Ltmp121:
	b	LBB85_8
LBB85_8:
	add	x8, sp, #688
	mov	w9, #1                          ; =0x1
	strb	w9, [sp, #688]
	strb	w9, [sp, #689]
	add	x0, x8, #8
Ltmp123:
	adrp	x1, l_.str.24@PAGE
	add	x1, x1, l_.str.24@PAGEOFF
	bl	__ZN6StringC1EPKc
Ltmp124:
	b	LBB85_9
LBB85_9:
Ltmp126:
	add	x0, sp, #672
	bl	__ZN6None_tC1Ev
Ltmp127:
	b	LBB85_10
LBB85_10:
Ltmp129:
	adrp	x0, l_.str.25@PAGE
	add	x0, x0, l_.str.25@PAGEOFF
	bl	_printf
Ltmp130:
	b	LBB85_11
LBB85_11:
Ltmp131:
	mov	x9, sp
	mov	x8, #26                         ; =0x1a
	str	x8, [x9]
	adrp	x0, l_.str.20@PAGE
	add	x0, x0, l_.str.20@PAGEOFF
	bl	_printf
Ltmp132:
	b	LBB85_12
LBB85_12:
	add	x8, sp, #592
	strh	wzr, [sp, #592]
	add	x0, x8, #8
	str	x0, [sp, #48]                   ; 8-byte Folded Spill
Ltmp133:
	add	x1, sp, #760
	bl	__ZNSt3__17variantIJ11uniCourse_t6Mand_tEEC1B8ne180100IRS1_Li0ELi0ELi0ES1_Lm0ELi0EEEOT_
Ltmp134:
	b	LBB85_13
LBB85_13:
	add	x8, sp, #592
	add	x0, x8, #64
Ltmp136:
	adrp	x1, l_.str.26@PAGE
	add	x1, x1, l_.str.26@PAGEOFF
	bl	__ZN6StringC1EPKc
Ltmp137:
	b	LBB85_14
LBB85_14:
	add	x8, sp, #512
	strh	wzr, [sp, #512]
	add	x0, x8, #8
	str	x0, [sp, #40]                   ; 8-byte Folded Spill
Ltmp139:
	add	x1, sp, #736
	bl	__ZNSt3__17variantIJ11uniCourse_t6Mand_tEEC1B8ne180100IRS2_Li0ELi0ELi0ES2_Lm1ELi0EEEOT_
Ltmp140:
	b	LBB85_15
LBB85_15:
	add	x8, sp, #512
	add	x0, x8, #64
Ltmp142:
	adrp	x1, l_.str.26@PAGE
	add	x1, x1, l_.str.26@PAGEOFF
	bl	__ZN6StringC1EPKc
Ltmp143:
	b	LBB85_16
LBB85_16:
Ltmp145:
	add	x0, sp, #488
	add	x1, sp, #712
	bl	__ZN7Sleep_tC1ERKS_
Ltmp146:
	b	LBB85_17
LBB85_17:
Ltmp148:
	add	x0, sp, #432
	add	x1, sp, #688
	bl	__ZNSt3__17variantIJ7Break_t6None_tEEC1B8ne180100IRS1_Li0ELi0ELi0ES1_Lm0ELi0EEEOT_
Ltmp149:
	b	LBB85_18
LBB85_18:
	add	x8, sp, #432
	mov	w9, #2                          ; =0x2
	strh	w9, [sp, #464]
	add	x0, x8, #40
Ltmp151:
	adrp	x1, l_.str.13@PAGE
	add	x1, x1, l_.str.13@PAGEOFF
	bl	__ZN6StringC1EPKc
Ltmp152:
	b	LBB85_19
LBB85_19:
Ltmp154:
	add	x0, sp, #376
	add	x1, sp, #672
	bl	__ZNSt3__17variantIJ7Break_t6None_tEEC1B8ne180100IRS2_Li0ELi0ELi0ES2_Lm1ELi0EEEOT_
Ltmp155:
	b	LBB85_20
LBB85_20:
	add	x8, sp, #376
	mov	w9, #2                          ; =0x2
	strh	w9, [sp, #408]
	add	x0, x8, #40
Ltmp157:
	adrp	x1, l_.str.13@PAGE
	add	x1, x1, l_.str.13@PAGEOFF
	bl	__ZN6StringC1EPKc
Ltmp158:
	b	LBB85_21
LBB85_21:
Ltmp160:
	adrp	x0, l_.str.27@PAGE
	add	x0, x0, l_.str.27@PAGEOFF
	bl	_printf
Ltmp161:
	b	LBB85_22
LBB85_22:
Ltmp162:
	mov	x9, sp
	mov	x8, #35                         ; =0x23
	str	x8, [x9]
	adrp	x0, l_.str.20@PAGE
	add	x0, x0, l_.str.20@PAGEOFF
	bl	_printf
Ltmp163:
	b	LBB85_23
LBB85_23:
Ltmp164:
	add	x0, sp, #296
	add	x1, sp, #592
	bl	__ZN4WORKC1ERKS_
Ltmp165:
	b	LBB85_24
LBB85_24:
Ltmp167:
	sub	x0, x29, #128
	add	x1, sp, #296
	mov	w2, #0                          ; =0x0
	mov	w3, #3                          ; =0x3
	bl	__ZN10Activity_tC1I4WORKEET_hh
Ltmp168:
	b	LBB85_25
LBB85_25:
	add	x0, sp, #296
	bl	__ZN4WORKD1Ev
Ltmp170:
	add	x0, sp, #216
	add	x1, sp, #512
	bl	__ZN4WORKC1ERKS_
Ltmp171:
	b	LBB85_26
LBB85_26:
Ltmp173:
	sub	x0, x29, #232
	add	x1, sp, #216
	mov	w2, #4                          ; =0x4
	mov	w3, #6                          ; =0x6
	bl	__ZN10Activity_tC1I4WORKEET_hh
Ltmp174:
	b	LBB85_27
LBB85_27:
	add	x0, sp, #216
	bl	__ZN4WORKD1Ev
Ltmp176:
	add	x0, sp, #192
	add	x1, sp, #488
	bl	__ZN5SLEEPC1ERKS_
Ltmp177:
	b	LBB85_28
LBB85_28:
Ltmp179:
	add	x0, sp, #1088
	add	x1, sp, #192
	mov	w2, #7                          ; =0x7
	mov	w3, #8                          ; =0x8
	bl	__ZN10Activity_tC1I5SLEEPEET_hh
Ltmp180:
	b	LBB85_29
LBB85_29:
	add	x0, sp, #192
	bl	__ZN5SLEEPD1Ev
Ltmp182:
	add	x0, sp, #136
	add	x1, sp, #432
	bl	__ZN4FREEC1ERKS_
Ltmp183:
	b	LBB85_30
LBB85_30:
Ltmp185:
	add	x0, sp, #984
	add	x1, sp, #136
	mov	w2, #9                          ; =0x9
	mov	w3, #10                         ; =0xa
	bl	__ZN10Activity_tC1I4FREEEET_hh
Ltmp186:
	b	LBB85_31
LBB85_31:
	add	x0, sp, #136
	bl	__ZN4FREED1Ev
Ltmp188:
	add	x0, sp, #80
	add	x1, sp, #376
	bl	__ZN4FREEC1ERKS_
Ltmp189:
	b	LBB85_32
LBB85_32:
Ltmp191:
	add	x0, sp, #880
	add	x1, sp, #80
	mov	w2, #11                         ; =0xb
	mov	w3, #12                         ; =0xc
	bl	__ZN10Activity_tC1I4FREEEET_hh
Ltmp192:
	b	LBB85_33
LBB85_33:
	add	x0, sp, #80
	bl	__ZN4FREED1Ev
Ltmp194:
	mov	x9, sp
	mov	x8, #43                         ; =0x2b
	str	x8, [x9]
	adrp	x0, l_.str.20@PAGE
	add	x0, x0, l_.str.20@PAGEOFF
	bl	_printf
Ltmp195:
	b	LBB85_34
LBB85_34:
Ltmp196:
	add	x0, sp, #56
	bl	__ZN11TimeTable_tC1Ev
Ltmp197:
	b	LBB85_35
LBB85_35:
	add	x0, sp, #56
	str	x0, [sp, #32]                   ; 8-byte Folded Spill
	sub	x1, x29, #128
	bl	__ZN11TimeTable_t6insertEP10Activity_t
	ldr	x0, [sp, #32]                   ; 8-byte Folded Reload
	sub	x1, x29, #232
	bl	__ZN11TimeTable_t6insertEP10Activity_t
	ldr	x0, [sp, #32]                   ; 8-byte Folded Reload
	add	x1, sp, #1088
	bl	__ZN11TimeTable_t6insertEP10Activity_t
	ldr	x0, [sp, #32]                   ; 8-byte Folded Reload
	add	x1, sp, #984
	bl	__ZN11TimeTable_t6insertEP10Activity_t
	ldr	x0, [sp, #32]                   ; 8-byte Folded Reload
	add	x1, sp, #880
	bl	__ZN11TimeTable_t6insertEP10Activity_t
Ltmp199:
	adrp	x0, l_.str.28@PAGE
	add	x0, x0, l_.str.28@PAGEOFF
	bl	_printf
Ltmp200:
	b	LBB85_36
LBB85_36:
Ltmp201:
	add	x0, sp, #56
	bl	__ZN11TimeTable_t8devDebugEv
Ltmp202:
	b	LBB85_37
LBB85_37:
Ltmp203:
	adrp	x0, __ZNSt3__13cinE@GOTPAGE
	ldr	x0, [x0, __ZNSt3__13cinE@GOTPAGEOFF]
	bl	__ZNSt3__113basic_istreamIcNS_11char_traitsIcEEE3getEv
Ltmp204:
	b	LBB85_38
LBB85_38:
	str	wzr, [sp, #876]
	add	x0, sp, #56
	bl	__ZN11TimeTable_tD1Ev
	add	x0, sp, #880
	bl	__ZN10Activity_tD1Ev
	add	x0, sp, #984
	bl	__ZN10Activity_tD1Ev
	add	x0, sp, #1088
	bl	__ZN10Activity_tD1Ev
	sub	x0, x29, #232
	bl	__ZN10Activity_tD1Ev
	sub	x0, x29, #128
	bl	__ZN10Activity_tD1Ev
	add	x0, sp, #376
	bl	__ZN4FREED1Ev
	add	x0, sp, #432
	bl	__ZN4FREED1Ev
	add	x0, sp, #488
	bl	__ZN5SLEEPD1Ev
	add	x0, sp, #512
	bl	__ZN4WORKD1Ev
	add	x0, sp, #592
	bl	__ZN4WORKD1Ev
	add	x0, sp, #672
	bl	__ZN6None_tD1Ev
	add	x0, sp, #688
	bl	__ZN7Break_tD1Ev
	add	x0, sp, #712
	bl	__ZN7Sleep_tD1Ev
	add	x0, sp, #736
	bl	__ZN6Mand_tD1Ev
	add	x0, sp, #760
	bl	__ZN11uniCourse_tD1Ev
	add	x0, sp, #808
	bl	__ZN6StringD1Ev
	add	x0, sp, #840
	bl	__ZN6StringD1Ev
	add	x0, sp, #856
	bl	__ZN6StringD1Ev
	ldr	w8, [sp, #876]
	str	w8, [sp, #28]                   ; 4-byte Folded Spill
	ldur	x9, [x29, #-24]
	adrp	x8, ___stack_chk_guard@GOTPAGE
	ldr	x8, [x8, ___stack_chk_guard@GOTPAGEOFF]
	ldr	x8, [x8]
	subs	x8, x8, x9
	cset	w8, eq
	tbnz	w8, #0, LBB85_40
	b	LBB85_39
LBB85_39:
	bl	___stack_chk_fail
LBB85_40:
	ldr	w0, [sp, #28]                   ; 4-byte Folded Reload
	add	sp, sp, #1408
	ldp	x29, x30, [sp, #16]             ; 16-byte Folded Reload
	ldp	x28, x27, [sp], #32             ; 16-byte Folded Reload
	ret
LBB85_41:
Ltmp110:
	str	x0, [sp, #832]
	mov	x8, x1
	str	w8, [sp, #828]
	b	LBB85_86
LBB85_42:
Ltmp113:
	str	x0, [sp, #832]
	mov	x8, x1
	str	w8, [sp, #828]
	b	LBB85_85
LBB85_43:
Ltmp116:
	str	x0, [sp, #832]
	mov	x8, x1
	str	w8, [sp, #828]
	b	LBB85_84
LBB85_44:
Ltmp119:
	str	x0, [sp, #832]
	mov	x8, x1
	str	w8, [sp, #828]
	b	LBB85_83
LBB85_45:
Ltmp122:
	str	x0, [sp, #832]
	mov	x8, x1
	str	w8, [sp, #828]
	b	LBB85_82
LBB85_46:
Ltmp125:
	str	x0, [sp, #832]
	mov	x8, x1
	str	w8, [sp, #828]
	b	LBB85_81
LBB85_47:
Ltmp128:
	str	x0, [sp, #832]
	mov	x8, x1
	str	w8, [sp, #828]
	b	LBB85_80
LBB85_48:
Ltmp135:
	str	x0, [sp, #832]
	mov	x8, x1
	str	w8, [sp, #828]
	b	LBB85_79
LBB85_49:
Ltmp138:
	mov	x8, x0
	ldr	x0, [sp, #48]                   ; 8-byte Folded Reload
	str	x8, [sp, #832]
	mov	x8, x1
	str	w8, [sp, #828]
	bl	__ZNSt3__17variantIJ11uniCourse_t6Mand_tEED1B8ne180100Ev
	b	LBB85_79
LBB85_50:
Ltmp141:
	str	x0, [sp, #832]
	mov	x8, x1
	str	w8, [sp, #828]
	b	LBB85_78
LBB85_51:
Ltmp144:
	mov	x8, x0
	ldr	x0, [sp, #40]                   ; 8-byte Folded Reload
	str	x8, [sp, #832]
	mov	x8, x1
	str	w8, [sp, #828]
	bl	__ZNSt3__17variantIJ11uniCourse_t6Mand_tEED1B8ne180100Ev
	b	LBB85_78
LBB85_52:
Ltmp147:
	str	x0, [sp, #832]
	mov	x8, x1
	str	w8, [sp, #828]
	b	LBB85_77
LBB85_53:
Ltmp150:
	str	x0, [sp, #832]
	mov	x8, x1
	str	w8, [sp, #828]
	b	LBB85_76
LBB85_54:
Ltmp153:
	str	x0, [sp, #832]
	mov	x8, x1
	str	w8, [sp, #828]
	add	x0, sp, #432
	bl	__ZNSt3__17variantIJ7Break_t6None_tEED1B8ne180100Ev
	b	LBB85_76
LBB85_55:
Ltmp156:
	str	x0, [sp, #832]
	mov	x8, x1
	str	w8, [sp, #828]
	b	LBB85_75
LBB85_56:
Ltmp159:
	str	x0, [sp, #832]
	mov	x8, x1
	str	w8, [sp, #828]
	add	x0, sp, #376
	bl	__ZNSt3__17variantIJ7Break_t6None_tEED1B8ne180100Ev
	b	LBB85_75
LBB85_57:
Ltmp166:
	str	x0, [sp, #832]
	mov	x8, x1
	str	w8, [sp, #828]
	b	LBB85_74
LBB85_58:
Ltmp169:
	str	x0, [sp, #832]
	mov	x8, x1
	str	w8, [sp, #828]
	add	x0, sp, #296
	bl	__ZN4WORKD1Ev
	b	LBB85_74
LBB85_59:
Ltmp172:
	str	x0, [sp, #832]
	mov	x8, x1
	str	w8, [sp, #828]
	b	LBB85_73
LBB85_60:
Ltmp175:
	str	x0, [sp, #832]
	mov	x8, x1
	str	w8, [sp, #828]
	add	x0, sp, #216
	bl	__ZN4WORKD1Ev
	b	LBB85_73
LBB85_61:
Ltmp178:
	str	x0, [sp, #832]
	mov	x8, x1
	str	w8, [sp, #828]
	b	LBB85_72
LBB85_62:
Ltmp181:
	str	x0, [sp, #832]
	mov	x8, x1
	str	w8, [sp, #828]
	add	x0, sp, #192
	bl	__ZN5SLEEPD1Ev
	b	LBB85_72
LBB85_63:
Ltmp184:
	str	x0, [sp, #832]
	mov	x8, x1
	str	w8, [sp, #828]
	b	LBB85_71
LBB85_64:
Ltmp187:
	str	x0, [sp, #832]
	mov	x8, x1
	str	w8, [sp, #828]
	add	x0, sp, #136
	bl	__ZN4FREED1Ev
	b	LBB85_71
LBB85_65:
Ltmp190:
	str	x0, [sp, #832]
	mov	x8, x1
	str	w8, [sp, #828]
	b	LBB85_70
LBB85_66:
Ltmp193:
	str	x0, [sp, #832]
	mov	x8, x1
	str	w8, [sp, #828]
	add	x0, sp, #80
	bl	__ZN4FREED1Ev
	b	LBB85_70
LBB85_67:
Ltmp198:
	str	x0, [sp, #832]
	mov	x8, x1
	str	w8, [sp, #828]
	b	LBB85_69
LBB85_68:
Ltmp205:
	str	x0, [sp, #832]
	mov	x8, x1
	str	w8, [sp, #828]
	add	x0, sp, #56
	bl	__ZN11TimeTable_tD1Ev
	b	LBB85_69
LBB85_69:
	add	x0, sp, #880
	bl	__ZN10Activity_tD1Ev
	b	LBB85_70
LBB85_70:
	add	x0, sp, #984
	bl	__ZN10Activity_tD1Ev
	b	LBB85_71
LBB85_71:
	add	x0, sp, #1088
	bl	__ZN10Activity_tD1Ev
	b	LBB85_72
LBB85_72:
	sub	x0, x29, #232
	bl	__ZN10Activity_tD1Ev
	b	LBB85_73
LBB85_73:
	sub	x0, x29, #128
	bl	__ZN10Activity_tD1Ev
	b	LBB85_74
LBB85_74:
	add	x0, sp, #376
	bl	__ZN4FREED1Ev
	b	LBB85_75
LBB85_75:
	add	x0, sp, #432
	bl	__ZN4FREED1Ev
	b	LBB85_76
LBB85_76:
	add	x0, sp, #488
	bl	__ZN5SLEEPD1Ev
	b	LBB85_77
LBB85_77:
	add	x0, sp, #512
	bl	__ZN4WORKD1Ev
	b	LBB85_78
LBB85_78:
	add	x0, sp, #592
	bl	__ZN4WORKD1Ev
	b	LBB85_79
LBB85_79:
	add	x0, sp, #672
	bl	__ZN6None_tD1Ev
	b	LBB85_80
LBB85_80:
	add	x0, sp, #688
	bl	__ZN7Break_tD1Ev
	b	LBB85_81
LBB85_81:
	add	x0, sp, #712
	bl	__ZN7Sleep_tD1Ev
	b	LBB85_82
LBB85_82:
	add	x0, sp, #736
	bl	__ZN6Mand_tD1Ev
	b	LBB85_83
LBB85_83:
	add	x0, sp, #760
	bl	__ZN11uniCourse_tD1Ev
	b	LBB85_84
LBB85_84:
	add	x0, sp, #808
	bl	__ZN6StringD1Ev
	b	LBB85_85
LBB85_85:
	add	x0, sp, #840
	bl	__ZN6StringD1Ev
	b	LBB85_86
LBB85_86:
	add	x0, sp, #856
	bl	__ZN6StringD1Ev
	b	LBB85_87
LBB85_87:
	ldr	x0, [sp, #832]
	str	x0, [sp, #16]                   ; 8-byte Folded Spill
	b	LBB85_89
LBB85_88:
Ltmp107:
	str	x0, [sp, #16]                   ; 8-byte Folded Spill
	b	LBB85_89
LBB85_89:
	ldr	x0, [sp, #16]                   ; 8-byte Folded Reload
	bl	__Unwind_Resume
Lfunc_end8:
	.cfi_endproc
	.section	__TEXT,__gcc_except_tab
	.p2align	2, 0x0
GCC_except_table85:
Lexception8:
	.byte	255                             ; @LPStart Encoding = omit
	.byte	255                             ; @TType Encoding = omit
	.byte	1                               ; Call site Encoding = uleb128
	.uleb128 Lcst_end8-Lcst_begin8
Lcst_begin8:
	.uleb128 Ltmp101-Lfunc_begin8           ; >> Call Site 1 <<
	.uleb128 Ltmp106-Ltmp101                ;   Call between Ltmp101 and Ltmp106
	.uleb128 Ltmp107-Lfunc_begin8           ;     jumps to Ltmp107
	.byte	0                               ;   On action: cleanup
	.uleb128 Ltmp108-Lfunc_begin8           ; >> Call Site 2 <<
	.uleb128 Ltmp109-Ltmp108                ;   Call between Ltmp108 and Ltmp109
	.uleb128 Ltmp110-Lfunc_begin8           ;     jumps to Ltmp110
	.byte	0                               ;   On action: cleanup
	.uleb128 Ltmp111-Lfunc_begin8           ; >> Call Site 3 <<
	.uleb128 Ltmp112-Ltmp111                ;   Call between Ltmp111 and Ltmp112
	.uleb128 Ltmp113-Lfunc_begin8           ;     jumps to Ltmp113
	.byte	0                               ;   On action: cleanup
	.uleb128 Ltmp114-Lfunc_begin8           ; >> Call Site 4 <<
	.uleb128 Ltmp115-Ltmp114                ;   Call between Ltmp114 and Ltmp115
	.uleb128 Ltmp116-Lfunc_begin8           ;     jumps to Ltmp116
	.byte	0                               ;   On action: cleanup
	.uleb128 Ltmp117-Lfunc_begin8           ; >> Call Site 5 <<
	.uleb128 Ltmp118-Ltmp117                ;   Call between Ltmp117 and Ltmp118
	.uleb128 Ltmp119-Lfunc_begin8           ;     jumps to Ltmp119
	.byte	0                               ;   On action: cleanup
	.uleb128 Ltmp120-Lfunc_begin8           ; >> Call Site 6 <<
	.uleb128 Ltmp121-Ltmp120                ;   Call between Ltmp120 and Ltmp121
	.uleb128 Ltmp122-Lfunc_begin8           ;     jumps to Ltmp122
	.byte	0                               ;   On action: cleanup
	.uleb128 Ltmp123-Lfunc_begin8           ; >> Call Site 7 <<
	.uleb128 Ltmp124-Ltmp123                ;   Call between Ltmp123 and Ltmp124
	.uleb128 Ltmp125-Lfunc_begin8           ;     jumps to Ltmp125
	.byte	0                               ;   On action: cleanup
	.uleb128 Ltmp126-Lfunc_begin8           ; >> Call Site 8 <<
	.uleb128 Ltmp127-Ltmp126                ;   Call between Ltmp126 and Ltmp127
	.uleb128 Ltmp128-Lfunc_begin8           ;     jumps to Ltmp128
	.byte	0                               ;   On action: cleanup
	.uleb128 Ltmp129-Lfunc_begin8           ; >> Call Site 9 <<
	.uleb128 Ltmp134-Ltmp129                ;   Call between Ltmp129 and Ltmp134
	.uleb128 Ltmp135-Lfunc_begin8           ;     jumps to Ltmp135
	.byte	0                               ;   On action: cleanup
	.uleb128 Ltmp136-Lfunc_begin8           ; >> Call Site 10 <<
	.uleb128 Ltmp137-Ltmp136                ;   Call between Ltmp136 and Ltmp137
	.uleb128 Ltmp138-Lfunc_begin8           ;     jumps to Ltmp138
	.byte	0                               ;   On action: cleanup
	.uleb128 Ltmp139-Lfunc_begin8           ; >> Call Site 11 <<
	.uleb128 Ltmp140-Ltmp139                ;   Call between Ltmp139 and Ltmp140
	.uleb128 Ltmp141-Lfunc_begin8           ;     jumps to Ltmp141
	.byte	0                               ;   On action: cleanup
	.uleb128 Ltmp142-Lfunc_begin8           ; >> Call Site 12 <<
	.uleb128 Ltmp143-Ltmp142                ;   Call between Ltmp142 and Ltmp143
	.uleb128 Ltmp144-Lfunc_begin8           ;     jumps to Ltmp144
	.byte	0                               ;   On action: cleanup
	.uleb128 Ltmp145-Lfunc_begin8           ; >> Call Site 13 <<
	.uleb128 Ltmp146-Ltmp145                ;   Call between Ltmp145 and Ltmp146
	.uleb128 Ltmp147-Lfunc_begin8           ;     jumps to Ltmp147
	.byte	0                               ;   On action: cleanup
	.uleb128 Ltmp148-Lfunc_begin8           ; >> Call Site 14 <<
	.uleb128 Ltmp149-Ltmp148                ;   Call between Ltmp148 and Ltmp149
	.uleb128 Ltmp150-Lfunc_begin8           ;     jumps to Ltmp150
	.byte	0                               ;   On action: cleanup
	.uleb128 Ltmp151-Lfunc_begin8           ; >> Call Site 15 <<
	.uleb128 Ltmp152-Ltmp151                ;   Call between Ltmp151 and Ltmp152
	.uleb128 Ltmp153-Lfunc_begin8           ;     jumps to Ltmp153
	.byte	0                               ;   On action: cleanup
	.uleb128 Ltmp154-Lfunc_begin8           ; >> Call Site 16 <<
	.uleb128 Ltmp155-Ltmp154                ;   Call between Ltmp154 and Ltmp155
	.uleb128 Ltmp156-Lfunc_begin8           ;     jumps to Ltmp156
	.byte	0                               ;   On action: cleanup
	.uleb128 Ltmp157-Lfunc_begin8           ; >> Call Site 17 <<
	.uleb128 Ltmp158-Ltmp157                ;   Call between Ltmp157 and Ltmp158
	.uleb128 Ltmp159-Lfunc_begin8           ;     jumps to Ltmp159
	.byte	0                               ;   On action: cleanup
	.uleb128 Ltmp160-Lfunc_begin8           ; >> Call Site 18 <<
	.uleb128 Ltmp165-Ltmp160                ;   Call between Ltmp160 and Ltmp165
	.uleb128 Ltmp166-Lfunc_begin8           ;     jumps to Ltmp166
	.byte	0                               ;   On action: cleanup
	.uleb128 Ltmp167-Lfunc_begin8           ; >> Call Site 19 <<
	.uleb128 Ltmp168-Ltmp167                ;   Call between Ltmp167 and Ltmp168
	.uleb128 Ltmp169-Lfunc_begin8           ;     jumps to Ltmp169
	.byte	0                               ;   On action: cleanup
	.uleb128 Ltmp170-Lfunc_begin8           ; >> Call Site 20 <<
	.uleb128 Ltmp171-Ltmp170                ;   Call between Ltmp170 and Ltmp171
	.uleb128 Ltmp172-Lfunc_begin8           ;     jumps to Ltmp172
	.byte	0                               ;   On action: cleanup
	.uleb128 Ltmp173-Lfunc_begin8           ; >> Call Site 21 <<
	.uleb128 Ltmp174-Ltmp173                ;   Call between Ltmp173 and Ltmp174
	.uleb128 Ltmp175-Lfunc_begin8           ;     jumps to Ltmp175
	.byte	0                               ;   On action: cleanup
	.uleb128 Ltmp176-Lfunc_begin8           ; >> Call Site 22 <<
	.uleb128 Ltmp177-Ltmp176                ;   Call between Ltmp176 and Ltmp177
	.uleb128 Ltmp178-Lfunc_begin8           ;     jumps to Ltmp178
	.byte	0                               ;   On action: cleanup
	.uleb128 Ltmp179-Lfunc_begin8           ; >> Call Site 23 <<
	.uleb128 Ltmp180-Ltmp179                ;   Call between Ltmp179 and Ltmp180
	.uleb128 Ltmp181-Lfunc_begin8           ;     jumps to Ltmp181
	.byte	0                               ;   On action: cleanup
	.uleb128 Ltmp182-Lfunc_begin8           ; >> Call Site 24 <<
	.uleb128 Ltmp183-Ltmp182                ;   Call between Ltmp182 and Ltmp183
	.uleb128 Ltmp184-Lfunc_begin8           ;     jumps to Ltmp184
	.byte	0                               ;   On action: cleanup
	.uleb128 Ltmp185-Lfunc_begin8           ; >> Call Site 25 <<
	.uleb128 Ltmp186-Ltmp185                ;   Call between Ltmp185 and Ltmp186
	.uleb128 Ltmp187-Lfunc_begin8           ;     jumps to Ltmp187
	.byte	0                               ;   On action: cleanup
	.uleb128 Ltmp188-Lfunc_begin8           ; >> Call Site 26 <<
	.uleb128 Ltmp189-Ltmp188                ;   Call between Ltmp188 and Ltmp189
	.uleb128 Ltmp190-Lfunc_begin8           ;     jumps to Ltmp190
	.byte	0                               ;   On action: cleanup
	.uleb128 Ltmp191-Lfunc_begin8           ; >> Call Site 27 <<
	.uleb128 Ltmp192-Ltmp191                ;   Call between Ltmp191 and Ltmp192
	.uleb128 Ltmp193-Lfunc_begin8           ;     jumps to Ltmp193
	.byte	0                               ;   On action: cleanup
	.uleb128 Ltmp194-Lfunc_begin8           ; >> Call Site 28 <<
	.uleb128 Ltmp197-Ltmp194                ;   Call between Ltmp194 and Ltmp197
	.uleb128 Ltmp198-Lfunc_begin8           ;     jumps to Ltmp198
	.byte	0                               ;   On action: cleanup
	.uleb128 Ltmp199-Lfunc_begin8           ; >> Call Site 29 <<
	.uleb128 Ltmp204-Ltmp199                ;   Call between Ltmp199 and Ltmp204
	.uleb128 Ltmp205-Lfunc_begin8           ;     jumps to Ltmp205
	.byte	0                               ;   On action: cleanup
	.uleb128 Ltmp204-Lfunc_begin8           ; >> Call Site 30 <<
	.uleb128 Lfunc_end8-Ltmp204             ;   Call between Ltmp204 and Lfunc_end8
	.byte	0                               ;     has no landing pad
	.byte	0                               ;   On action: cleanup
Lcst_end8:
	.p2align	2, 0x0
                                        ; -- End function
	.section	__TEXT,__text,regular,pure_instructions
	.globl	__ZN6StringC1ERKS_              ; -- Begin function _ZN6StringC1ERKS_
	.weak_def_can_be_hidden	__ZN6StringC1ERKS_
	.p2align	2
__ZN6StringC1ERKS_:                     ; @_ZN6StringC1ERKS_
	.cfi_startproc
; %bb.0:
	sub	sp, sp, #48
	stp	x29, x30, [sp, #32]             ; 16-byte Folded Spill
	add	x29, sp, #32
	.cfi_def_cfa w29, 16
	.cfi_offset w30, -8
	.cfi_offset w29, -16
	stur	x0, [x29, #-8]
	str	x1, [sp, #16]
	ldur	x0, [x29, #-8]
	str	x0, [sp, #8]                    ; 8-byte Folded Spill
	ldr	x1, [sp, #16]
	bl	__ZN6StringC2ERKS_
	ldr	x0, [sp, #8]                    ; 8-byte Folded Reload
	ldp	x29, x30, [sp, #32]             ; 16-byte Folded Reload
	add	sp, sp, #48
	ret
	.cfi_endproc
                                        ; -- End function
	.private_extern	__ZNSt3__16vectorINS0_INS_4pairIhhEENS_9allocatorIS2_EEEENS3_IS5_EEEC1B8ne180100Ev ; -- Begin function _ZNSt3__16vectorINS0_INS_4pairIhhEENS_9allocatorIS2_EEEENS3_IS5_EEEC1B8ne180100Ev
	.globl	__ZNSt3__16vectorINS0_INS_4pairIhhEENS_9allocatorIS2_EEEENS3_IS5_EEEC1B8ne180100Ev
	.weak_def_can_be_hidden	__ZNSt3__16vectorINS0_INS_4pairIhhEENS_9allocatorIS2_EEEENS3_IS5_EEEC1B8ne180100Ev
	.p2align	2
__ZNSt3__16vectorINS0_INS_4pairIhhEENS_9allocatorIS2_EEEENS3_IS5_EEEC1B8ne180100Ev: ; @_ZNSt3__16vectorINS0_INS_4pairIhhEENS_9allocatorIS2_EEEENS3_IS5_EEEC1B8ne180100Ev
	.cfi_startproc
; %bb.0:
	sub	sp, sp, #32
	stp	x29, x30, [sp, #16]             ; 16-byte Folded Spill
	add	x29, sp, #16
	.cfi_def_cfa w29, 16
	.cfi_offset w30, -8
	.cfi_offset w29, -16
	str	x0, [sp, #8]
	ldr	x0, [sp, #8]
	str	x0, [sp]                        ; 8-byte Folded Spill
	bl	__ZNSt3__16vectorINS0_INS_4pairIhhEENS_9allocatorIS2_EEEENS3_IS5_EEEC2B8ne180100Ev
	ldr	x0, [sp]                        ; 8-byte Folded Reload
	ldp	x29, x30, [sp, #16]             ; 16-byte Folded Reload
	add	sp, sp, #32
	ret
	.cfi_endproc
                                        ; -- End function
	.globl	__ZN6None_tC1Ev                 ; -- Begin function _ZN6None_tC1Ev
	.weak_def_can_be_hidden	__ZN6None_tC1Ev
	.p2align	2
__ZN6None_tC1Ev:                        ; @_ZN6None_tC1Ev
	.cfi_startproc
; %bb.0:
	sub	sp, sp, #32
	stp	x29, x30, [sp, #16]             ; 16-byte Folded Spill
	add	x29, sp, #16
	.cfi_def_cfa w29, 16
	.cfi_offset w30, -8
	.cfi_offset w29, -16
	str	x0, [sp, #8]
	ldr	x0, [sp, #8]
	str	x0, [sp]                        ; 8-byte Folded Spill
	bl	__ZN6None_tC2Ev
	ldr	x0, [sp]                        ; 8-byte Folded Reload
	ldp	x29, x30, [sp, #16]             ; 16-byte Folded Reload
	add	sp, sp, #32
	ret
	.cfi_endproc
                                        ; -- End function
	.globl	__ZNSt3__17variantIJ11uniCourse_t6Mand_tEEC1B8ne180100IRS1_Li0ELi0ELi0ES1_Lm0ELi0EEEOT_ ; -- Begin function _ZNSt3__17variantIJ11uniCourse_t6Mand_tEEC1B8ne180100IRS1_Li0ELi0ELi0ES1_Lm0ELi0EEEOT_
	.weak_def_can_be_hidden	__ZNSt3__17variantIJ11uniCourse_t6Mand_tEEC1B8ne180100IRS1_Li0ELi0ELi0ES1_Lm0ELi0EEEOT_
	.p2align	2
__ZNSt3__17variantIJ11uniCourse_t6Mand_tEEC1B8ne180100IRS1_Li0ELi0ELi0ES1_Lm0ELi0EEEOT_: ; @_ZNSt3__17variantIJ11uniCourse_t6Mand_tEEC1B8ne180100IRS1_Li0ELi0ELi0ES1_Lm0ELi0EEEOT_
	.cfi_startproc
; %bb.0:
	sub	sp, sp, #48
	stp	x29, x30, [sp, #32]             ; 16-byte Folded Spill
	add	x29, sp, #32
	.cfi_def_cfa w29, 16
	.cfi_offset w30, -8
	.cfi_offset w29, -16
	stur	x0, [x29, #-8]
	str	x1, [sp, #16]
	ldur	x0, [x29, #-8]
	str	x0, [sp, #8]                    ; 8-byte Folded Spill
	ldr	x1, [sp, #16]
	bl	__ZNSt3__17variantIJ11uniCourse_t6Mand_tEEC2B8ne180100IRS1_Li0ELi0ELi0ES1_Lm0ELi0EEEOT_
	ldr	x0, [sp, #8]                    ; 8-byte Folded Reload
	ldp	x29, x30, [sp, #32]             ; 16-byte Folded Reload
	add	sp, sp, #48
	ret
	.cfi_endproc
                                        ; -- End function
	.private_extern	__ZNSt3__17variantIJ11uniCourse_t6Mand_tEED1B8ne180100Ev ; -- Begin function _ZNSt3__17variantIJ11uniCourse_t6Mand_tEED1B8ne180100Ev
	.globl	__ZNSt3__17variantIJ11uniCourse_t6Mand_tEED1B8ne180100Ev
	.weak_def_can_be_hidden	__ZNSt3__17variantIJ11uniCourse_t6Mand_tEED1B8ne180100Ev
	.p2align	2
__ZNSt3__17variantIJ11uniCourse_t6Mand_tEED1B8ne180100Ev: ; @_ZNSt3__17variantIJ11uniCourse_t6Mand_tEED1B8ne180100Ev
	.cfi_startproc
; %bb.0:
	sub	sp, sp, #32
	stp	x29, x30, [sp, #16]             ; 16-byte Folded Spill
	add	x29, sp, #16
	.cfi_def_cfa w29, 16
	.cfi_offset w30, -8
	.cfi_offset w29, -16
	str	x0, [sp, #8]
	ldr	x0, [sp, #8]
	str	x0, [sp]                        ; 8-byte Folded Spill
	bl	__ZNSt3__17variantIJ11uniCourse_t6Mand_tEED2B8ne180100Ev
	ldr	x0, [sp]                        ; 8-byte Folded Reload
	ldp	x29, x30, [sp, #16]             ; 16-byte Folded Reload
	add	sp, sp, #32
	ret
	.cfi_endproc
                                        ; -- End function
	.globl	__ZNSt3__17variantIJ11uniCourse_t6Mand_tEEC1B8ne180100IRS2_Li0ELi0ELi0ES2_Lm1ELi0EEEOT_ ; -- Begin function _ZNSt3__17variantIJ11uniCourse_t6Mand_tEEC1B8ne180100IRS2_Li0ELi0ELi0ES2_Lm1ELi0EEEOT_
	.weak_def_can_be_hidden	__ZNSt3__17variantIJ11uniCourse_t6Mand_tEEC1B8ne180100IRS2_Li0ELi0ELi0ES2_Lm1ELi0EEEOT_
	.p2align	2
__ZNSt3__17variantIJ11uniCourse_t6Mand_tEEC1B8ne180100IRS2_Li0ELi0ELi0ES2_Lm1ELi0EEEOT_: ; @_ZNSt3__17variantIJ11uniCourse_t6Mand_tEEC1B8ne180100IRS2_Li0ELi0ELi0ES2_Lm1ELi0EEEOT_
	.cfi_startproc
; %bb.0:
	sub	sp, sp, #48
	stp	x29, x30, [sp, #32]             ; 16-byte Folded Spill
	add	x29, sp, #32
	.cfi_def_cfa w29, 16
	.cfi_offset w30, -8
	.cfi_offset w29, -16
	stur	x0, [x29, #-8]
	str	x1, [sp, #16]
	ldur	x0, [x29, #-8]
	str	x0, [sp, #8]                    ; 8-byte Folded Spill
	ldr	x1, [sp, #16]
	bl	__ZNSt3__17variantIJ11uniCourse_t6Mand_tEEC2B8ne180100IRS2_Li0ELi0ELi0ES2_Lm1ELi0EEEOT_
	ldr	x0, [sp, #8]                    ; 8-byte Folded Reload
	ldp	x29, x30, [sp, #32]             ; 16-byte Folded Reload
	add	sp, sp, #48
	ret
	.cfi_endproc
                                        ; -- End function
	.globl	__ZN7Sleep_tC1ERKS_             ; -- Begin function _ZN7Sleep_tC1ERKS_
	.weak_def_can_be_hidden	__ZN7Sleep_tC1ERKS_
	.p2align	2
__ZN7Sleep_tC1ERKS_:                    ; @_ZN7Sleep_tC1ERKS_
	.cfi_startproc
; %bb.0:
	sub	sp, sp, #48
	stp	x29, x30, [sp, #32]             ; 16-byte Folded Spill
	add	x29, sp, #32
	.cfi_def_cfa w29, 16
	.cfi_offset w30, -8
	.cfi_offset w29, -16
	stur	x0, [x29, #-8]
	str	x1, [sp, #16]
	ldur	x0, [x29, #-8]
	str	x0, [sp, #8]                    ; 8-byte Folded Spill
	ldr	x1, [sp, #16]
	bl	__ZN7Sleep_tC2ERKS_
	ldr	x0, [sp, #8]                    ; 8-byte Folded Reload
	ldp	x29, x30, [sp, #32]             ; 16-byte Folded Reload
	add	sp, sp, #48
	ret
	.cfi_endproc
                                        ; -- End function
	.globl	__ZNSt3__17variantIJ7Break_t6None_tEEC1B8ne180100IRS1_Li0ELi0ELi0ES1_Lm0ELi0EEEOT_ ; -- Begin function _ZNSt3__17variantIJ7Break_t6None_tEEC1B8ne180100IRS1_Li0ELi0ELi0ES1_Lm0ELi0EEEOT_
	.weak_def_can_be_hidden	__ZNSt3__17variantIJ7Break_t6None_tEEC1B8ne180100IRS1_Li0ELi0ELi0ES1_Lm0ELi0EEEOT_
	.p2align	2
__ZNSt3__17variantIJ7Break_t6None_tEEC1B8ne180100IRS1_Li0ELi0ELi0ES1_Lm0ELi0EEEOT_: ; @_ZNSt3__17variantIJ7Break_t6None_tEEC1B8ne180100IRS1_Li0ELi0ELi0ES1_Lm0ELi0EEEOT_
	.cfi_startproc
; %bb.0:
	sub	sp, sp, #48
	stp	x29, x30, [sp, #32]             ; 16-byte Folded Spill
	add	x29, sp, #32
	.cfi_def_cfa w29, 16
	.cfi_offset w30, -8
	.cfi_offset w29, -16
	stur	x0, [x29, #-8]
	str	x1, [sp, #16]
	ldur	x0, [x29, #-8]
	str	x0, [sp, #8]                    ; 8-byte Folded Spill
	ldr	x1, [sp, #16]
	bl	__ZNSt3__17variantIJ7Break_t6None_tEEC2B8ne180100IRS1_Li0ELi0ELi0ES1_Lm0ELi0EEEOT_
	ldr	x0, [sp, #8]                    ; 8-byte Folded Reload
	ldp	x29, x30, [sp, #32]             ; 16-byte Folded Reload
	add	sp, sp, #48
	ret
	.cfi_endproc
                                        ; -- End function
	.globl	__ZNSt3__17variantIJ7Break_t6None_tEEC1B8ne180100IRS2_Li0ELi0ELi0ES2_Lm1ELi0EEEOT_ ; -- Begin function _ZNSt3__17variantIJ7Break_t6None_tEEC1B8ne180100IRS2_Li0ELi0ELi0ES2_Lm1ELi0EEEOT_
	.weak_def_can_be_hidden	__ZNSt3__17variantIJ7Break_t6None_tEEC1B8ne180100IRS2_Li0ELi0ELi0ES2_Lm1ELi0EEEOT_
	.p2align	2
__ZNSt3__17variantIJ7Break_t6None_tEEC1B8ne180100IRS2_Li0ELi0ELi0ES2_Lm1ELi0EEEOT_: ; @_ZNSt3__17variantIJ7Break_t6None_tEEC1B8ne180100IRS2_Li0ELi0ELi0ES2_Lm1ELi0EEEOT_
	.cfi_startproc
; %bb.0:
	sub	sp, sp, #48
	stp	x29, x30, [sp, #32]             ; 16-byte Folded Spill
	add	x29, sp, #32
	.cfi_def_cfa w29, 16
	.cfi_offset w30, -8
	.cfi_offset w29, -16
	stur	x0, [x29, #-8]
	str	x1, [sp, #16]
	ldur	x0, [x29, #-8]
	str	x0, [sp, #8]                    ; 8-byte Folded Spill
	ldr	x1, [sp, #16]
	bl	__ZNSt3__17variantIJ7Break_t6None_tEEC2B8ne180100IRS2_Li0ELi0ELi0ES2_Lm1ELi0EEEOT_
	ldr	x0, [sp, #8]                    ; 8-byte Folded Reload
	ldp	x29, x30, [sp, #32]             ; 16-byte Folded Reload
	add	sp, sp, #48
	ret
	.cfi_endproc
                                        ; -- End function
	.globl	__ZN4WORKC1ERKS_                ; -- Begin function _ZN4WORKC1ERKS_
	.weak_def_can_be_hidden	__ZN4WORKC1ERKS_
	.p2align	2
__ZN4WORKC1ERKS_:                       ; @_ZN4WORKC1ERKS_
	.cfi_startproc
; %bb.0:
	sub	sp, sp, #48
	stp	x29, x30, [sp, #32]             ; 16-byte Folded Spill
	add	x29, sp, #32
	.cfi_def_cfa w29, 16
	.cfi_offset w30, -8
	.cfi_offset w29, -16
	stur	x0, [x29, #-8]
	str	x1, [sp, #16]
	ldur	x0, [x29, #-8]
	str	x0, [sp, #8]                    ; 8-byte Folded Spill
	ldr	x1, [sp, #16]
	bl	__ZN4WORKC2ERKS_
	ldr	x0, [sp, #8]                    ; 8-byte Folded Reload
	ldp	x29, x30, [sp, #32]             ; 16-byte Folded Reload
	add	sp, sp, #48
	ret
	.cfi_endproc
                                        ; -- End function
	.globl	__ZN10Activity_tC1I4WORKEET_hh  ; -- Begin function _ZN10Activity_tC1I4WORKEET_hh
	.weak_def_can_be_hidden	__ZN10Activity_tC1I4WORKEET_hh
	.p2align	2
__ZN10Activity_tC1I4WORKEET_hh:         ; @_ZN10Activity_tC1I4WORKEET_hh
	.cfi_startproc
; %bb.0:
	sub	sp, sp, #48
	stp	x29, x30, [sp, #32]             ; 16-byte Folded Spill
	add	x29, sp, #32
	.cfi_def_cfa w29, 16
	.cfi_offset w30, -8
	.cfi_offset w29, -16
	stur	x0, [x29, #-8]
	mov	x8, x1
	str	x8, [sp, #16]
	strb	w2, [sp, #15]
	strb	w3, [sp, #14]
	ldur	x0, [x29, #-8]
	str	x0, [sp]                        ; 8-byte Folded Spill
	ldrb	w2, [sp, #15]
	ldrb	w3, [sp, #14]
	bl	__ZN10Activity_tC2I4WORKEET_hh
	ldr	x0, [sp]                        ; 8-byte Folded Reload
	ldp	x29, x30, [sp, #32]             ; 16-byte Folded Reload
	add	sp, sp, #48
	ret
	.cfi_endproc
                                        ; -- End function
	.globl	__ZN4WORKD1Ev                   ; -- Begin function _ZN4WORKD1Ev
	.weak_def_can_be_hidden	__ZN4WORKD1Ev
	.p2align	2
__ZN4WORKD1Ev:                          ; @_ZN4WORKD1Ev
	.cfi_startproc
; %bb.0:
	sub	sp, sp, #32
	stp	x29, x30, [sp, #16]             ; 16-byte Folded Spill
	add	x29, sp, #16
	.cfi_def_cfa w29, 16
	.cfi_offset w30, -8
	.cfi_offset w29, -16
	str	x0, [sp, #8]
	ldr	x0, [sp, #8]
	str	x0, [sp]                        ; 8-byte Folded Spill
	bl	__ZN4WORKD2Ev
	ldr	x0, [sp]                        ; 8-byte Folded Reload
	ldp	x29, x30, [sp, #16]             ; 16-byte Folded Reload
	add	sp, sp, #32
	ret
	.cfi_endproc
                                        ; -- End function
	.globl	__ZN5SLEEPC1ERKS_               ; -- Begin function _ZN5SLEEPC1ERKS_
	.weak_def_can_be_hidden	__ZN5SLEEPC1ERKS_
	.p2align	2
__ZN5SLEEPC1ERKS_:                      ; @_ZN5SLEEPC1ERKS_
	.cfi_startproc
; %bb.0:
	sub	sp, sp, #48
	stp	x29, x30, [sp, #32]             ; 16-byte Folded Spill
	add	x29, sp, #32
	.cfi_def_cfa w29, 16
	.cfi_offset w30, -8
	.cfi_offset w29, -16
	stur	x0, [x29, #-8]
	str	x1, [sp, #16]
	ldur	x0, [x29, #-8]
	str	x0, [sp, #8]                    ; 8-byte Folded Spill
	ldr	x1, [sp, #16]
	bl	__ZN5SLEEPC2ERKS_
	ldr	x0, [sp, #8]                    ; 8-byte Folded Reload
	ldp	x29, x30, [sp, #32]             ; 16-byte Folded Reload
	add	sp, sp, #48
	ret
	.cfi_endproc
                                        ; -- End function
	.globl	__ZN10Activity_tC1I5SLEEPEET_hh ; -- Begin function _ZN10Activity_tC1I5SLEEPEET_hh
	.weak_def_can_be_hidden	__ZN10Activity_tC1I5SLEEPEET_hh
	.p2align	2
__ZN10Activity_tC1I5SLEEPEET_hh:        ; @_ZN10Activity_tC1I5SLEEPEET_hh
	.cfi_startproc
; %bb.0:
	sub	sp, sp, #48
	stp	x29, x30, [sp, #32]             ; 16-byte Folded Spill
	add	x29, sp, #32
	.cfi_def_cfa w29, 16
	.cfi_offset w30, -8
	.cfi_offset w29, -16
	stur	x0, [x29, #-8]
	mov	x8, x1
	str	x8, [sp, #16]
	strb	w2, [sp, #15]
	strb	w3, [sp, #14]
	ldur	x0, [x29, #-8]
	str	x0, [sp]                        ; 8-byte Folded Spill
	ldrb	w2, [sp, #15]
	ldrb	w3, [sp, #14]
	bl	__ZN10Activity_tC2I5SLEEPEET_hh
	ldr	x0, [sp]                        ; 8-byte Folded Reload
	ldp	x29, x30, [sp, #32]             ; 16-byte Folded Reload
	add	sp, sp, #48
	ret
	.cfi_endproc
                                        ; -- End function
	.globl	__ZN5SLEEPD1Ev                  ; -- Begin function _ZN5SLEEPD1Ev
	.weak_def_can_be_hidden	__ZN5SLEEPD1Ev
	.p2align	2
__ZN5SLEEPD1Ev:                         ; @_ZN5SLEEPD1Ev
	.cfi_startproc
; %bb.0:
	sub	sp, sp, #32
	stp	x29, x30, [sp, #16]             ; 16-byte Folded Spill
	add	x29, sp, #16
	.cfi_def_cfa w29, 16
	.cfi_offset w30, -8
	.cfi_offset w29, -16
	str	x0, [sp, #8]
	ldr	x0, [sp, #8]
	str	x0, [sp]                        ; 8-byte Folded Spill
	bl	__ZN5SLEEPD2Ev
	ldr	x0, [sp]                        ; 8-byte Folded Reload
	ldp	x29, x30, [sp, #16]             ; 16-byte Folded Reload
	add	sp, sp, #32
	ret
	.cfi_endproc
                                        ; -- End function
	.globl	__ZN4FREEC1ERKS_                ; -- Begin function _ZN4FREEC1ERKS_
	.weak_def_can_be_hidden	__ZN4FREEC1ERKS_
	.p2align	2
__ZN4FREEC1ERKS_:                       ; @_ZN4FREEC1ERKS_
	.cfi_startproc
; %bb.0:
	sub	sp, sp, #48
	stp	x29, x30, [sp, #32]             ; 16-byte Folded Spill
	add	x29, sp, #32
	.cfi_def_cfa w29, 16
	.cfi_offset w30, -8
	.cfi_offset w29, -16
	stur	x0, [x29, #-8]
	str	x1, [sp, #16]
	ldur	x0, [x29, #-8]
	str	x0, [sp, #8]                    ; 8-byte Folded Spill
	ldr	x1, [sp, #16]
	bl	__ZN4FREEC2ERKS_
	ldr	x0, [sp, #8]                    ; 8-byte Folded Reload
	ldp	x29, x30, [sp, #32]             ; 16-byte Folded Reload
	add	sp, sp, #48
	ret
	.cfi_endproc
                                        ; -- End function
	.globl	__ZN10Activity_tD1Ev            ; -- Begin function _ZN10Activity_tD1Ev
	.weak_def_can_be_hidden	__ZN10Activity_tD1Ev
	.p2align	2
__ZN10Activity_tD1Ev:                   ; @_ZN10Activity_tD1Ev
	.cfi_startproc
; %bb.0:
	sub	sp, sp, #32
	stp	x29, x30, [sp, #16]             ; 16-byte Folded Spill
	add	x29, sp, #16
	.cfi_def_cfa w29, 16
	.cfi_offset w30, -8
	.cfi_offset w29, -16
	str	x0, [sp, #8]
	ldr	x0, [sp, #8]
	str	x0, [sp]                        ; 8-byte Folded Spill
	bl	__ZN10Activity_tD2Ev
	ldr	x0, [sp]                        ; 8-byte Folded Reload
	ldp	x29, x30, [sp, #16]             ; 16-byte Folded Reload
	add	sp, sp, #32
	ret
	.cfi_endproc
                                        ; -- End function
	.globl	__ZN7Break_tD1Ev                ; -- Begin function _ZN7Break_tD1Ev
	.weak_def_can_be_hidden	__ZN7Break_tD1Ev
	.p2align	2
__ZN7Break_tD1Ev:                       ; @_ZN7Break_tD1Ev
	.cfi_startproc
; %bb.0:
	sub	sp, sp, #32
	stp	x29, x30, [sp, #16]             ; 16-byte Folded Spill
	add	x29, sp, #16
	.cfi_def_cfa w29, 16
	.cfi_offset w30, -8
	.cfi_offset w29, -16
	str	x0, [sp, #8]
	ldr	x0, [sp, #8]
	str	x0, [sp]                        ; 8-byte Folded Spill
	bl	__ZN7Break_tD2Ev
	ldr	x0, [sp]                        ; 8-byte Folded Reload
	ldp	x29, x30, [sp, #16]             ; 16-byte Folded Reload
	add	sp, sp, #32
	ret
	.cfi_endproc
                                        ; -- End function
	.globl	__ZN7Sleep_tD1Ev                ; -- Begin function _ZN7Sleep_tD1Ev
	.weak_def_can_be_hidden	__ZN7Sleep_tD1Ev
	.p2align	2
__ZN7Sleep_tD1Ev:                       ; @_ZN7Sleep_tD1Ev
	.cfi_startproc
; %bb.0:
	sub	sp, sp, #32
	stp	x29, x30, [sp, #16]             ; 16-byte Folded Spill
	add	x29, sp, #16
	.cfi_def_cfa w29, 16
	.cfi_offset w30, -8
	.cfi_offset w29, -16
	str	x0, [sp, #8]
	ldr	x0, [sp, #8]
	str	x0, [sp]                        ; 8-byte Folded Spill
	bl	__ZN7Sleep_tD2Ev
	ldr	x0, [sp]                        ; 8-byte Folded Reload
	ldp	x29, x30, [sp, #16]             ; 16-byte Folded Reload
	add	sp, sp, #32
	ret
	.cfi_endproc
                                        ; -- End function
	.globl	__ZN6Mand_tD1Ev                 ; -- Begin function _ZN6Mand_tD1Ev
	.weak_def_can_be_hidden	__ZN6Mand_tD1Ev
	.p2align	2
__ZN6Mand_tD1Ev:                        ; @_ZN6Mand_tD1Ev
	.cfi_startproc
; %bb.0:
	sub	sp, sp, #32
	stp	x29, x30, [sp, #16]             ; 16-byte Folded Spill
	add	x29, sp, #16
	.cfi_def_cfa w29, 16
	.cfi_offset w30, -8
	.cfi_offset w29, -16
	str	x0, [sp, #8]
	ldr	x0, [sp, #8]
	str	x0, [sp]                        ; 8-byte Folded Spill
	bl	__ZN6Mand_tD2Ev
	ldr	x0, [sp]                        ; 8-byte Folded Reload
	ldp	x29, x30, [sp, #16]             ; 16-byte Folded Reload
	add	sp, sp, #32
	ret
	.cfi_endproc
                                        ; -- End function
	.globl	__ZN11uniCourse_tD1Ev           ; -- Begin function _ZN11uniCourse_tD1Ev
	.weak_def_can_be_hidden	__ZN11uniCourse_tD1Ev
	.p2align	2
__ZN11uniCourse_tD1Ev:                  ; @_ZN11uniCourse_tD1Ev
	.cfi_startproc
; %bb.0:
	sub	sp, sp, #32
	stp	x29, x30, [sp, #16]             ; 16-byte Folded Spill
	add	x29, sp, #16
	.cfi_def_cfa w29, 16
	.cfi_offset w30, -8
	.cfi_offset w29, -16
	str	x0, [sp, #8]
	ldr	x0, [sp, #8]
	str	x0, [sp]                        ; 8-byte Folded Spill
	bl	__ZN11uniCourse_tD2Ev
	ldr	x0, [sp]                        ; 8-byte Folded Reload
	ldp	x29, x30, [sp, #16]             ; 16-byte Folded Reload
	add	sp, sp, #32
	ret
	.cfi_endproc
                                        ; -- End function
	.globl	__ZN6StringD1Ev                 ; -- Begin function _ZN6StringD1Ev
	.weak_def_can_be_hidden	__ZN6StringD1Ev
	.p2align	2
__ZN6StringD1Ev:                        ; @_ZN6StringD1Ev
	.cfi_startproc
; %bb.0:
	sub	sp, sp, #32
	stp	x29, x30, [sp, #16]             ; 16-byte Folded Spill
	add	x29, sp, #16
	.cfi_def_cfa w29, 16
	.cfi_offset w30, -8
	.cfi_offset w29, -16
	str	x0, [sp, #8]
	ldr	x0, [sp, #8]
	str	x0, [sp]                        ; 8-byte Folded Spill
	bl	__ZN6StringD2Ev
	ldr	x0, [sp]                        ; 8-byte Folded Reload
	ldp	x29, x30, [sp, #16]             ; 16-byte Folded Reload
	add	sp, sp, #32
	ret
	.cfi_endproc
                                        ; -- End function
	.private_extern	__ZNSt3__119__holds_alternativeB8ne180100ILm0EJ4WORK5SLEEP4FREEEEEbRKNS_7variantIJDpT0_EEE ; -- Begin function _ZNSt3__119__holds_alternativeB8ne180100ILm0EJ4WORK5SLEEP4FREEEEEbRKNS_7variantIJDpT0_EEE
	.globl	__ZNSt3__119__holds_alternativeB8ne180100ILm0EJ4WORK5SLEEP4FREEEEEbRKNS_7variantIJDpT0_EEE
	.weak_definition	__ZNSt3__119__holds_alternativeB8ne180100ILm0EJ4WORK5SLEEP4FREEEEEbRKNS_7variantIJDpT0_EEE
	.p2align	2
__ZNSt3__119__holds_alternativeB8ne180100ILm0EJ4WORK5SLEEP4FREEEEEbRKNS_7variantIJDpT0_EEE: ; @_ZNSt3__119__holds_alternativeB8ne180100ILm0EJ4WORK5SLEEP4FREEEEEbRKNS_7variantIJDpT0_EEE
	.cfi_startproc
; %bb.0:
	sub	sp, sp, #32
	stp	x29, x30, [sp, #16]             ; 16-byte Folded Spill
	add	x29, sp, #16
	.cfi_def_cfa w29, 16
	.cfi_offset w30, -8
	.cfi_offset w29, -16
	str	x0, [sp, #8]
	ldr	x0, [sp, #8]
	bl	__ZNKSt3__17variantIJ4WORK5SLEEP4FREEEE5indexB8ne180100Ev
	subs	x8, x0, #0
	cset	w8, eq
	and	w0, w8, #0x1
	ldp	x29, x30, [sp, #16]             ; 16-byte Folded Reload
	add	sp, sp, #32
	ret
	.cfi_endproc
                                        ; -- End function
	.private_extern	__ZNKSt3__17variantIJ4WORK5SLEEP4FREEEE5indexB8ne180100Ev ; -- Begin function _ZNKSt3__17variantIJ4WORK5SLEEP4FREEEE5indexB8ne180100Ev
	.globl	__ZNKSt3__17variantIJ4WORK5SLEEP4FREEEE5indexB8ne180100Ev
	.weak_definition	__ZNKSt3__17variantIJ4WORK5SLEEP4FREEEE5indexB8ne180100Ev
	.p2align	2
__ZNKSt3__17variantIJ4WORK5SLEEP4FREEEE5indexB8ne180100Ev: ; @_ZNKSt3__17variantIJ4WORK5SLEEP4FREEEE5indexB8ne180100Ev
	.cfi_startproc
; %bb.0:
	sub	sp, sp, #32
	stp	x29, x30, [sp, #16]             ; 16-byte Folded Spill
	add	x29, sp, #16
	.cfi_def_cfa w29, 16
	.cfi_offset w30, -8
	.cfi_offset w29, -16
	str	x0, [sp, #8]
	ldr	x8, [sp, #8]
	add	x0, x8, #8
	bl	__ZNKSt3__116__variant_detail6__baseILNS0_6_TraitE1EJ4WORK5SLEEP4FREEEE5indexB8ne180100Ev
	ldp	x29, x30, [sp, #16]             ; 16-byte Folded Reload
	add	sp, sp, #32
	ret
	.cfi_endproc
                                        ; -- End function
	.private_extern	__ZNKSt3__116__variant_detail6__baseILNS0_6_TraitE1EJ4WORK5SLEEP4FREEEE5indexB8ne180100Ev ; -- Begin function _ZNKSt3__116__variant_detail6__baseILNS0_6_TraitE1EJ4WORK5SLEEP4FREEEE5indexB8ne180100Ev
	.globl	__ZNKSt3__116__variant_detail6__baseILNS0_6_TraitE1EJ4WORK5SLEEP4FREEEE5indexB8ne180100Ev
	.weak_definition	__ZNKSt3__116__variant_detail6__baseILNS0_6_TraitE1EJ4WORK5SLEEP4FREEEE5indexB8ne180100Ev
	.p2align	2
__ZNKSt3__116__variant_detail6__baseILNS0_6_TraitE1EJ4WORK5SLEEP4FREEEE5indexB8ne180100Ev: ; @_ZNKSt3__116__variant_detail6__baseILNS0_6_TraitE1EJ4WORK5SLEEP4FREEEE5indexB8ne180100Ev
	.cfi_startproc
; %bb.0:
	sub	sp, sp, #32
	.cfi_def_cfa_offset 32
	str	x0, [sp, #24]
	ldr	x8, [sp, #24]
	str	x8, [sp, #16]                   ; 8-byte Folded Spill
	ldr	w8, [x8, #80]
	adds	w8, w8, #1
	cset	w8, ne
	tbnz	w8, #0, LBB110_2
	b	LBB110_1
LBB110_1:
	mov	x8, #-1                         ; =0xffffffffffffffff
	str	x8, [sp, #8]                    ; 8-byte Folded Spill
	b	LBB110_3
LBB110_2:
	ldr	x8, [sp, #16]                   ; 8-byte Folded Reload
	ldr	w8, [x8, #80]
                                        ; kill: def $x8 killed $w8
	str	x8, [sp, #8]                    ; 8-byte Folded Spill
	b	LBB110_3
LBB110_3:
	ldr	x0, [sp, #8]                    ; 8-byte Folded Reload
	add	sp, sp, #32
	ret
	.cfi_endproc
                                        ; -- End function
	.private_extern	__ZNSt3__13getB8ne180100ILm0EJ4WORK5SLEEP4FREEEEERKNS_19variant_alternativeIXT_ENS_7variantIJDpT0_EEEE4typeERKS8_ ; -- Begin function _ZNSt3__13getB8ne180100ILm0EJ4WORK5SLEEP4FREEEEERKNS_19variant_alternativeIXT_ENS_7variantIJDpT0_EEEE4typeERKS8_
	.globl	__ZNSt3__13getB8ne180100ILm0EJ4WORK5SLEEP4FREEEEERKNS_19variant_alternativeIXT_ENS_7variantIJDpT0_EEEE4typeERKS8_
	.weak_definition	__ZNSt3__13getB8ne180100ILm0EJ4WORK5SLEEP4FREEEEERKNS_19variant_alternativeIXT_ENS_7variantIJDpT0_EEEE4typeERKS8_
	.p2align	2
__ZNSt3__13getB8ne180100ILm0EJ4WORK5SLEEP4FREEEEERKNS_19variant_alternativeIXT_ENS_7variantIJDpT0_EEEE4typeERKS8_: ; @_ZNSt3__13getB8ne180100ILm0EJ4WORK5SLEEP4FREEEEERKNS_19variant_alternativeIXT_ENS_7variantIJDpT0_EEEE4typeERKS8_
	.cfi_startproc
; %bb.0:
	sub	sp, sp, #32
	stp	x29, x30, [sp, #16]             ; 16-byte Folded Spill
	add	x29, sp, #16
	.cfi_def_cfa w29, 16
	.cfi_offset w30, -8
	.cfi_offset w29, -16
	str	x0, [sp, #8]
	ldr	x0, [sp, #8]
	bl	__ZNSt3__113__generic_getB8ne180100ILm0ERKNS_7variantIJ4WORK5SLEEP4FREEEEEEEODaOT0_
	ldp	x29, x30, [sp, #16]             ; 16-byte Folded Reload
	add	sp, sp, #32
	ret
	.cfi_endproc
                                        ; -- End function
	.private_extern	__ZNSt3__113__generic_getB8ne180100ILm0ERKNS_7variantIJ4WORK5SLEEP4FREEEEEEEODaOT0_ ; -- Begin function _ZNSt3__113__generic_getB8ne180100ILm0ERKNS_7variantIJ4WORK5SLEEP4FREEEEEEEODaOT0_
	.globl	__ZNSt3__113__generic_getB8ne180100ILm0ERKNS_7variantIJ4WORK5SLEEP4FREEEEEEEODaOT0_
	.weak_definition	__ZNSt3__113__generic_getB8ne180100ILm0ERKNS_7variantIJ4WORK5SLEEP4FREEEEEEEODaOT0_
	.p2align	2
__ZNSt3__113__generic_getB8ne180100ILm0ERKNS_7variantIJ4WORK5SLEEP4FREEEEEEEODaOT0_: ; @_ZNSt3__113__generic_getB8ne180100ILm0ERKNS_7variantIJ4WORK5SLEEP4FREEEEEEEODaOT0_
	.cfi_startproc
; %bb.0:
	sub	sp, sp, #32
	stp	x29, x30, [sp, #16]             ; 16-byte Folded Spill
	add	x29, sp, #16
	.cfi_def_cfa w29, 16
	.cfi_offset w30, -8
	.cfi_offset w29, -16
	str	x0, [sp, #8]
	ldr	x0, [sp, #8]
	bl	__ZNSt3__119__holds_alternativeB8ne180100ILm0EJ4WORK5SLEEP4FREEEEEbRKNS_7variantIJDpT0_EEE
	tbnz	w0, #0, LBB112_2
	b	LBB112_1
LBB112_1:
	bl	__ZNSt3__126__throw_bad_variant_accessB8ne180100Ev
LBB112_2:
	ldr	x0, [sp, #8]
	bl	__ZNSt3__116__variant_detail8__access9__variant9__get_altB8ne180100ILm0ERKNS_7variantIJ4WORK5SLEEP4FREEEEEEEODaOT0_
	ldp	x29, x30, [sp, #16]             ; 16-byte Folded Reload
	add	sp, sp, #32
	ret
	.cfi_endproc
                                        ; -- End function
	.private_extern	__ZNSt3__126__throw_bad_variant_accessB8ne180100Ev ; -- Begin function _ZNSt3__126__throw_bad_variant_accessB8ne180100Ev
	.globl	__ZNSt3__126__throw_bad_variant_accessB8ne180100Ev
	.weak_definition	__ZNSt3__126__throw_bad_variant_accessB8ne180100Ev
	.p2align	2
__ZNSt3__126__throw_bad_variant_accessB8ne180100Ev: ; @_ZNSt3__126__throw_bad_variant_accessB8ne180100Ev
	.cfi_startproc
; %bb.0:
	sub	sp, sp, #32
	stp	x29, x30, [sp, #16]             ; 16-byte Folded Spill
	add	x29, sp, #16
	.cfi_def_cfa w29, 16
	.cfi_offset w30, -8
	.cfi_offset w29, -16
	mov	x0, #8                          ; =0x8
	bl	___cxa_allocate_exception
	str	x0, [sp, #8]                    ; 8-byte Folded Spill
	str	xzr, [x0]
	bl	__ZNSt18bad_variant_accessC1Ev
	ldr	x0, [sp, #8]                    ; 8-byte Folded Reload
	adrp	x1, __ZTISt18bad_variant_access@GOTPAGE
	ldr	x1, [x1, __ZTISt18bad_variant_access@GOTPAGEOFF]
	adrp	x2, __ZNSt18bad_variant_accessD1Ev@GOTPAGE
	ldr	x2, [x2, __ZNSt18bad_variant_accessD1Ev@GOTPAGEOFF]
	bl	___cxa_throw
	.cfi_endproc
                                        ; -- End function
	.private_extern	__ZNSt3__116__variant_detail8__access9__variant9__get_altB8ne180100ILm0ERKNS_7variantIJ4WORK5SLEEP4FREEEEEEEODaOT0_ ; -- Begin function _ZNSt3__116__variant_detail8__access9__variant9__get_altB8ne180100ILm0ERKNS_7variantIJ4WORK5SLEEP4FREEEEEEEODaOT0_
	.globl	__ZNSt3__116__variant_detail8__access9__variant9__get_altB8ne180100ILm0ERKNS_7variantIJ4WORK5SLEEP4FREEEEEEEODaOT0_
	.weak_definition	__ZNSt3__116__variant_detail8__access9__variant9__get_altB8ne180100ILm0ERKNS_7variantIJ4WORK5SLEEP4FREEEEEEEODaOT0_
	.p2align	2
__ZNSt3__116__variant_detail8__access9__variant9__get_altB8ne180100ILm0ERKNS_7variantIJ4WORK5SLEEP4FREEEEEEEODaOT0_: ; @_ZNSt3__116__variant_detail8__access9__variant9__get_altB8ne180100ILm0ERKNS_7variantIJ4WORK5SLEEP4FREEEEEEEODaOT0_
	.cfi_startproc
; %bb.0:
	sub	sp, sp, #32
	stp	x29, x30, [sp, #16]             ; 16-byte Folded Spill
	add	x29, sp, #16
	.cfi_def_cfa w29, 16
	.cfi_offset w30, -8
	.cfi_offset w29, -16
	str	x0, [sp, #8]
	ldr	x8, [sp, #8]
	add	x0, x8, #8
	bl	__ZNSt3__116__variant_detail8__access6__base9__get_altB8ne180100ILm0ERKNS0_6__implIJ4WORK5SLEEP4FREEEEEEEODaOT0_
	ldp	x29, x30, [sp, #16]             ; 16-byte Folded Reload
	add	sp, sp, #32
	ret
	.cfi_endproc
                                        ; -- End function
	.globl	__ZNSt18bad_variant_accessC1Ev  ; -- Begin function _ZNSt18bad_variant_accessC1Ev
	.weak_def_can_be_hidden	__ZNSt18bad_variant_accessC1Ev
	.p2align	2
__ZNSt18bad_variant_accessC1Ev:         ; @_ZNSt18bad_variant_accessC1Ev
	.cfi_startproc
; %bb.0:
	sub	sp, sp, #32
	stp	x29, x30, [sp, #16]             ; 16-byte Folded Spill
	add	x29, sp, #16
	.cfi_def_cfa w29, 16
	.cfi_offset w30, -8
	.cfi_offset w29, -16
	str	x0, [sp, #8]
	ldr	x0, [sp, #8]
	str	x0, [sp]                        ; 8-byte Folded Spill
	bl	__ZNSt18bad_variant_accessC2Ev
	ldr	x0, [sp]                        ; 8-byte Folded Reload
	ldp	x29, x30, [sp, #16]             ; 16-byte Folded Reload
	add	sp, sp, #32
	ret
	.cfi_endproc
                                        ; -- End function
	.globl	__ZNSt18bad_variant_accessD1Ev  ; -- Begin function _ZNSt18bad_variant_accessD1Ev
	.weak_def_can_be_hidden	__ZNSt18bad_variant_accessD1Ev
	.p2align	2
__ZNSt18bad_variant_accessD1Ev:         ; @_ZNSt18bad_variant_accessD1Ev
	.cfi_startproc
; %bb.0:
	sub	sp, sp, #32
	stp	x29, x30, [sp, #16]             ; 16-byte Folded Spill
	add	x29, sp, #16
	.cfi_def_cfa w29, 16
	.cfi_offset w30, -8
	.cfi_offset w29, -16
	str	x0, [sp, #8]
	ldr	x0, [sp, #8]
	str	x0, [sp]                        ; 8-byte Folded Spill
	bl	__ZNSt18bad_variant_accessD2Ev
	ldr	x0, [sp]                        ; 8-byte Folded Reload
	ldp	x29, x30, [sp, #16]             ; 16-byte Folded Reload
	add	sp, sp, #32
	ret
	.cfi_endproc
                                        ; -- End function
	.globl	__ZNSt18bad_variant_accessC2Ev  ; -- Begin function _ZNSt18bad_variant_accessC2Ev
	.weak_def_can_be_hidden	__ZNSt18bad_variant_accessC2Ev
	.p2align	2
__ZNSt18bad_variant_accessC2Ev:         ; @_ZNSt18bad_variant_accessC2Ev
	.cfi_startproc
; %bb.0:
	sub	sp, sp, #32
	stp	x29, x30, [sp, #16]             ; 16-byte Folded Spill
	add	x29, sp, #16
	.cfi_def_cfa w29, 16
	.cfi_offset w30, -8
	.cfi_offset w29, -16
	str	x0, [sp, #8]
	ldr	x0, [sp, #8]
	str	x0, [sp]                        ; 8-byte Folded Spill
	bl	__ZNSt9exceptionC2B8ne180100Ev
	ldr	x0, [sp]                        ; 8-byte Folded Reload
	adrp	x8, __ZTVSt18bad_variant_access@GOTPAGE
	ldr	x8, [x8, __ZTVSt18bad_variant_access@GOTPAGEOFF]
	add	x8, x8, #16
	str	x8, [x0]
	ldp	x29, x30, [sp, #16]             ; 16-byte Folded Reload
	add	sp, sp, #32
	ret
	.cfi_endproc
                                        ; -- End function
	.private_extern	__ZNSt9exceptionC2B8ne180100Ev ; -- Begin function _ZNSt9exceptionC2B8ne180100Ev
	.globl	__ZNSt9exceptionC2B8ne180100Ev
	.weak_def_can_be_hidden	__ZNSt9exceptionC2B8ne180100Ev
	.p2align	2
__ZNSt9exceptionC2B8ne180100Ev:         ; @_ZNSt9exceptionC2B8ne180100Ev
	.cfi_startproc
; %bb.0:
	sub	sp, sp, #16
	.cfi_def_cfa_offset 16
	str	x0, [sp, #8]
	ldr	x0, [sp, #8]
	adrp	x8, __ZTVSt9exception@GOTPAGE
	ldr	x8, [x8, __ZTVSt9exception@GOTPAGEOFF]
	add	x8, x8, #16
	str	x8, [x0]
	add	sp, sp, #16
	ret
	.cfi_endproc
                                        ; -- End function
	.globl	__ZNSt18bad_variant_accessD2Ev  ; -- Begin function _ZNSt18bad_variant_accessD2Ev
	.weak_def_can_be_hidden	__ZNSt18bad_variant_accessD2Ev
	.p2align	2
__ZNSt18bad_variant_accessD2Ev:         ; @_ZNSt18bad_variant_accessD2Ev
	.cfi_startproc
; %bb.0:
	sub	sp, sp, #32
	stp	x29, x30, [sp, #16]             ; 16-byte Folded Spill
	add	x29, sp, #16
	.cfi_def_cfa w29, 16
	.cfi_offset w30, -8
	.cfi_offset w29, -16
	str	x0, [sp, #8]
	ldr	x0, [sp, #8]
	str	x0, [sp]                        ; 8-byte Folded Spill
	bl	__ZNSt9exceptionD2Ev
	ldr	x0, [sp]                        ; 8-byte Folded Reload
	ldp	x29, x30, [sp, #16]             ; 16-byte Folded Reload
	add	sp, sp, #32
	ret
	.cfi_endproc
                                        ; -- End function
	.private_extern	__ZNSt3__116__variant_detail8__access6__base9__get_altB8ne180100ILm0ERKNS0_6__implIJ4WORK5SLEEP4FREEEEEEEODaOT0_ ; -- Begin function _ZNSt3__116__variant_detail8__access6__base9__get_altB8ne180100ILm0ERKNS0_6__implIJ4WORK5SLEEP4FREEEEEEEODaOT0_
	.globl	__ZNSt3__116__variant_detail8__access6__base9__get_altB8ne180100ILm0ERKNS0_6__implIJ4WORK5SLEEP4FREEEEEEEODaOT0_
	.weak_definition	__ZNSt3__116__variant_detail8__access6__base9__get_altB8ne180100ILm0ERKNS0_6__implIJ4WORK5SLEEP4FREEEEEEEODaOT0_
	.p2align	2
__ZNSt3__116__variant_detail8__access6__base9__get_altB8ne180100ILm0ERKNS0_6__implIJ4WORK5SLEEP4FREEEEEEEODaOT0_: ; @_ZNSt3__116__variant_detail8__access6__base9__get_altB8ne180100ILm0ERKNS0_6__implIJ4WORK5SLEEP4FREEEEEEEODaOT0_
	.cfi_startproc
; %bb.0:
	sub	sp, sp, #32
	stp	x29, x30, [sp, #16]             ; 16-byte Folded Spill
	add	x29, sp, #16
	.cfi_def_cfa w29, 16
	.cfi_offset w30, -8
	.cfi_offset w29, -16
	str	x0, [sp, #8]
	ldr	x0, [sp, #8]
	bl	__ZNSt3__116__variant_detail8__access7__union9__get_altB8ne180100IRKNS0_7__unionILNS0_6_TraitE1ELm0EJ4WORK5SLEEP4FREEEEEEEODaOT_NS_16in_place_index_tILm0EEE
	ldp	x29, x30, [sp, #16]             ; 16-byte Folded Reload
	add	sp, sp, #32
	ret
	.cfi_endproc
                                        ; -- End function
	.private_extern	__ZNSt3__116__variant_detail8__access7__union9__get_altB8ne180100IRKNS0_7__unionILNS0_6_TraitE1ELm0EJ4WORK5SLEEP4FREEEEEEEODaOT_NS_16in_place_index_tILm0EEE ; -- Begin function _ZNSt3__116__variant_detail8__access7__union9__get_altB8ne180100IRKNS0_7__unionILNS0_6_TraitE1ELm0EJ4WORK5SLEEP4FREEEEEEEODaOT_NS_16in_place_index_tILm0EEE
	.globl	__ZNSt3__116__variant_detail8__access7__union9__get_altB8ne180100IRKNS0_7__unionILNS0_6_TraitE1ELm0EJ4WORK5SLEEP4FREEEEEEEODaOT_NS_16in_place_index_tILm0EEE
	.weak_definition	__ZNSt3__116__variant_detail8__access7__union9__get_altB8ne180100IRKNS0_7__unionILNS0_6_TraitE1ELm0EJ4WORK5SLEEP4FREEEEEEEODaOT_NS_16in_place_index_tILm0EEE
	.p2align	2
__ZNSt3__116__variant_detail8__access7__union9__get_altB8ne180100IRKNS0_7__unionILNS0_6_TraitE1ELm0EJ4WORK5SLEEP4FREEEEEEEODaOT_NS_16in_place_index_tILm0EEE: ; @_ZNSt3__116__variant_detail8__access7__union9__get_altB8ne180100IRKNS0_7__unionILNS0_6_TraitE1ELm0EJ4WORK5SLEEP4FREEEEEEEODaOT_NS_16in_place_index_tILm0EEE
	.cfi_startproc
; %bb.0:
	sub	sp, sp, #16
	.cfi_def_cfa_offset 16
	str	x0, [sp]
	ldr	x0, [sp]
	add	sp, sp, #16
	ret
	.cfi_endproc
                                        ; -- End function
	.private_extern	__ZNSt3__119__holds_alternativeB8ne180100ILm0EJ11uniCourse_t6Mand_tEEEbRKNS_7variantIJDpT0_EEE ; -- Begin function _ZNSt3__119__holds_alternativeB8ne180100ILm0EJ11uniCourse_t6Mand_tEEEbRKNS_7variantIJDpT0_EEE
	.globl	__ZNSt3__119__holds_alternativeB8ne180100ILm0EJ11uniCourse_t6Mand_tEEEbRKNS_7variantIJDpT0_EEE
	.weak_definition	__ZNSt3__119__holds_alternativeB8ne180100ILm0EJ11uniCourse_t6Mand_tEEEbRKNS_7variantIJDpT0_EEE
	.p2align	2
__ZNSt3__119__holds_alternativeB8ne180100ILm0EJ11uniCourse_t6Mand_tEEEbRKNS_7variantIJDpT0_EEE: ; @_ZNSt3__119__holds_alternativeB8ne180100ILm0EJ11uniCourse_t6Mand_tEEEbRKNS_7variantIJDpT0_EEE
	.cfi_startproc
; %bb.0:
	sub	sp, sp, #32
	stp	x29, x30, [sp, #16]             ; 16-byte Folded Spill
	add	x29, sp, #16
	.cfi_def_cfa w29, 16
	.cfi_offset w30, -8
	.cfi_offset w29, -16
	str	x0, [sp, #8]
	ldr	x0, [sp, #8]
	bl	__ZNKSt3__17variantIJ11uniCourse_t6Mand_tEE5indexB8ne180100Ev
	subs	x8, x0, #0
	cset	w8, eq
	and	w0, w8, #0x1
	ldp	x29, x30, [sp, #16]             ; 16-byte Folded Reload
	add	sp, sp, #32
	ret
	.cfi_endproc
                                        ; -- End function
	.private_extern	__ZNKSt3__17variantIJ11uniCourse_t6Mand_tEE5indexB8ne180100Ev ; -- Begin function _ZNKSt3__17variantIJ11uniCourse_t6Mand_tEE5indexB8ne180100Ev
	.globl	__ZNKSt3__17variantIJ11uniCourse_t6Mand_tEE5indexB8ne180100Ev
	.weak_definition	__ZNKSt3__17variantIJ11uniCourse_t6Mand_tEE5indexB8ne180100Ev
	.p2align	2
__ZNKSt3__17variantIJ11uniCourse_t6Mand_tEE5indexB8ne180100Ev: ; @_ZNKSt3__17variantIJ11uniCourse_t6Mand_tEE5indexB8ne180100Ev
	.cfi_startproc
; %bb.0:
	sub	sp, sp, #32
	stp	x29, x30, [sp, #16]             ; 16-byte Folded Spill
	add	x29, sp, #16
	.cfi_def_cfa w29, 16
	.cfi_offset w30, -8
	.cfi_offset w29, -16
	str	x0, [sp, #8]
	ldr	x0, [sp, #8]
	bl	__ZNKSt3__116__variant_detail6__baseILNS0_6_TraitE1EJ11uniCourse_t6Mand_tEE5indexB8ne180100Ev
	ldp	x29, x30, [sp, #16]             ; 16-byte Folded Reload
	add	sp, sp, #32
	ret
	.cfi_endproc
                                        ; -- End function
	.private_extern	__ZNKSt3__116__variant_detail6__baseILNS0_6_TraitE1EJ11uniCourse_t6Mand_tEE5indexB8ne180100Ev ; -- Begin function _ZNKSt3__116__variant_detail6__baseILNS0_6_TraitE1EJ11uniCourse_t6Mand_tEE5indexB8ne180100Ev
	.globl	__ZNKSt3__116__variant_detail6__baseILNS0_6_TraitE1EJ11uniCourse_t6Mand_tEE5indexB8ne180100Ev
	.weak_definition	__ZNKSt3__116__variant_detail6__baseILNS0_6_TraitE1EJ11uniCourse_t6Mand_tEE5indexB8ne180100Ev
	.p2align	2
__ZNKSt3__116__variant_detail6__baseILNS0_6_TraitE1EJ11uniCourse_t6Mand_tEE5indexB8ne180100Ev: ; @_ZNKSt3__116__variant_detail6__baseILNS0_6_TraitE1EJ11uniCourse_t6Mand_tEE5indexB8ne180100Ev
	.cfi_startproc
; %bb.0:
	sub	sp, sp, #32
	.cfi_def_cfa_offset 32
	str	x0, [sp, #24]
	ldr	x8, [sp, #24]
	str	x8, [sp, #16]                   ; 8-byte Folded Spill
	ldr	w8, [x8, #48]
	adds	w8, w8, #1
	cset	w8, ne
	tbnz	w8, #0, LBB124_2
	b	LBB124_1
LBB124_1:
	mov	x8, #-1                         ; =0xffffffffffffffff
	str	x8, [sp, #8]                    ; 8-byte Folded Spill
	b	LBB124_3
LBB124_2:
	ldr	x8, [sp, #16]                   ; 8-byte Folded Reload
	ldr	w8, [x8, #48]
                                        ; kill: def $x8 killed $w8
	str	x8, [sp, #8]                    ; 8-byte Folded Spill
	b	LBB124_3
LBB124_3:
	ldr	x0, [sp, #8]                    ; 8-byte Folded Reload
	add	sp, sp, #32
	ret
	.cfi_endproc
                                        ; -- End function
	.private_extern	__ZNSt3__13getB8ne180100ILm0EJ11uniCourse_t6Mand_tEEERKNS_19variant_alternativeIXT_ENS_7variantIJDpT0_EEEE4typeERKS7_ ; -- Begin function _ZNSt3__13getB8ne180100ILm0EJ11uniCourse_t6Mand_tEEERKNS_19variant_alternativeIXT_ENS_7variantIJDpT0_EEEE4typeERKS7_
	.globl	__ZNSt3__13getB8ne180100ILm0EJ11uniCourse_t6Mand_tEEERKNS_19variant_alternativeIXT_ENS_7variantIJDpT0_EEEE4typeERKS7_
	.weak_definition	__ZNSt3__13getB8ne180100ILm0EJ11uniCourse_t6Mand_tEEERKNS_19variant_alternativeIXT_ENS_7variantIJDpT0_EEEE4typeERKS7_
	.p2align	2
__ZNSt3__13getB8ne180100ILm0EJ11uniCourse_t6Mand_tEEERKNS_19variant_alternativeIXT_ENS_7variantIJDpT0_EEEE4typeERKS7_: ; @_ZNSt3__13getB8ne180100ILm0EJ11uniCourse_t6Mand_tEEERKNS_19variant_alternativeIXT_ENS_7variantIJDpT0_EEEE4typeERKS7_
	.cfi_startproc
; %bb.0:
	sub	sp, sp, #32
	stp	x29, x30, [sp, #16]             ; 16-byte Folded Spill
	add	x29, sp, #16
	.cfi_def_cfa w29, 16
	.cfi_offset w30, -8
	.cfi_offset w29, -16
	str	x0, [sp, #8]
	ldr	x0, [sp, #8]
	bl	__ZNSt3__113__generic_getB8ne180100ILm0ERKNS_7variantIJ11uniCourse_t6Mand_tEEEEEODaOT0_
	ldp	x29, x30, [sp, #16]             ; 16-byte Folded Reload
	add	sp, sp, #32
	ret
	.cfi_endproc
                                        ; -- End function
	.private_extern	__ZNSt3__113__generic_getB8ne180100ILm0ERKNS_7variantIJ11uniCourse_t6Mand_tEEEEEODaOT0_ ; -- Begin function _ZNSt3__113__generic_getB8ne180100ILm0ERKNS_7variantIJ11uniCourse_t6Mand_tEEEEEODaOT0_
	.globl	__ZNSt3__113__generic_getB8ne180100ILm0ERKNS_7variantIJ11uniCourse_t6Mand_tEEEEEODaOT0_
	.weak_definition	__ZNSt3__113__generic_getB8ne180100ILm0ERKNS_7variantIJ11uniCourse_t6Mand_tEEEEEODaOT0_
	.p2align	2
__ZNSt3__113__generic_getB8ne180100ILm0ERKNS_7variantIJ11uniCourse_t6Mand_tEEEEEODaOT0_: ; @_ZNSt3__113__generic_getB8ne180100ILm0ERKNS_7variantIJ11uniCourse_t6Mand_tEEEEEODaOT0_
	.cfi_startproc
; %bb.0:
	sub	sp, sp, #32
	stp	x29, x30, [sp, #16]             ; 16-byte Folded Spill
	add	x29, sp, #16
	.cfi_def_cfa w29, 16
	.cfi_offset w30, -8
	.cfi_offset w29, -16
	str	x0, [sp, #8]
	ldr	x0, [sp, #8]
	bl	__ZNSt3__119__holds_alternativeB8ne180100ILm0EJ11uniCourse_t6Mand_tEEEbRKNS_7variantIJDpT0_EEE
	tbnz	w0, #0, LBB126_2
	b	LBB126_1
LBB126_1:
	bl	__ZNSt3__126__throw_bad_variant_accessB8ne180100Ev
LBB126_2:
	ldr	x0, [sp, #8]
	bl	__ZNSt3__116__variant_detail8__access9__variant9__get_altB8ne180100ILm0ERKNS_7variantIJ11uniCourse_t6Mand_tEEEEEODaOT0_
	ldp	x29, x30, [sp, #16]             ; 16-byte Folded Reload
	add	sp, sp, #32
	ret
	.cfi_endproc
                                        ; -- End function
	.private_extern	__ZNSt3__116__variant_detail8__access9__variant9__get_altB8ne180100ILm0ERKNS_7variantIJ11uniCourse_t6Mand_tEEEEEODaOT0_ ; -- Begin function _ZNSt3__116__variant_detail8__access9__variant9__get_altB8ne180100ILm0ERKNS_7variantIJ11uniCourse_t6Mand_tEEEEEODaOT0_
	.globl	__ZNSt3__116__variant_detail8__access9__variant9__get_altB8ne180100ILm0ERKNS_7variantIJ11uniCourse_t6Mand_tEEEEEODaOT0_
	.weak_definition	__ZNSt3__116__variant_detail8__access9__variant9__get_altB8ne180100ILm0ERKNS_7variantIJ11uniCourse_t6Mand_tEEEEEODaOT0_
	.p2align	2
__ZNSt3__116__variant_detail8__access9__variant9__get_altB8ne180100ILm0ERKNS_7variantIJ11uniCourse_t6Mand_tEEEEEODaOT0_: ; @_ZNSt3__116__variant_detail8__access9__variant9__get_altB8ne180100ILm0ERKNS_7variantIJ11uniCourse_t6Mand_tEEEEEODaOT0_
	.cfi_startproc
; %bb.0:
	sub	sp, sp, #32
	stp	x29, x30, [sp, #16]             ; 16-byte Folded Spill
	add	x29, sp, #16
	.cfi_def_cfa w29, 16
	.cfi_offset w30, -8
	.cfi_offset w29, -16
	str	x0, [sp, #8]
	ldr	x0, [sp, #8]
	bl	__ZNSt3__116__variant_detail8__access6__base9__get_altB8ne180100ILm0ERKNS0_6__implIJ11uniCourse_t6Mand_tEEEEEODaOT0_
	ldp	x29, x30, [sp, #16]             ; 16-byte Folded Reload
	add	sp, sp, #32
	ret
	.cfi_endproc
                                        ; -- End function
	.private_extern	__ZNSt3__116__variant_detail8__access6__base9__get_altB8ne180100ILm0ERKNS0_6__implIJ11uniCourse_t6Mand_tEEEEEODaOT0_ ; -- Begin function _ZNSt3__116__variant_detail8__access6__base9__get_altB8ne180100ILm0ERKNS0_6__implIJ11uniCourse_t6Mand_tEEEEEODaOT0_
	.globl	__ZNSt3__116__variant_detail8__access6__base9__get_altB8ne180100ILm0ERKNS0_6__implIJ11uniCourse_t6Mand_tEEEEEODaOT0_
	.weak_definition	__ZNSt3__116__variant_detail8__access6__base9__get_altB8ne180100ILm0ERKNS0_6__implIJ11uniCourse_t6Mand_tEEEEEODaOT0_
	.p2align	2
__ZNSt3__116__variant_detail8__access6__base9__get_altB8ne180100ILm0ERKNS0_6__implIJ11uniCourse_t6Mand_tEEEEEODaOT0_: ; @_ZNSt3__116__variant_detail8__access6__base9__get_altB8ne180100ILm0ERKNS0_6__implIJ11uniCourse_t6Mand_tEEEEEODaOT0_
	.cfi_startproc
; %bb.0:
	sub	sp, sp, #32
	stp	x29, x30, [sp, #16]             ; 16-byte Folded Spill
	add	x29, sp, #16
	.cfi_def_cfa w29, 16
	.cfi_offset w30, -8
	.cfi_offset w29, -16
	str	x0, [sp, #8]
	ldr	x0, [sp, #8]
	bl	__ZNSt3__116__variant_detail8__access7__union9__get_altB8ne180100IRKNS0_7__unionILNS0_6_TraitE1ELm0EJ11uniCourse_t6Mand_tEEEEEODaOT_NS_16in_place_index_tILm0EEE
	ldp	x29, x30, [sp, #16]             ; 16-byte Folded Reload
	add	sp, sp, #32
	ret
	.cfi_endproc
                                        ; -- End function
	.private_extern	__ZNSt3__116__variant_detail8__access7__union9__get_altB8ne180100IRKNS0_7__unionILNS0_6_TraitE1ELm0EJ11uniCourse_t6Mand_tEEEEEODaOT_NS_16in_place_index_tILm0EEE ; -- Begin function _ZNSt3__116__variant_detail8__access7__union9__get_altB8ne180100IRKNS0_7__unionILNS0_6_TraitE1ELm0EJ11uniCourse_t6Mand_tEEEEEODaOT_NS_16in_place_index_tILm0EEE
	.globl	__ZNSt3__116__variant_detail8__access7__union9__get_altB8ne180100IRKNS0_7__unionILNS0_6_TraitE1ELm0EJ11uniCourse_t6Mand_tEEEEEODaOT_NS_16in_place_index_tILm0EEE
	.weak_definition	__ZNSt3__116__variant_detail8__access7__union9__get_altB8ne180100IRKNS0_7__unionILNS0_6_TraitE1ELm0EJ11uniCourse_t6Mand_tEEEEEODaOT_NS_16in_place_index_tILm0EEE
	.p2align	2
__ZNSt3__116__variant_detail8__access7__union9__get_altB8ne180100IRKNS0_7__unionILNS0_6_TraitE1ELm0EJ11uniCourse_t6Mand_tEEEEEODaOT_NS_16in_place_index_tILm0EEE: ; @_ZNSt3__116__variant_detail8__access7__union9__get_altB8ne180100IRKNS0_7__unionILNS0_6_TraitE1ELm0EJ11uniCourse_t6Mand_tEEEEEODaOT_NS_16in_place_index_tILm0EEE
	.cfi_startproc
; %bb.0:
	sub	sp, sp, #16
	.cfi_def_cfa_offset 16
	str	x0, [sp]
	ldr	x0, [sp]
	add	sp, sp, #16
	ret
	.cfi_endproc
                                        ; -- End function
	.private_extern	__ZNSt3__119__holds_alternativeB8ne180100ILm1EJ11uniCourse_t6Mand_tEEEbRKNS_7variantIJDpT0_EEE ; -- Begin function _ZNSt3__119__holds_alternativeB8ne180100ILm1EJ11uniCourse_t6Mand_tEEEbRKNS_7variantIJDpT0_EEE
	.globl	__ZNSt3__119__holds_alternativeB8ne180100ILm1EJ11uniCourse_t6Mand_tEEEbRKNS_7variantIJDpT0_EEE
	.weak_definition	__ZNSt3__119__holds_alternativeB8ne180100ILm1EJ11uniCourse_t6Mand_tEEEbRKNS_7variantIJDpT0_EEE
	.p2align	2
__ZNSt3__119__holds_alternativeB8ne180100ILm1EJ11uniCourse_t6Mand_tEEEbRKNS_7variantIJDpT0_EEE: ; @_ZNSt3__119__holds_alternativeB8ne180100ILm1EJ11uniCourse_t6Mand_tEEEbRKNS_7variantIJDpT0_EEE
	.cfi_startproc
; %bb.0:
	sub	sp, sp, #32
	stp	x29, x30, [sp, #16]             ; 16-byte Folded Spill
	add	x29, sp, #16
	.cfi_def_cfa w29, 16
	.cfi_offset w30, -8
	.cfi_offset w29, -16
	str	x0, [sp, #8]
	ldr	x0, [sp, #8]
	bl	__ZNKSt3__17variantIJ11uniCourse_t6Mand_tEE5indexB8ne180100Ev
	subs	x8, x0, #1
	cset	w8, eq
	and	w0, w8, #0x1
	ldp	x29, x30, [sp, #16]             ; 16-byte Folded Reload
	add	sp, sp, #32
	ret
	.cfi_endproc
                                        ; -- End function
	.private_extern	__ZNSt3__13getB8ne180100ILm1EJ11uniCourse_t6Mand_tEEERKNS_19variant_alternativeIXT_ENS_7variantIJDpT0_EEEE4typeERKS7_ ; -- Begin function _ZNSt3__13getB8ne180100ILm1EJ11uniCourse_t6Mand_tEEERKNS_19variant_alternativeIXT_ENS_7variantIJDpT0_EEEE4typeERKS7_
	.globl	__ZNSt3__13getB8ne180100ILm1EJ11uniCourse_t6Mand_tEEERKNS_19variant_alternativeIXT_ENS_7variantIJDpT0_EEEE4typeERKS7_
	.weak_definition	__ZNSt3__13getB8ne180100ILm1EJ11uniCourse_t6Mand_tEEERKNS_19variant_alternativeIXT_ENS_7variantIJDpT0_EEEE4typeERKS7_
	.p2align	2
__ZNSt3__13getB8ne180100ILm1EJ11uniCourse_t6Mand_tEEERKNS_19variant_alternativeIXT_ENS_7variantIJDpT0_EEEE4typeERKS7_: ; @_ZNSt3__13getB8ne180100ILm1EJ11uniCourse_t6Mand_tEEERKNS_19variant_alternativeIXT_ENS_7variantIJDpT0_EEEE4typeERKS7_
	.cfi_startproc
; %bb.0:
	sub	sp, sp, #32
	stp	x29, x30, [sp, #16]             ; 16-byte Folded Spill
	add	x29, sp, #16
	.cfi_def_cfa w29, 16
	.cfi_offset w30, -8
	.cfi_offset w29, -16
	str	x0, [sp, #8]
	ldr	x0, [sp, #8]
	bl	__ZNSt3__113__generic_getB8ne180100ILm1ERKNS_7variantIJ11uniCourse_t6Mand_tEEEEEODaOT0_
	ldp	x29, x30, [sp, #16]             ; 16-byte Folded Reload
	add	sp, sp, #32
	ret
	.cfi_endproc
                                        ; -- End function
	.private_extern	__ZNSt3__113__generic_getB8ne180100ILm1ERKNS_7variantIJ11uniCourse_t6Mand_tEEEEEODaOT0_ ; -- Begin function _ZNSt3__113__generic_getB8ne180100ILm1ERKNS_7variantIJ11uniCourse_t6Mand_tEEEEEODaOT0_
	.globl	__ZNSt3__113__generic_getB8ne180100ILm1ERKNS_7variantIJ11uniCourse_t6Mand_tEEEEEODaOT0_
	.weak_definition	__ZNSt3__113__generic_getB8ne180100ILm1ERKNS_7variantIJ11uniCourse_t6Mand_tEEEEEODaOT0_
	.p2align	2
__ZNSt3__113__generic_getB8ne180100ILm1ERKNS_7variantIJ11uniCourse_t6Mand_tEEEEEODaOT0_: ; @_ZNSt3__113__generic_getB8ne180100ILm1ERKNS_7variantIJ11uniCourse_t6Mand_tEEEEEODaOT0_
	.cfi_startproc
; %bb.0:
	sub	sp, sp, #32
	stp	x29, x30, [sp, #16]             ; 16-byte Folded Spill
	add	x29, sp, #16
	.cfi_def_cfa w29, 16
	.cfi_offset w30, -8
	.cfi_offset w29, -16
	str	x0, [sp, #8]
	ldr	x0, [sp, #8]
	bl	__ZNSt3__119__holds_alternativeB8ne180100ILm1EJ11uniCourse_t6Mand_tEEEbRKNS_7variantIJDpT0_EEE
	tbnz	w0, #0, LBB132_2
	b	LBB132_1
LBB132_1:
	bl	__ZNSt3__126__throw_bad_variant_accessB8ne180100Ev
LBB132_2:
	ldr	x0, [sp, #8]
	bl	__ZNSt3__116__variant_detail8__access9__variant9__get_altB8ne180100ILm1ERKNS_7variantIJ11uniCourse_t6Mand_tEEEEEODaOT0_
	ldp	x29, x30, [sp, #16]             ; 16-byte Folded Reload
	add	sp, sp, #32
	ret
	.cfi_endproc
                                        ; -- End function
	.private_extern	__ZNSt3__116__variant_detail8__access9__variant9__get_altB8ne180100ILm1ERKNS_7variantIJ11uniCourse_t6Mand_tEEEEEODaOT0_ ; -- Begin function _ZNSt3__116__variant_detail8__access9__variant9__get_altB8ne180100ILm1ERKNS_7variantIJ11uniCourse_t6Mand_tEEEEEODaOT0_
	.globl	__ZNSt3__116__variant_detail8__access9__variant9__get_altB8ne180100ILm1ERKNS_7variantIJ11uniCourse_t6Mand_tEEEEEODaOT0_
	.weak_definition	__ZNSt3__116__variant_detail8__access9__variant9__get_altB8ne180100ILm1ERKNS_7variantIJ11uniCourse_t6Mand_tEEEEEODaOT0_
	.p2align	2
__ZNSt3__116__variant_detail8__access9__variant9__get_altB8ne180100ILm1ERKNS_7variantIJ11uniCourse_t6Mand_tEEEEEODaOT0_: ; @_ZNSt3__116__variant_detail8__access9__variant9__get_altB8ne180100ILm1ERKNS_7variantIJ11uniCourse_t6Mand_tEEEEEODaOT0_
	.cfi_startproc
; %bb.0:
	sub	sp, sp, #32
	stp	x29, x30, [sp, #16]             ; 16-byte Folded Spill
	add	x29, sp, #16
	.cfi_def_cfa w29, 16
	.cfi_offset w30, -8
	.cfi_offset w29, -16
	str	x0, [sp, #8]
	ldr	x0, [sp, #8]
	bl	__ZNSt3__116__variant_detail8__access6__base9__get_altB8ne180100ILm1ERKNS0_6__implIJ11uniCourse_t6Mand_tEEEEEODaOT0_
	ldp	x29, x30, [sp, #16]             ; 16-byte Folded Reload
	add	sp, sp, #32
	ret
	.cfi_endproc
                                        ; -- End function
	.private_extern	__ZNSt3__116__variant_detail8__access6__base9__get_altB8ne180100ILm1ERKNS0_6__implIJ11uniCourse_t6Mand_tEEEEEODaOT0_ ; -- Begin function _ZNSt3__116__variant_detail8__access6__base9__get_altB8ne180100ILm1ERKNS0_6__implIJ11uniCourse_t6Mand_tEEEEEODaOT0_
	.globl	__ZNSt3__116__variant_detail8__access6__base9__get_altB8ne180100ILm1ERKNS0_6__implIJ11uniCourse_t6Mand_tEEEEEODaOT0_
	.weak_definition	__ZNSt3__116__variant_detail8__access6__base9__get_altB8ne180100ILm1ERKNS0_6__implIJ11uniCourse_t6Mand_tEEEEEODaOT0_
	.p2align	2
__ZNSt3__116__variant_detail8__access6__base9__get_altB8ne180100ILm1ERKNS0_6__implIJ11uniCourse_t6Mand_tEEEEEODaOT0_: ; @_ZNSt3__116__variant_detail8__access6__base9__get_altB8ne180100ILm1ERKNS0_6__implIJ11uniCourse_t6Mand_tEEEEEODaOT0_
	.cfi_startproc
; %bb.0:
	sub	sp, sp, #32
	stp	x29, x30, [sp, #16]             ; 16-byte Folded Spill
	add	x29, sp, #16
	.cfi_def_cfa w29, 16
	.cfi_offset w30, -8
	.cfi_offset w29, -16
	str	x0, [sp, #8]
	ldr	x0, [sp, #8]
	bl	__ZNSt3__116__variant_detail8__access7__union9__get_altB8ne180100IRKNS0_7__unionILNS0_6_TraitE1ELm0EJ11uniCourse_t6Mand_tEEELm1EEEODaOT_NS_16in_place_index_tIXT0_EEE
	ldp	x29, x30, [sp, #16]             ; 16-byte Folded Reload
	add	sp, sp, #32
	ret
	.cfi_endproc
                                        ; -- End function
	.private_extern	__ZNSt3__116__variant_detail8__access7__union9__get_altB8ne180100IRKNS0_7__unionILNS0_6_TraitE1ELm0EJ11uniCourse_t6Mand_tEEELm1EEEODaOT_NS_16in_place_index_tIXT0_EEE ; -- Begin function _ZNSt3__116__variant_detail8__access7__union9__get_altB8ne180100IRKNS0_7__unionILNS0_6_TraitE1ELm0EJ11uniCourse_t6Mand_tEEELm1EEEODaOT_NS_16in_place_index_tIXT0_EEE
	.globl	__ZNSt3__116__variant_detail8__access7__union9__get_altB8ne180100IRKNS0_7__unionILNS0_6_TraitE1ELm0EJ11uniCourse_t6Mand_tEEELm1EEEODaOT_NS_16in_place_index_tIXT0_EEE
	.weak_definition	__ZNSt3__116__variant_detail8__access7__union9__get_altB8ne180100IRKNS0_7__unionILNS0_6_TraitE1ELm0EJ11uniCourse_t6Mand_tEEELm1EEEODaOT_NS_16in_place_index_tIXT0_EEE
	.p2align	2
__ZNSt3__116__variant_detail8__access7__union9__get_altB8ne180100IRKNS0_7__unionILNS0_6_TraitE1ELm0EJ11uniCourse_t6Mand_tEEELm1EEEODaOT_NS_16in_place_index_tIXT0_EEE: ; @_ZNSt3__116__variant_detail8__access7__union9__get_altB8ne180100IRKNS0_7__unionILNS0_6_TraitE1ELm0EJ11uniCourse_t6Mand_tEEELm1EEEODaOT_NS_16in_place_index_tIXT0_EEE
	.cfi_startproc
; %bb.0:
	sub	sp, sp, #48
	stp	x29, x30, [sp, #32]             ; 16-byte Folded Spill
	add	x29, sp, #32
	.cfi_def_cfa w29, 16
	.cfi_offset w30, -8
	.cfi_offset w29, -16
	str	x0, [sp, #16]
	ldr	x0, [sp, #16]
	bl	__ZNSt3__116__variant_detail8__access7__union9__get_altB8ne180100IRKNS0_7__unionILNS0_6_TraitE1ELm1EJ6Mand_tEEEEEODaOT_NS_16in_place_index_tILm0EEE
	ldp	x29, x30, [sp, #32]             ; 16-byte Folded Reload
	add	sp, sp, #48
	ret
	.cfi_endproc
                                        ; -- End function
	.private_extern	__ZNSt3__116__variant_detail8__access7__union9__get_altB8ne180100IRKNS0_7__unionILNS0_6_TraitE1ELm1EJ6Mand_tEEEEEODaOT_NS_16in_place_index_tILm0EEE ; -- Begin function _ZNSt3__116__variant_detail8__access7__union9__get_altB8ne180100IRKNS0_7__unionILNS0_6_TraitE1ELm1EJ6Mand_tEEEEEODaOT_NS_16in_place_index_tILm0EEE
	.globl	__ZNSt3__116__variant_detail8__access7__union9__get_altB8ne180100IRKNS0_7__unionILNS0_6_TraitE1ELm1EJ6Mand_tEEEEEODaOT_NS_16in_place_index_tILm0EEE
	.weak_definition	__ZNSt3__116__variant_detail8__access7__union9__get_altB8ne180100IRKNS0_7__unionILNS0_6_TraitE1ELm1EJ6Mand_tEEEEEODaOT_NS_16in_place_index_tILm0EEE
	.p2align	2
__ZNSt3__116__variant_detail8__access7__union9__get_altB8ne180100IRKNS0_7__unionILNS0_6_TraitE1ELm1EJ6Mand_tEEEEEODaOT_NS_16in_place_index_tILm0EEE: ; @_ZNSt3__116__variant_detail8__access7__union9__get_altB8ne180100IRKNS0_7__unionILNS0_6_TraitE1ELm1EJ6Mand_tEEEEEODaOT_NS_16in_place_index_tILm0EEE
	.cfi_startproc
; %bb.0:
	sub	sp, sp, #16
	.cfi_def_cfa_offset 16
	str	x0, [sp]
	ldr	x0, [sp]
	add	sp, sp, #16
	ret
	.cfi_endproc
                                        ; -- End function
	.private_extern	__ZNSt3__119__holds_alternativeB8ne180100ILm1EJ4WORK5SLEEP4FREEEEEbRKNS_7variantIJDpT0_EEE ; -- Begin function _ZNSt3__119__holds_alternativeB8ne180100ILm1EJ4WORK5SLEEP4FREEEEEbRKNS_7variantIJDpT0_EEE
	.globl	__ZNSt3__119__holds_alternativeB8ne180100ILm1EJ4WORK5SLEEP4FREEEEEbRKNS_7variantIJDpT0_EEE
	.weak_definition	__ZNSt3__119__holds_alternativeB8ne180100ILm1EJ4WORK5SLEEP4FREEEEEbRKNS_7variantIJDpT0_EEE
	.p2align	2
__ZNSt3__119__holds_alternativeB8ne180100ILm1EJ4WORK5SLEEP4FREEEEEbRKNS_7variantIJDpT0_EEE: ; @_ZNSt3__119__holds_alternativeB8ne180100ILm1EJ4WORK5SLEEP4FREEEEEbRKNS_7variantIJDpT0_EEE
	.cfi_startproc
; %bb.0:
	sub	sp, sp, #32
	stp	x29, x30, [sp, #16]             ; 16-byte Folded Spill
	add	x29, sp, #16
	.cfi_def_cfa w29, 16
	.cfi_offset w30, -8
	.cfi_offset w29, -16
	str	x0, [sp, #8]
	ldr	x0, [sp, #8]
	bl	__ZNKSt3__17variantIJ4WORK5SLEEP4FREEEE5indexB8ne180100Ev
	subs	x8, x0, #1
	cset	w8, eq
	and	w0, w8, #0x1
	ldp	x29, x30, [sp, #16]             ; 16-byte Folded Reload
	add	sp, sp, #32
	ret
	.cfi_endproc
                                        ; -- End function
	.private_extern	__ZNSt3__13getB8ne180100ILm1EJ4WORK5SLEEP4FREEEEERKNS_19variant_alternativeIXT_ENS_7variantIJDpT0_EEEE4typeERKS8_ ; -- Begin function _ZNSt3__13getB8ne180100ILm1EJ4WORK5SLEEP4FREEEEERKNS_19variant_alternativeIXT_ENS_7variantIJDpT0_EEEE4typeERKS8_
	.globl	__ZNSt3__13getB8ne180100ILm1EJ4WORK5SLEEP4FREEEEERKNS_19variant_alternativeIXT_ENS_7variantIJDpT0_EEEE4typeERKS8_
	.weak_definition	__ZNSt3__13getB8ne180100ILm1EJ4WORK5SLEEP4FREEEEERKNS_19variant_alternativeIXT_ENS_7variantIJDpT0_EEEE4typeERKS8_
	.p2align	2
__ZNSt3__13getB8ne180100ILm1EJ4WORK5SLEEP4FREEEEERKNS_19variant_alternativeIXT_ENS_7variantIJDpT0_EEEE4typeERKS8_: ; @_ZNSt3__13getB8ne180100ILm1EJ4WORK5SLEEP4FREEEEERKNS_19variant_alternativeIXT_ENS_7variantIJDpT0_EEEE4typeERKS8_
	.cfi_startproc
; %bb.0:
	sub	sp, sp, #32
	stp	x29, x30, [sp, #16]             ; 16-byte Folded Spill
	add	x29, sp, #16
	.cfi_def_cfa w29, 16
	.cfi_offset w30, -8
	.cfi_offset w29, -16
	str	x0, [sp, #8]
	ldr	x0, [sp, #8]
	bl	__ZNSt3__113__generic_getB8ne180100ILm1ERKNS_7variantIJ4WORK5SLEEP4FREEEEEEEODaOT0_
	ldp	x29, x30, [sp, #16]             ; 16-byte Folded Reload
	add	sp, sp, #32
	ret
	.cfi_endproc
                                        ; -- End function
	.private_extern	__ZNSt3__113__generic_getB8ne180100ILm1ERKNS_7variantIJ4WORK5SLEEP4FREEEEEEEODaOT0_ ; -- Begin function _ZNSt3__113__generic_getB8ne180100ILm1ERKNS_7variantIJ4WORK5SLEEP4FREEEEEEEODaOT0_
	.globl	__ZNSt3__113__generic_getB8ne180100ILm1ERKNS_7variantIJ4WORK5SLEEP4FREEEEEEEODaOT0_
	.weak_definition	__ZNSt3__113__generic_getB8ne180100ILm1ERKNS_7variantIJ4WORK5SLEEP4FREEEEEEEODaOT0_
	.p2align	2
__ZNSt3__113__generic_getB8ne180100ILm1ERKNS_7variantIJ4WORK5SLEEP4FREEEEEEEODaOT0_: ; @_ZNSt3__113__generic_getB8ne180100ILm1ERKNS_7variantIJ4WORK5SLEEP4FREEEEEEEODaOT0_
	.cfi_startproc
; %bb.0:
	sub	sp, sp, #32
	stp	x29, x30, [sp, #16]             ; 16-byte Folded Spill
	add	x29, sp, #16
	.cfi_def_cfa w29, 16
	.cfi_offset w30, -8
	.cfi_offset w29, -16
	str	x0, [sp, #8]
	ldr	x0, [sp, #8]
	bl	__ZNSt3__119__holds_alternativeB8ne180100ILm1EJ4WORK5SLEEP4FREEEEEbRKNS_7variantIJDpT0_EEE
	tbnz	w0, #0, LBB139_2
	b	LBB139_1
LBB139_1:
	bl	__ZNSt3__126__throw_bad_variant_accessB8ne180100Ev
LBB139_2:
	ldr	x0, [sp, #8]
	bl	__ZNSt3__116__variant_detail8__access9__variant9__get_altB8ne180100ILm1ERKNS_7variantIJ4WORK5SLEEP4FREEEEEEEODaOT0_
	ldp	x29, x30, [sp, #16]             ; 16-byte Folded Reload
	add	sp, sp, #32
	ret
	.cfi_endproc
                                        ; -- End function
	.private_extern	__ZNSt3__116__variant_detail8__access9__variant9__get_altB8ne180100ILm1ERKNS_7variantIJ4WORK5SLEEP4FREEEEEEEODaOT0_ ; -- Begin function _ZNSt3__116__variant_detail8__access9__variant9__get_altB8ne180100ILm1ERKNS_7variantIJ4WORK5SLEEP4FREEEEEEEODaOT0_
	.globl	__ZNSt3__116__variant_detail8__access9__variant9__get_altB8ne180100ILm1ERKNS_7variantIJ4WORK5SLEEP4FREEEEEEEODaOT0_
	.weak_definition	__ZNSt3__116__variant_detail8__access9__variant9__get_altB8ne180100ILm1ERKNS_7variantIJ4WORK5SLEEP4FREEEEEEEODaOT0_
	.p2align	2
__ZNSt3__116__variant_detail8__access9__variant9__get_altB8ne180100ILm1ERKNS_7variantIJ4WORK5SLEEP4FREEEEEEEODaOT0_: ; @_ZNSt3__116__variant_detail8__access9__variant9__get_altB8ne180100ILm1ERKNS_7variantIJ4WORK5SLEEP4FREEEEEEEODaOT0_
	.cfi_startproc
; %bb.0:
	sub	sp, sp, #32
	stp	x29, x30, [sp, #16]             ; 16-byte Folded Spill
	add	x29, sp, #16
	.cfi_def_cfa w29, 16
	.cfi_offset w30, -8
	.cfi_offset w29, -16
	str	x0, [sp, #8]
	ldr	x8, [sp, #8]
	add	x0, x8, #8
	bl	__ZNSt3__116__variant_detail8__access6__base9__get_altB8ne180100ILm1ERKNS0_6__implIJ4WORK5SLEEP4FREEEEEEEODaOT0_
	ldp	x29, x30, [sp, #16]             ; 16-byte Folded Reload
	add	sp, sp, #32
	ret
	.cfi_endproc
                                        ; -- End function
	.private_extern	__ZNSt3__116__variant_detail8__access6__base9__get_altB8ne180100ILm1ERKNS0_6__implIJ4WORK5SLEEP4FREEEEEEEODaOT0_ ; -- Begin function _ZNSt3__116__variant_detail8__access6__base9__get_altB8ne180100ILm1ERKNS0_6__implIJ4WORK5SLEEP4FREEEEEEEODaOT0_
	.globl	__ZNSt3__116__variant_detail8__access6__base9__get_altB8ne180100ILm1ERKNS0_6__implIJ4WORK5SLEEP4FREEEEEEEODaOT0_
	.weak_definition	__ZNSt3__116__variant_detail8__access6__base9__get_altB8ne180100ILm1ERKNS0_6__implIJ4WORK5SLEEP4FREEEEEEEODaOT0_
	.p2align	2
__ZNSt3__116__variant_detail8__access6__base9__get_altB8ne180100ILm1ERKNS0_6__implIJ4WORK5SLEEP4FREEEEEEEODaOT0_: ; @_ZNSt3__116__variant_detail8__access6__base9__get_altB8ne180100ILm1ERKNS0_6__implIJ4WORK5SLEEP4FREEEEEEEODaOT0_
	.cfi_startproc
; %bb.0:
	sub	sp, sp, #32
	stp	x29, x30, [sp, #16]             ; 16-byte Folded Spill
	add	x29, sp, #16
	.cfi_def_cfa w29, 16
	.cfi_offset w30, -8
	.cfi_offset w29, -16
	str	x0, [sp, #8]
	ldr	x0, [sp, #8]
	bl	__ZNSt3__116__variant_detail8__access7__union9__get_altB8ne180100IRKNS0_7__unionILNS0_6_TraitE1ELm0EJ4WORK5SLEEP4FREEEEELm1EEEODaOT_NS_16in_place_index_tIXT0_EEE
	ldp	x29, x30, [sp, #16]             ; 16-byte Folded Reload
	add	sp, sp, #32
	ret
	.cfi_endproc
                                        ; -- End function
	.private_extern	__ZNSt3__116__variant_detail8__access7__union9__get_altB8ne180100IRKNS0_7__unionILNS0_6_TraitE1ELm0EJ4WORK5SLEEP4FREEEEELm1EEEODaOT_NS_16in_place_index_tIXT0_EEE ; -- Begin function _ZNSt3__116__variant_detail8__access7__union9__get_altB8ne180100IRKNS0_7__unionILNS0_6_TraitE1ELm0EJ4WORK5SLEEP4FREEEEELm1EEEODaOT_NS_16in_place_index_tIXT0_EEE
	.globl	__ZNSt3__116__variant_detail8__access7__union9__get_altB8ne180100IRKNS0_7__unionILNS0_6_TraitE1ELm0EJ4WORK5SLEEP4FREEEEELm1EEEODaOT_NS_16in_place_index_tIXT0_EEE
	.weak_definition	__ZNSt3__116__variant_detail8__access7__union9__get_altB8ne180100IRKNS0_7__unionILNS0_6_TraitE1ELm0EJ4WORK5SLEEP4FREEEEELm1EEEODaOT_NS_16in_place_index_tIXT0_EEE
	.p2align	2
__ZNSt3__116__variant_detail8__access7__union9__get_altB8ne180100IRKNS0_7__unionILNS0_6_TraitE1ELm0EJ4WORK5SLEEP4FREEEEELm1EEEODaOT_NS_16in_place_index_tIXT0_EEE: ; @_ZNSt3__116__variant_detail8__access7__union9__get_altB8ne180100IRKNS0_7__unionILNS0_6_TraitE1ELm0EJ4WORK5SLEEP4FREEEEELm1EEEODaOT_NS_16in_place_index_tIXT0_EEE
	.cfi_startproc
; %bb.0:
	sub	sp, sp, #48
	stp	x29, x30, [sp, #32]             ; 16-byte Folded Spill
	add	x29, sp, #32
	.cfi_def_cfa w29, 16
	.cfi_offset w30, -8
	.cfi_offset w29, -16
	str	x0, [sp, #16]
	ldr	x0, [sp, #16]
	bl	__ZNSt3__116__variant_detail8__access7__union9__get_altB8ne180100IRKNS0_7__unionILNS0_6_TraitE1ELm1EJ5SLEEP4FREEEEEEEODaOT_NS_16in_place_index_tILm0EEE
	ldp	x29, x30, [sp, #32]             ; 16-byte Folded Reload
	add	sp, sp, #48
	ret
	.cfi_endproc
                                        ; -- End function
	.private_extern	__ZNSt3__116__variant_detail8__access7__union9__get_altB8ne180100IRKNS0_7__unionILNS0_6_TraitE1ELm1EJ5SLEEP4FREEEEEEEODaOT_NS_16in_place_index_tILm0EEE ; -- Begin function _ZNSt3__116__variant_detail8__access7__union9__get_altB8ne180100IRKNS0_7__unionILNS0_6_TraitE1ELm1EJ5SLEEP4FREEEEEEEODaOT_NS_16in_place_index_tILm0EEE
	.globl	__ZNSt3__116__variant_detail8__access7__union9__get_altB8ne180100IRKNS0_7__unionILNS0_6_TraitE1ELm1EJ5SLEEP4FREEEEEEEODaOT_NS_16in_place_index_tILm0EEE
	.weak_definition	__ZNSt3__116__variant_detail8__access7__union9__get_altB8ne180100IRKNS0_7__unionILNS0_6_TraitE1ELm1EJ5SLEEP4FREEEEEEEODaOT_NS_16in_place_index_tILm0EEE
	.p2align	2
__ZNSt3__116__variant_detail8__access7__union9__get_altB8ne180100IRKNS0_7__unionILNS0_6_TraitE1ELm1EJ5SLEEP4FREEEEEEEODaOT_NS_16in_place_index_tILm0EEE: ; @_ZNSt3__116__variant_detail8__access7__union9__get_altB8ne180100IRKNS0_7__unionILNS0_6_TraitE1ELm1EJ5SLEEP4FREEEEEEEODaOT_NS_16in_place_index_tILm0EEE
	.cfi_startproc
; %bb.0:
	sub	sp, sp, #16
	.cfi_def_cfa_offset 16
	str	x0, [sp]
	ldr	x0, [sp]
	add	sp, sp, #16
	ret
	.cfi_endproc
                                        ; -- End function
	.private_extern	__ZNSt3__119__holds_alternativeB8ne180100ILm2EJ4WORK5SLEEP4FREEEEEbRKNS_7variantIJDpT0_EEE ; -- Begin function _ZNSt3__119__holds_alternativeB8ne180100ILm2EJ4WORK5SLEEP4FREEEEEbRKNS_7variantIJDpT0_EEE
	.globl	__ZNSt3__119__holds_alternativeB8ne180100ILm2EJ4WORK5SLEEP4FREEEEEbRKNS_7variantIJDpT0_EEE
	.weak_definition	__ZNSt3__119__holds_alternativeB8ne180100ILm2EJ4WORK5SLEEP4FREEEEEbRKNS_7variantIJDpT0_EEE
	.p2align	2
__ZNSt3__119__holds_alternativeB8ne180100ILm2EJ4WORK5SLEEP4FREEEEEbRKNS_7variantIJDpT0_EEE: ; @_ZNSt3__119__holds_alternativeB8ne180100ILm2EJ4WORK5SLEEP4FREEEEEbRKNS_7variantIJDpT0_EEE
	.cfi_startproc
; %bb.0:
	sub	sp, sp, #32
	stp	x29, x30, [sp, #16]             ; 16-byte Folded Spill
	add	x29, sp, #16
	.cfi_def_cfa w29, 16
	.cfi_offset w30, -8
	.cfi_offset w29, -16
	str	x0, [sp, #8]
	ldr	x0, [sp, #8]
	bl	__ZNKSt3__17variantIJ4WORK5SLEEP4FREEEE5indexB8ne180100Ev
	subs	x8, x0, #2
	cset	w8, eq
	and	w0, w8, #0x1
	ldp	x29, x30, [sp, #16]             ; 16-byte Folded Reload
	add	sp, sp, #32
	ret
	.cfi_endproc
                                        ; -- End function
	.private_extern	__ZNSt3__13getB8ne180100ILm2EJ4WORK5SLEEP4FREEEEERKNS_19variant_alternativeIXT_ENS_7variantIJDpT0_EEEE4typeERKS8_ ; -- Begin function _ZNSt3__13getB8ne180100ILm2EJ4WORK5SLEEP4FREEEEERKNS_19variant_alternativeIXT_ENS_7variantIJDpT0_EEEE4typeERKS8_
	.globl	__ZNSt3__13getB8ne180100ILm2EJ4WORK5SLEEP4FREEEEERKNS_19variant_alternativeIXT_ENS_7variantIJDpT0_EEEE4typeERKS8_
	.weak_definition	__ZNSt3__13getB8ne180100ILm2EJ4WORK5SLEEP4FREEEEERKNS_19variant_alternativeIXT_ENS_7variantIJDpT0_EEEE4typeERKS8_
	.p2align	2
__ZNSt3__13getB8ne180100ILm2EJ4WORK5SLEEP4FREEEEERKNS_19variant_alternativeIXT_ENS_7variantIJDpT0_EEEE4typeERKS8_: ; @_ZNSt3__13getB8ne180100ILm2EJ4WORK5SLEEP4FREEEEERKNS_19variant_alternativeIXT_ENS_7variantIJDpT0_EEEE4typeERKS8_
	.cfi_startproc
; %bb.0:
	sub	sp, sp, #32
	stp	x29, x30, [sp, #16]             ; 16-byte Folded Spill
	add	x29, sp, #16
	.cfi_def_cfa w29, 16
	.cfi_offset w30, -8
	.cfi_offset w29, -16
	str	x0, [sp, #8]
	ldr	x0, [sp, #8]
	bl	__ZNSt3__113__generic_getB8ne180100ILm2ERKNS_7variantIJ4WORK5SLEEP4FREEEEEEEODaOT0_
	ldp	x29, x30, [sp, #16]             ; 16-byte Folded Reload
	add	sp, sp, #32
	ret
	.cfi_endproc
                                        ; -- End function
	.private_extern	__ZNSt3__113__generic_getB8ne180100ILm2ERKNS_7variantIJ4WORK5SLEEP4FREEEEEEEODaOT0_ ; -- Begin function _ZNSt3__113__generic_getB8ne180100ILm2ERKNS_7variantIJ4WORK5SLEEP4FREEEEEEEODaOT0_
	.globl	__ZNSt3__113__generic_getB8ne180100ILm2ERKNS_7variantIJ4WORK5SLEEP4FREEEEEEEODaOT0_
	.weak_definition	__ZNSt3__113__generic_getB8ne180100ILm2ERKNS_7variantIJ4WORK5SLEEP4FREEEEEEEODaOT0_
	.p2align	2
__ZNSt3__113__generic_getB8ne180100ILm2ERKNS_7variantIJ4WORK5SLEEP4FREEEEEEEODaOT0_: ; @_ZNSt3__113__generic_getB8ne180100ILm2ERKNS_7variantIJ4WORK5SLEEP4FREEEEEEEODaOT0_
	.cfi_startproc
; %bb.0:
	sub	sp, sp, #32
	stp	x29, x30, [sp, #16]             ; 16-byte Folded Spill
	add	x29, sp, #16
	.cfi_def_cfa w29, 16
	.cfi_offset w30, -8
	.cfi_offset w29, -16
	str	x0, [sp, #8]
	ldr	x0, [sp, #8]
	bl	__ZNSt3__119__holds_alternativeB8ne180100ILm2EJ4WORK5SLEEP4FREEEEEbRKNS_7variantIJDpT0_EEE
	tbnz	w0, #0, LBB146_2
	b	LBB146_1
LBB146_1:
	bl	__ZNSt3__126__throw_bad_variant_accessB8ne180100Ev
LBB146_2:
	ldr	x0, [sp, #8]
	bl	__ZNSt3__116__variant_detail8__access9__variant9__get_altB8ne180100ILm2ERKNS_7variantIJ4WORK5SLEEP4FREEEEEEEODaOT0_
	ldp	x29, x30, [sp, #16]             ; 16-byte Folded Reload
	add	sp, sp, #32
	ret
	.cfi_endproc
                                        ; -- End function
	.private_extern	__ZNSt3__116__variant_detail8__access9__variant9__get_altB8ne180100ILm2ERKNS_7variantIJ4WORK5SLEEP4FREEEEEEEODaOT0_ ; -- Begin function _ZNSt3__116__variant_detail8__access9__variant9__get_altB8ne180100ILm2ERKNS_7variantIJ4WORK5SLEEP4FREEEEEEEODaOT0_
	.globl	__ZNSt3__116__variant_detail8__access9__variant9__get_altB8ne180100ILm2ERKNS_7variantIJ4WORK5SLEEP4FREEEEEEEODaOT0_
	.weak_definition	__ZNSt3__116__variant_detail8__access9__variant9__get_altB8ne180100ILm2ERKNS_7variantIJ4WORK5SLEEP4FREEEEEEEODaOT0_
	.p2align	2
__ZNSt3__116__variant_detail8__access9__variant9__get_altB8ne180100ILm2ERKNS_7variantIJ4WORK5SLEEP4FREEEEEEEODaOT0_: ; @_ZNSt3__116__variant_detail8__access9__variant9__get_altB8ne180100ILm2ERKNS_7variantIJ4WORK5SLEEP4FREEEEEEEODaOT0_
	.cfi_startproc
; %bb.0:
	sub	sp, sp, #32
	stp	x29, x30, [sp, #16]             ; 16-byte Folded Spill
	add	x29, sp, #16
	.cfi_def_cfa w29, 16
	.cfi_offset w30, -8
	.cfi_offset w29, -16
	str	x0, [sp, #8]
	ldr	x8, [sp, #8]
	add	x0, x8, #8
	bl	__ZNSt3__116__variant_detail8__access6__base9__get_altB8ne180100ILm2ERKNS0_6__implIJ4WORK5SLEEP4FREEEEEEEODaOT0_
	ldp	x29, x30, [sp, #16]             ; 16-byte Folded Reload
	add	sp, sp, #32
	ret
	.cfi_endproc
                                        ; -- End function
	.private_extern	__ZNSt3__116__variant_detail8__access6__base9__get_altB8ne180100ILm2ERKNS0_6__implIJ4WORK5SLEEP4FREEEEEEEODaOT0_ ; -- Begin function _ZNSt3__116__variant_detail8__access6__base9__get_altB8ne180100ILm2ERKNS0_6__implIJ4WORK5SLEEP4FREEEEEEEODaOT0_
	.globl	__ZNSt3__116__variant_detail8__access6__base9__get_altB8ne180100ILm2ERKNS0_6__implIJ4WORK5SLEEP4FREEEEEEEODaOT0_
	.weak_definition	__ZNSt3__116__variant_detail8__access6__base9__get_altB8ne180100ILm2ERKNS0_6__implIJ4WORK5SLEEP4FREEEEEEEODaOT0_
	.p2align	2
__ZNSt3__116__variant_detail8__access6__base9__get_altB8ne180100ILm2ERKNS0_6__implIJ4WORK5SLEEP4FREEEEEEEODaOT0_: ; @_ZNSt3__116__variant_detail8__access6__base9__get_altB8ne180100ILm2ERKNS0_6__implIJ4WORK5SLEEP4FREEEEEEEODaOT0_
	.cfi_startproc
; %bb.0:
	sub	sp, sp, #32
	stp	x29, x30, [sp, #16]             ; 16-byte Folded Spill
	add	x29, sp, #16
	.cfi_def_cfa w29, 16
	.cfi_offset w30, -8
	.cfi_offset w29, -16
	str	x0, [sp, #8]
	ldr	x0, [sp, #8]
	bl	__ZNSt3__116__variant_detail8__access7__union9__get_altB8ne180100IRKNS0_7__unionILNS0_6_TraitE1ELm0EJ4WORK5SLEEP4FREEEEELm2EEEODaOT_NS_16in_place_index_tIXT0_EEE
	ldp	x29, x30, [sp, #16]             ; 16-byte Folded Reload
	add	sp, sp, #32
	ret
	.cfi_endproc
                                        ; -- End function
	.private_extern	__ZNSt3__116__variant_detail8__access7__union9__get_altB8ne180100IRKNS0_7__unionILNS0_6_TraitE1ELm0EJ4WORK5SLEEP4FREEEEELm2EEEODaOT_NS_16in_place_index_tIXT0_EEE ; -- Begin function _ZNSt3__116__variant_detail8__access7__union9__get_altB8ne180100IRKNS0_7__unionILNS0_6_TraitE1ELm0EJ4WORK5SLEEP4FREEEEELm2EEEODaOT_NS_16in_place_index_tIXT0_EEE
	.globl	__ZNSt3__116__variant_detail8__access7__union9__get_altB8ne180100IRKNS0_7__unionILNS0_6_TraitE1ELm0EJ4WORK5SLEEP4FREEEEELm2EEEODaOT_NS_16in_place_index_tIXT0_EEE
	.weak_definition	__ZNSt3__116__variant_detail8__access7__union9__get_altB8ne180100IRKNS0_7__unionILNS0_6_TraitE1ELm0EJ4WORK5SLEEP4FREEEEELm2EEEODaOT_NS_16in_place_index_tIXT0_EEE
	.p2align	2
__ZNSt3__116__variant_detail8__access7__union9__get_altB8ne180100IRKNS0_7__unionILNS0_6_TraitE1ELm0EJ4WORK5SLEEP4FREEEEELm2EEEODaOT_NS_16in_place_index_tIXT0_EEE: ; @_ZNSt3__116__variant_detail8__access7__union9__get_altB8ne180100IRKNS0_7__unionILNS0_6_TraitE1ELm0EJ4WORK5SLEEP4FREEEEELm2EEEODaOT_NS_16in_place_index_tIXT0_EEE
	.cfi_startproc
; %bb.0:
	sub	sp, sp, #48
	stp	x29, x30, [sp, #32]             ; 16-byte Folded Spill
	add	x29, sp, #32
	.cfi_def_cfa w29, 16
	.cfi_offset w30, -8
	.cfi_offset w29, -16
	str	x0, [sp, #16]
	ldr	x0, [sp, #16]
	bl	__ZNSt3__116__variant_detail8__access7__union9__get_altB8ne180100IRKNS0_7__unionILNS0_6_TraitE1ELm1EJ5SLEEP4FREEEEELm1EEEODaOT_NS_16in_place_index_tIXT0_EEE
	ldp	x29, x30, [sp, #32]             ; 16-byte Folded Reload
	add	sp, sp, #48
	ret
	.cfi_endproc
                                        ; -- End function
	.private_extern	__ZNSt3__116__variant_detail8__access7__union9__get_altB8ne180100IRKNS0_7__unionILNS0_6_TraitE1ELm1EJ5SLEEP4FREEEEELm1EEEODaOT_NS_16in_place_index_tIXT0_EEE ; -- Begin function _ZNSt3__116__variant_detail8__access7__union9__get_altB8ne180100IRKNS0_7__unionILNS0_6_TraitE1ELm1EJ5SLEEP4FREEEEELm1EEEODaOT_NS_16in_place_index_tIXT0_EEE
	.globl	__ZNSt3__116__variant_detail8__access7__union9__get_altB8ne180100IRKNS0_7__unionILNS0_6_TraitE1ELm1EJ5SLEEP4FREEEEELm1EEEODaOT_NS_16in_place_index_tIXT0_EEE
	.weak_definition	__ZNSt3__116__variant_detail8__access7__union9__get_altB8ne180100IRKNS0_7__unionILNS0_6_TraitE1ELm1EJ5SLEEP4FREEEEELm1EEEODaOT_NS_16in_place_index_tIXT0_EEE
	.p2align	2
__ZNSt3__116__variant_detail8__access7__union9__get_altB8ne180100IRKNS0_7__unionILNS0_6_TraitE1ELm1EJ5SLEEP4FREEEEELm1EEEODaOT_NS_16in_place_index_tIXT0_EEE: ; @_ZNSt3__116__variant_detail8__access7__union9__get_altB8ne180100IRKNS0_7__unionILNS0_6_TraitE1ELm1EJ5SLEEP4FREEEEELm1EEEODaOT_NS_16in_place_index_tIXT0_EEE
	.cfi_startproc
; %bb.0:
	sub	sp, sp, #48
	stp	x29, x30, [sp, #32]             ; 16-byte Folded Spill
	add	x29, sp, #32
	.cfi_def_cfa w29, 16
	.cfi_offset w30, -8
	.cfi_offset w29, -16
	str	x0, [sp, #16]
	ldr	x0, [sp, #16]
	bl	__ZNSt3__116__variant_detail8__access7__union9__get_altB8ne180100IRKNS0_7__unionILNS0_6_TraitE1ELm2EJ4FREEEEEEEODaOT_NS_16in_place_index_tILm0EEE
	ldp	x29, x30, [sp, #32]             ; 16-byte Folded Reload
	add	sp, sp, #48
	ret
	.cfi_endproc
                                        ; -- End function
	.private_extern	__ZNSt3__116__variant_detail8__access7__union9__get_altB8ne180100IRKNS0_7__unionILNS0_6_TraitE1ELm2EJ4FREEEEEEEODaOT_NS_16in_place_index_tILm0EEE ; -- Begin function _ZNSt3__116__variant_detail8__access7__union9__get_altB8ne180100IRKNS0_7__unionILNS0_6_TraitE1ELm2EJ4FREEEEEEEODaOT_NS_16in_place_index_tILm0EEE
	.globl	__ZNSt3__116__variant_detail8__access7__union9__get_altB8ne180100IRKNS0_7__unionILNS0_6_TraitE1ELm2EJ4FREEEEEEEODaOT_NS_16in_place_index_tILm0EEE
	.weak_definition	__ZNSt3__116__variant_detail8__access7__union9__get_altB8ne180100IRKNS0_7__unionILNS0_6_TraitE1ELm2EJ4FREEEEEEEODaOT_NS_16in_place_index_tILm0EEE
	.p2align	2
__ZNSt3__116__variant_detail8__access7__union9__get_altB8ne180100IRKNS0_7__unionILNS0_6_TraitE1ELm2EJ4FREEEEEEEODaOT_NS_16in_place_index_tILm0EEE: ; @_ZNSt3__116__variant_detail8__access7__union9__get_altB8ne180100IRKNS0_7__unionILNS0_6_TraitE1ELm2EJ4FREEEEEEEODaOT_NS_16in_place_index_tILm0EEE
	.cfi_startproc
; %bb.0:
	sub	sp, sp, #16
	.cfi_def_cfa_offset 16
	str	x0, [sp]
	ldr	x0, [sp]
	add	sp, sp, #16
	ret
	.cfi_endproc
                                        ; -- End function
	.private_extern	__ZNSt3__119__holds_alternativeB8ne180100ILm0EJ7Break_t6None_tEEEbRKNS_7variantIJDpT0_EEE ; -- Begin function _ZNSt3__119__holds_alternativeB8ne180100ILm0EJ7Break_t6None_tEEEbRKNS_7variantIJDpT0_EEE
	.globl	__ZNSt3__119__holds_alternativeB8ne180100ILm0EJ7Break_t6None_tEEEbRKNS_7variantIJDpT0_EEE
	.weak_definition	__ZNSt3__119__holds_alternativeB8ne180100ILm0EJ7Break_t6None_tEEEbRKNS_7variantIJDpT0_EEE
	.p2align	2
__ZNSt3__119__holds_alternativeB8ne180100ILm0EJ7Break_t6None_tEEEbRKNS_7variantIJDpT0_EEE: ; @_ZNSt3__119__holds_alternativeB8ne180100ILm0EJ7Break_t6None_tEEEbRKNS_7variantIJDpT0_EEE
	.cfi_startproc
; %bb.0:
	sub	sp, sp, #32
	stp	x29, x30, [sp, #16]             ; 16-byte Folded Spill
	add	x29, sp, #16
	.cfi_def_cfa w29, 16
	.cfi_offset w30, -8
	.cfi_offset w29, -16
	str	x0, [sp, #8]
	ldr	x0, [sp, #8]
	bl	__ZNKSt3__17variantIJ7Break_t6None_tEE5indexB8ne180100Ev
	subs	x8, x0, #0
	cset	w8, eq
	and	w0, w8, #0x1
	ldp	x29, x30, [sp, #16]             ; 16-byte Folded Reload
	add	sp, sp, #32
	ret
	.cfi_endproc
                                        ; -- End function
	.private_extern	__ZNKSt3__17variantIJ7Break_t6None_tEE5indexB8ne180100Ev ; -- Begin function _ZNKSt3__17variantIJ7Break_t6None_tEE5indexB8ne180100Ev
	.globl	__ZNKSt3__17variantIJ7Break_t6None_tEE5indexB8ne180100Ev
	.weak_definition	__ZNKSt3__17variantIJ7Break_t6None_tEE5indexB8ne180100Ev
	.p2align	2
__ZNKSt3__17variantIJ7Break_t6None_tEE5indexB8ne180100Ev: ; @_ZNKSt3__17variantIJ7Break_t6None_tEE5indexB8ne180100Ev
	.cfi_startproc
; %bb.0:
	sub	sp, sp, #32
	stp	x29, x30, [sp, #16]             ; 16-byte Folded Spill
	add	x29, sp, #16
	.cfi_def_cfa w29, 16
	.cfi_offset w30, -8
	.cfi_offset w29, -16
	str	x0, [sp, #8]
	ldr	x0, [sp, #8]
	bl	__ZNKSt3__116__variant_detail6__baseILNS0_6_TraitE1EJ7Break_t6None_tEE5indexB8ne180100Ev
	ldp	x29, x30, [sp, #16]             ; 16-byte Folded Reload
	add	sp, sp, #32
	ret
	.cfi_endproc
                                        ; -- End function
	.private_extern	__ZNKSt3__116__variant_detail6__baseILNS0_6_TraitE1EJ7Break_t6None_tEE5indexB8ne180100Ev ; -- Begin function _ZNKSt3__116__variant_detail6__baseILNS0_6_TraitE1EJ7Break_t6None_tEE5indexB8ne180100Ev
	.globl	__ZNKSt3__116__variant_detail6__baseILNS0_6_TraitE1EJ7Break_t6None_tEE5indexB8ne180100Ev
	.weak_definition	__ZNKSt3__116__variant_detail6__baseILNS0_6_TraitE1EJ7Break_t6None_tEE5indexB8ne180100Ev
	.p2align	2
__ZNKSt3__116__variant_detail6__baseILNS0_6_TraitE1EJ7Break_t6None_tEE5indexB8ne180100Ev: ; @_ZNKSt3__116__variant_detail6__baseILNS0_6_TraitE1EJ7Break_t6None_tEE5indexB8ne180100Ev
	.cfi_startproc
; %bb.0:
	sub	sp, sp, #32
	.cfi_def_cfa_offset 32
	str	x0, [sp, #24]
	ldr	x8, [sp, #24]
	str	x8, [sp, #16]                   ; 8-byte Folded Spill
	ldr	w8, [x8, #24]
	adds	w8, w8, #1
	cset	w8, ne
	tbnz	w8, #0, LBB154_2
	b	LBB154_1
LBB154_1:
	mov	x8, #-1                         ; =0xffffffffffffffff
	str	x8, [sp, #8]                    ; 8-byte Folded Spill
	b	LBB154_3
LBB154_2:
	ldr	x8, [sp, #16]                   ; 8-byte Folded Reload
	ldr	w8, [x8, #24]
                                        ; kill: def $x8 killed $w8
	str	x8, [sp, #8]                    ; 8-byte Folded Spill
	b	LBB154_3
LBB154_3:
	ldr	x0, [sp, #8]                    ; 8-byte Folded Reload
	add	sp, sp, #32
	ret
	.cfi_endproc
                                        ; -- End function
	.private_extern	__ZNSt3__13getB8ne180100ILm0EJ7Break_t6None_tEEERKNS_19variant_alternativeIXT_ENS_7variantIJDpT0_EEEE4typeERKS7_ ; -- Begin function _ZNSt3__13getB8ne180100ILm0EJ7Break_t6None_tEEERKNS_19variant_alternativeIXT_ENS_7variantIJDpT0_EEEE4typeERKS7_
	.globl	__ZNSt3__13getB8ne180100ILm0EJ7Break_t6None_tEEERKNS_19variant_alternativeIXT_ENS_7variantIJDpT0_EEEE4typeERKS7_
	.weak_definition	__ZNSt3__13getB8ne180100ILm0EJ7Break_t6None_tEEERKNS_19variant_alternativeIXT_ENS_7variantIJDpT0_EEEE4typeERKS7_
	.p2align	2
__ZNSt3__13getB8ne180100ILm0EJ7Break_t6None_tEEERKNS_19variant_alternativeIXT_ENS_7variantIJDpT0_EEEE4typeERKS7_: ; @_ZNSt3__13getB8ne180100ILm0EJ7Break_t6None_tEEERKNS_19variant_alternativeIXT_ENS_7variantIJDpT0_EEEE4typeERKS7_
	.cfi_startproc
; %bb.0:
	sub	sp, sp, #32
	stp	x29, x30, [sp, #16]             ; 16-byte Folded Spill
	add	x29, sp, #16
	.cfi_def_cfa w29, 16
	.cfi_offset w30, -8
	.cfi_offset w29, -16
	str	x0, [sp, #8]
	ldr	x0, [sp, #8]
	bl	__ZNSt3__113__generic_getB8ne180100ILm0ERKNS_7variantIJ7Break_t6None_tEEEEEODaOT0_
	ldp	x29, x30, [sp, #16]             ; 16-byte Folded Reload
	add	sp, sp, #32
	ret
	.cfi_endproc
                                        ; -- End function
	.private_extern	__ZNSt3__113__generic_getB8ne180100ILm0ERKNS_7variantIJ7Break_t6None_tEEEEEODaOT0_ ; -- Begin function _ZNSt3__113__generic_getB8ne180100ILm0ERKNS_7variantIJ7Break_t6None_tEEEEEODaOT0_
	.globl	__ZNSt3__113__generic_getB8ne180100ILm0ERKNS_7variantIJ7Break_t6None_tEEEEEODaOT0_
	.weak_definition	__ZNSt3__113__generic_getB8ne180100ILm0ERKNS_7variantIJ7Break_t6None_tEEEEEODaOT0_
	.p2align	2
__ZNSt3__113__generic_getB8ne180100ILm0ERKNS_7variantIJ7Break_t6None_tEEEEEODaOT0_: ; @_ZNSt3__113__generic_getB8ne180100ILm0ERKNS_7variantIJ7Break_t6None_tEEEEEODaOT0_
	.cfi_startproc
; %bb.0:
	sub	sp, sp, #32
	stp	x29, x30, [sp, #16]             ; 16-byte Folded Spill
	add	x29, sp, #16
	.cfi_def_cfa w29, 16
	.cfi_offset w30, -8
	.cfi_offset w29, -16
	str	x0, [sp, #8]
	ldr	x0, [sp, #8]
	bl	__ZNSt3__119__holds_alternativeB8ne180100ILm0EJ7Break_t6None_tEEEbRKNS_7variantIJDpT0_EEE
	tbnz	w0, #0, LBB156_2
	b	LBB156_1
LBB156_1:
	bl	__ZNSt3__126__throw_bad_variant_accessB8ne180100Ev
LBB156_2:
	ldr	x0, [sp, #8]
	bl	__ZNSt3__116__variant_detail8__access9__variant9__get_altB8ne180100ILm0ERKNS_7variantIJ7Break_t6None_tEEEEEODaOT0_
	ldp	x29, x30, [sp, #16]             ; 16-byte Folded Reload
	add	sp, sp, #32
	ret
	.cfi_endproc
                                        ; -- End function
	.private_extern	__ZNSt3__116__variant_detail8__access9__variant9__get_altB8ne180100ILm0ERKNS_7variantIJ7Break_t6None_tEEEEEODaOT0_ ; -- Begin function _ZNSt3__116__variant_detail8__access9__variant9__get_altB8ne180100ILm0ERKNS_7variantIJ7Break_t6None_tEEEEEODaOT0_
	.globl	__ZNSt3__116__variant_detail8__access9__variant9__get_altB8ne180100ILm0ERKNS_7variantIJ7Break_t6None_tEEEEEODaOT0_
	.weak_definition	__ZNSt3__116__variant_detail8__access9__variant9__get_altB8ne180100ILm0ERKNS_7variantIJ7Break_t6None_tEEEEEODaOT0_
	.p2align	2
__ZNSt3__116__variant_detail8__access9__variant9__get_altB8ne180100ILm0ERKNS_7variantIJ7Break_t6None_tEEEEEODaOT0_: ; @_ZNSt3__116__variant_detail8__access9__variant9__get_altB8ne180100ILm0ERKNS_7variantIJ7Break_t6None_tEEEEEODaOT0_
	.cfi_startproc
; %bb.0:
	sub	sp, sp, #32
	stp	x29, x30, [sp, #16]             ; 16-byte Folded Spill
	add	x29, sp, #16
	.cfi_def_cfa w29, 16
	.cfi_offset w30, -8
	.cfi_offset w29, -16
	str	x0, [sp, #8]
	ldr	x0, [sp, #8]
	bl	__ZNSt3__116__variant_detail8__access6__base9__get_altB8ne180100ILm0ERKNS0_6__implIJ7Break_t6None_tEEEEEODaOT0_
	ldp	x29, x30, [sp, #16]             ; 16-byte Folded Reload
	add	sp, sp, #32
	ret
	.cfi_endproc
                                        ; -- End function
	.private_extern	__ZNSt3__116__variant_detail8__access6__base9__get_altB8ne180100ILm0ERKNS0_6__implIJ7Break_t6None_tEEEEEODaOT0_ ; -- Begin function _ZNSt3__116__variant_detail8__access6__base9__get_altB8ne180100ILm0ERKNS0_6__implIJ7Break_t6None_tEEEEEODaOT0_
	.globl	__ZNSt3__116__variant_detail8__access6__base9__get_altB8ne180100ILm0ERKNS0_6__implIJ7Break_t6None_tEEEEEODaOT0_
	.weak_definition	__ZNSt3__116__variant_detail8__access6__base9__get_altB8ne180100ILm0ERKNS0_6__implIJ7Break_t6None_tEEEEEODaOT0_
	.p2align	2
__ZNSt3__116__variant_detail8__access6__base9__get_altB8ne180100ILm0ERKNS0_6__implIJ7Break_t6None_tEEEEEODaOT0_: ; @_ZNSt3__116__variant_detail8__access6__base9__get_altB8ne180100ILm0ERKNS0_6__implIJ7Break_t6None_tEEEEEODaOT0_
	.cfi_startproc
; %bb.0:
	sub	sp, sp, #32
	stp	x29, x30, [sp, #16]             ; 16-byte Folded Spill
	add	x29, sp, #16
	.cfi_def_cfa w29, 16
	.cfi_offset w30, -8
	.cfi_offset w29, -16
	str	x0, [sp, #8]
	ldr	x0, [sp, #8]
	bl	__ZNSt3__116__variant_detail8__access7__union9__get_altB8ne180100IRKNS0_7__unionILNS0_6_TraitE1ELm0EJ7Break_t6None_tEEEEEODaOT_NS_16in_place_index_tILm0EEE
	ldp	x29, x30, [sp, #16]             ; 16-byte Folded Reload
	add	sp, sp, #32
	ret
	.cfi_endproc
                                        ; -- End function
	.private_extern	__ZNSt3__116__variant_detail8__access7__union9__get_altB8ne180100IRKNS0_7__unionILNS0_6_TraitE1ELm0EJ7Break_t6None_tEEEEEODaOT_NS_16in_place_index_tILm0EEE ; -- Begin function _ZNSt3__116__variant_detail8__access7__union9__get_altB8ne180100IRKNS0_7__unionILNS0_6_TraitE1ELm0EJ7Break_t6None_tEEEEEODaOT_NS_16in_place_index_tILm0EEE
	.globl	__ZNSt3__116__variant_detail8__access7__union9__get_altB8ne180100IRKNS0_7__unionILNS0_6_TraitE1ELm0EJ7Break_t6None_tEEEEEODaOT_NS_16in_place_index_tILm0EEE
	.weak_definition	__ZNSt3__116__variant_detail8__access7__union9__get_altB8ne180100IRKNS0_7__unionILNS0_6_TraitE1ELm0EJ7Break_t6None_tEEEEEODaOT_NS_16in_place_index_tILm0EEE
	.p2align	2
__ZNSt3__116__variant_detail8__access7__union9__get_altB8ne180100IRKNS0_7__unionILNS0_6_TraitE1ELm0EJ7Break_t6None_tEEEEEODaOT_NS_16in_place_index_tILm0EEE: ; @_ZNSt3__116__variant_detail8__access7__union9__get_altB8ne180100IRKNS0_7__unionILNS0_6_TraitE1ELm0EJ7Break_t6None_tEEEEEODaOT_NS_16in_place_index_tILm0EEE
	.cfi_startproc
; %bb.0:
	sub	sp, sp, #16
	.cfi_def_cfa_offset 16
	str	x0, [sp]
	ldr	x0, [sp]
	add	sp, sp, #16
	ret
	.cfi_endproc
                                        ; -- End function
	.private_extern	__ZNSt3__119__holds_alternativeB8ne180100ILm1EJ7Break_t6None_tEEEbRKNS_7variantIJDpT0_EEE ; -- Begin function _ZNSt3__119__holds_alternativeB8ne180100ILm1EJ7Break_t6None_tEEEbRKNS_7variantIJDpT0_EEE
	.globl	__ZNSt3__119__holds_alternativeB8ne180100ILm1EJ7Break_t6None_tEEEbRKNS_7variantIJDpT0_EEE
	.weak_definition	__ZNSt3__119__holds_alternativeB8ne180100ILm1EJ7Break_t6None_tEEEbRKNS_7variantIJDpT0_EEE
	.p2align	2
__ZNSt3__119__holds_alternativeB8ne180100ILm1EJ7Break_t6None_tEEEbRKNS_7variantIJDpT0_EEE: ; @_ZNSt3__119__holds_alternativeB8ne180100ILm1EJ7Break_t6None_tEEEbRKNS_7variantIJDpT0_EEE
	.cfi_startproc
; %bb.0:
	sub	sp, sp, #32
	stp	x29, x30, [sp, #16]             ; 16-byte Folded Spill
	add	x29, sp, #16
	.cfi_def_cfa w29, 16
	.cfi_offset w30, -8
	.cfi_offset w29, -16
	str	x0, [sp, #8]
	ldr	x0, [sp, #8]
	bl	__ZNKSt3__17variantIJ7Break_t6None_tEE5indexB8ne180100Ev
	subs	x8, x0, #1
	cset	w8, eq
	and	w0, w8, #0x1
	ldp	x29, x30, [sp, #16]             ; 16-byte Folded Reload
	add	sp, sp, #32
	ret
	.cfi_endproc
                                        ; -- End function
	.private_extern	__ZNSt3__13getB8ne180100ILm1EJ7Break_t6None_tEEERKNS_19variant_alternativeIXT_ENS_7variantIJDpT0_EEEE4typeERKS7_ ; -- Begin function _ZNSt3__13getB8ne180100ILm1EJ7Break_t6None_tEEERKNS_19variant_alternativeIXT_ENS_7variantIJDpT0_EEEE4typeERKS7_
	.globl	__ZNSt3__13getB8ne180100ILm1EJ7Break_t6None_tEEERKNS_19variant_alternativeIXT_ENS_7variantIJDpT0_EEEE4typeERKS7_
	.weak_definition	__ZNSt3__13getB8ne180100ILm1EJ7Break_t6None_tEEERKNS_19variant_alternativeIXT_ENS_7variantIJDpT0_EEEE4typeERKS7_
	.p2align	2
__ZNSt3__13getB8ne180100ILm1EJ7Break_t6None_tEEERKNS_19variant_alternativeIXT_ENS_7variantIJDpT0_EEEE4typeERKS7_: ; @_ZNSt3__13getB8ne180100ILm1EJ7Break_t6None_tEEERKNS_19variant_alternativeIXT_ENS_7variantIJDpT0_EEEE4typeERKS7_
	.cfi_startproc
; %bb.0:
	sub	sp, sp, #32
	stp	x29, x30, [sp, #16]             ; 16-byte Folded Spill
	add	x29, sp, #16
	.cfi_def_cfa w29, 16
	.cfi_offset w30, -8
	.cfi_offset w29, -16
	str	x0, [sp, #8]
	ldr	x0, [sp, #8]
	bl	__ZNSt3__113__generic_getB8ne180100ILm1ERKNS_7variantIJ7Break_t6None_tEEEEEODaOT0_
	ldp	x29, x30, [sp, #16]             ; 16-byte Folded Reload
	add	sp, sp, #32
	ret
	.cfi_endproc
                                        ; -- End function
	.private_extern	__ZNSt3__113__generic_getB8ne180100ILm1ERKNS_7variantIJ7Break_t6None_tEEEEEODaOT0_ ; -- Begin function _ZNSt3__113__generic_getB8ne180100ILm1ERKNS_7variantIJ7Break_t6None_tEEEEEODaOT0_
	.globl	__ZNSt3__113__generic_getB8ne180100ILm1ERKNS_7variantIJ7Break_t6None_tEEEEEODaOT0_
	.weak_definition	__ZNSt3__113__generic_getB8ne180100ILm1ERKNS_7variantIJ7Break_t6None_tEEEEEODaOT0_
	.p2align	2
__ZNSt3__113__generic_getB8ne180100ILm1ERKNS_7variantIJ7Break_t6None_tEEEEEODaOT0_: ; @_ZNSt3__113__generic_getB8ne180100ILm1ERKNS_7variantIJ7Break_t6None_tEEEEEODaOT0_
	.cfi_startproc
; %bb.0:
	sub	sp, sp, #32
	stp	x29, x30, [sp, #16]             ; 16-byte Folded Spill
	add	x29, sp, #16
	.cfi_def_cfa w29, 16
	.cfi_offset w30, -8
	.cfi_offset w29, -16
	str	x0, [sp, #8]
	ldr	x0, [sp, #8]
	bl	__ZNSt3__119__holds_alternativeB8ne180100ILm1EJ7Break_t6None_tEEEbRKNS_7variantIJDpT0_EEE
	tbnz	w0, #0, LBB162_2
	b	LBB162_1
LBB162_1:
	bl	__ZNSt3__126__throw_bad_variant_accessB8ne180100Ev
LBB162_2:
	ldr	x0, [sp, #8]
	bl	__ZNSt3__116__variant_detail8__access9__variant9__get_altB8ne180100ILm1ERKNS_7variantIJ7Break_t6None_tEEEEEODaOT0_
	ldp	x29, x30, [sp, #16]             ; 16-byte Folded Reload
	add	sp, sp, #32
	ret
	.cfi_endproc
                                        ; -- End function
	.private_extern	__ZNSt3__116__variant_detail8__access9__variant9__get_altB8ne180100ILm1ERKNS_7variantIJ7Break_t6None_tEEEEEODaOT0_ ; -- Begin function _ZNSt3__116__variant_detail8__access9__variant9__get_altB8ne180100ILm1ERKNS_7variantIJ7Break_t6None_tEEEEEODaOT0_
	.globl	__ZNSt3__116__variant_detail8__access9__variant9__get_altB8ne180100ILm1ERKNS_7variantIJ7Break_t6None_tEEEEEODaOT0_
	.weak_definition	__ZNSt3__116__variant_detail8__access9__variant9__get_altB8ne180100ILm1ERKNS_7variantIJ7Break_t6None_tEEEEEODaOT0_
	.p2align	2
__ZNSt3__116__variant_detail8__access9__variant9__get_altB8ne180100ILm1ERKNS_7variantIJ7Break_t6None_tEEEEEODaOT0_: ; @_ZNSt3__116__variant_detail8__access9__variant9__get_altB8ne180100ILm1ERKNS_7variantIJ7Break_t6None_tEEEEEODaOT0_
	.cfi_startproc
; %bb.0:
	sub	sp, sp, #32
	stp	x29, x30, [sp, #16]             ; 16-byte Folded Spill
	add	x29, sp, #16
	.cfi_def_cfa w29, 16
	.cfi_offset w30, -8
	.cfi_offset w29, -16
	str	x0, [sp, #8]
	ldr	x0, [sp, #8]
	bl	__ZNSt3__116__variant_detail8__access6__base9__get_altB8ne180100ILm1ERKNS0_6__implIJ7Break_t6None_tEEEEEODaOT0_
	ldp	x29, x30, [sp, #16]             ; 16-byte Folded Reload
	add	sp, sp, #32
	ret
	.cfi_endproc
                                        ; -- End function
	.private_extern	__ZNSt3__116__variant_detail8__access6__base9__get_altB8ne180100ILm1ERKNS0_6__implIJ7Break_t6None_tEEEEEODaOT0_ ; -- Begin function _ZNSt3__116__variant_detail8__access6__base9__get_altB8ne180100ILm1ERKNS0_6__implIJ7Break_t6None_tEEEEEODaOT0_
	.globl	__ZNSt3__116__variant_detail8__access6__base9__get_altB8ne180100ILm1ERKNS0_6__implIJ7Break_t6None_tEEEEEODaOT0_
	.weak_definition	__ZNSt3__116__variant_detail8__access6__base9__get_altB8ne180100ILm1ERKNS0_6__implIJ7Break_t6None_tEEEEEODaOT0_
	.p2align	2
__ZNSt3__116__variant_detail8__access6__base9__get_altB8ne180100ILm1ERKNS0_6__implIJ7Break_t6None_tEEEEEODaOT0_: ; @_ZNSt3__116__variant_detail8__access6__base9__get_altB8ne180100ILm1ERKNS0_6__implIJ7Break_t6None_tEEEEEODaOT0_
	.cfi_startproc
; %bb.0:
	sub	sp, sp, #32
	stp	x29, x30, [sp, #16]             ; 16-byte Folded Spill
	add	x29, sp, #16
	.cfi_def_cfa w29, 16
	.cfi_offset w30, -8
	.cfi_offset w29, -16
	str	x0, [sp, #8]
	ldr	x0, [sp, #8]
	bl	__ZNSt3__116__variant_detail8__access7__union9__get_altB8ne180100IRKNS0_7__unionILNS0_6_TraitE1ELm0EJ7Break_t6None_tEEELm1EEEODaOT_NS_16in_place_index_tIXT0_EEE
	ldp	x29, x30, [sp, #16]             ; 16-byte Folded Reload
	add	sp, sp, #32
	ret
	.cfi_endproc
                                        ; -- End function
	.private_extern	__ZNSt3__116__variant_detail8__access7__union9__get_altB8ne180100IRKNS0_7__unionILNS0_6_TraitE1ELm0EJ7Break_t6None_tEEELm1EEEODaOT_NS_16in_place_index_tIXT0_EEE ; -- Begin function _ZNSt3__116__variant_detail8__access7__union9__get_altB8ne180100IRKNS0_7__unionILNS0_6_TraitE1ELm0EJ7Break_t6None_tEEELm1EEEODaOT_NS_16in_place_index_tIXT0_EEE
	.globl	__ZNSt3__116__variant_detail8__access7__union9__get_altB8ne180100IRKNS0_7__unionILNS0_6_TraitE1ELm0EJ7Break_t6None_tEEELm1EEEODaOT_NS_16in_place_index_tIXT0_EEE
	.weak_definition	__ZNSt3__116__variant_detail8__access7__union9__get_altB8ne180100IRKNS0_7__unionILNS0_6_TraitE1ELm0EJ7Break_t6None_tEEELm1EEEODaOT_NS_16in_place_index_tIXT0_EEE
	.p2align	2
__ZNSt3__116__variant_detail8__access7__union9__get_altB8ne180100IRKNS0_7__unionILNS0_6_TraitE1ELm0EJ7Break_t6None_tEEELm1EEEODaOT_NS_16in_place_index_tIXT0_EEE: ; @_ZNSt3__116__variant_detail8__access7__union9__get_altB8ne180100IRKNS0_7__unionILNS0_6_TraitE1ELm0EJ7Break_t6None_tEEELm1EEEODaOT_NS_16in_place_index_tIXT0_EEE
	.cfi_startproc
; %bb.0:
	sub	sp, sp, #48
	stp	x29, x30, [sp, #32]             ; 16-byte Folded Spill
	add	x29, sp, #32
	.cfi_def_cfa w29, 16
	.cfi_offset w30, -8
	.cfi_offset w29, -16
	str	x0, [sp, #16]
	ldr	x0, [sp, #16]
	bl	__ZNSt3__116__variant_detail8__access7__union9__get_altB8ne180100IRKNS0_7__unionILNS0_6_TraitE1ELm1EJ6None_tEEEEEODaOT_NS_16in_place_index_tILm0EEE
	ldp	x29, x30, [sp, #32]             ; 16-byte Folded Reload
	add	sp, sp, #48
	ret
	.cfi_endproc
                                        ; -- End function
