---
triple:          'arm64-apple-darwin'
binary-path:     main
relocations:
  - { offset: 0x5C, size: 0x8, addend: 0x0, symName: __ZNSt3__114in_place_indexILm0EEE, symObjAddr: 0xD729, symBinAddr: 0x10000F8A9, symSize: 0x0 }
  - { offset: 0xA1, size: 0x8, addend: 0x0, symName: __ZNSt3__18in_placeE, symObjAddr: 0xD72A, symBinAddr: 0x10000F8AA, symSize: 0x0 }
  - { offset: 0x102, size: 0x8, addend: 0x0, symName: __ZNSt3__114in_place_indexILm1EEE, symObjAddr: 0xD72B, symBinAddr: 0x10000F8AB, symSize: 0x0 }
  - { offset: 0x147, size: 0x8, addend: 0x0, symName: __ZNSt3__114in_place_indexILm2EEE, symObjAddr: 0xD72C, symBinAddr: 0x10000F8AC, symSize: 0x0 }
  - { offset: 0xA34D, size: 0x8, addend: 0x0, symName: __ZNSt3__16copy_nB8ne180100IPKcmPcLi0EEET1_T_T0_S4_, symObjAddr: 0xB45C, symBinAddr: 0x10000D258, symSize: 0x44 }
  - { offset: 0xA7C0, size: 0x8, addend: 0x0, symName: __ZNSt3__122__make_exception_guardB8ne180100INS_6vectorINS1_INS_4pairIhhEENS_9allocatorIS3_EEEENS4_IS6_EEE16__destroy_vectorEEENS_28__exception_guard_exceptionsIT_EESB_, symObjAddr: 0x17D8, symBinAddr: 0x1000035D4, symSize: 0x40 }
  - { offset: 0xA7F5, size: 0x8, addend: 0x0, symName: __ZNSt3__119__allocate_at_leastB8ne180100INS_9allocatorINS_6vectorINS_4pairIhhEENS1_IS4_EEEEEEEENS_19__allocation_resultINS_16allocator_traitsIT_E7pointerEEERSA_m, symObjAddr: 0x1AC8, symBinAddr: 0x1000038C4, symSize: 0x40 }
  - { offset: 0xA838, size: 0x8, addend: 0x0, symName: __ZNSt3__13minB8ne180100ImEERKT_S3_S3_, symObjAddr: 0x1B6C, symBinAddr: 0x100003968, symSize: 0x2C }
  - { offset: 0xAA65, size: 0x8, addend: 0x0, symName: __ZNSt3__13minB8ne180100ImNS_6__lessIvvEEEERKT_S5_S5_T0_, symObjAddr: 0x1BE0, symBinAddr: 0x1000039DC, symSize: 0x54 }
  - { offset: 0xAB04, size: 0x8, addend: 0x0, symName: __ZNSt3__120__throw_length_errorB8ne180100EPKc, symObjAddr: 0x1C88, symBinAddr: 0x100003A84, symSize: 0x64 }
  - { offset: 0xAB2C, size: 0x8, addend: 0x0, symName: __ZNSt3__117__libcpp_allocateB8ne180100Emm, symObjAddr: 0x1DF4, symBinAddr: 0x100003BF0, symSize: 0x60 }
  - { offset: 0xAB86, size: 0x8, addend: 0x0, symName: __ZNSt3__124__is_overaligned_for_newB8ne180100Em, symObjAddr: 0x1E54, symBinAddr: 0x100003C50, symSize: 0x20 }
  - { offset: 0xABB4, size: 0x8, addend: 0x0, symName: __ZNSt3__121__libcpp_operator_newB8ne180100IJmSt11align_val_tEEEPvDpT_, symObjAddr: 0x1E74, symBinAddr: 0x100003C70, symSize: 0x2C }
  - { offset: 0xAC01, size: 0x8, addend: 0x0, symName: __ZNSt3__121__libcpp_operator_newB8ne180100IJmEEEPvDpT_, symObjAddr: 0x1EA0, symBinAddr: 0x100003C9C, symSize: 0x24 }
  - { offset: 0xAC3A, size: 0x8, addend: 0x0, symName: __ZNSt3__130__uninitialized_allocator_copyB8ne180100INS_9allocatorINS_6vectorINS_4pairIhhEENS1_IS4_EEEEEEPS6_S8_S8_EET2_RT_T0_T1_S9_, symObjAddr: 0x1F70, symBinAddr: 0x100003D6C, symSize: 0x80 }
  - { offset: 0xACD7, size: 0x8, addend: 0x0, symName: __ZNSt3__114__unwrap_rangeB8ne180100IPNS_6vectorINS_4pairIhhEENS_9allocatorIS3_EEEES7_EENS2_IT0_S8_EET_SA_, symObjAddr: 0x2068, symBinAddr: 0x100003E64, symSize: 0x60 }
  - { offset: 0xAD23, size: 0x8, addend: 0x0, symName: __ZNSt3__135__uninitialized_allocator_copy_implB8ne180100INS_9allocatorINS_6vectorINS_4pairIhhEENS1_IS4_EEEEEEPS6_S8_S8_EET2_RT_T0_T1_S9_, symObjAddr: 0x20C8, symBinAddr: 0x100003EC4, symSize: 0xF4 }
  - { offset: 0xADC1, size: 0x8, addend: 0x0, symName: __ZNSt3__113__unwrap_iterB8ne180100IPNS_6vectorINS_4pairIhhEENS_9allocatorIS3_EEEENS_18__unwrap_iter_implIS7_Lb1EEELi0EEEDTclsrT0_8__unwrapclsr3stdE7declvalIT_EEEESB_, symObjAddr: 0x21BC, symBinAddr: 0x100003FB8, symSize: 0x24 }
  - { offset: 0xAE05, size: 0x8, addend: 0x0, symName: __ZNSt3__113__rewrap_iterB8ne180100IPNS_6vectorINS_4pairIhhEENS_9allocatorIS3_EEEES7_NS_18__unwrap_iter_implIS7_Lb1EEEEET_SA_T0_, symObjAddr: 0x21E0, symBinAddr: 0x100003FDC, symSize: 0x3C }
  - { offset: 0xAE5A, size: 0x8, addend: 0x0, symName: __ZNSt3__19make_pairB8ne180100IPNS_6vectorINS_4pairIhhEENS_9allocatorIS3_EEEES7_EENS2_INS_18__unwrap_ref_decayIT_E4typeENS8_IT0_E4typeEEEOS9_OSC_, symObjAddr: 0x221C, symBinAddr: 0x100004018, symSize: 0x38 }
  - { offset: 0xAF7D, size: 0x8, addend: 0x0, symName: __ZNSt3__122__make_exception_guardB8ne180100INS_29_AllocatorDestroyRangeReverseINS_9allocatorINS_6vectorINS_4pairIhhEENS2_IS5_EEEEEEPS7_EEEENS_28__exception_guard_exceptionsIT_EESC_, symObjAddr: 0x22C4, symBinAddr: 0x1000040C0, symSize: 0x4C }
  - { offset: 0xAFB3, size: 0x8, addend: 0x0, symName: __ZNSt3__112__to_addressB8ne180100INS_6vectorINS_4pairIhhEENS_9allocatorIS3_EEEEEEPT_S8_, symObjAddr: 0x2388, symBinAddr: 0x100004184, symSize: 0x14 }
  - { offset: 0xAFE8, size: 0x8, addend: 0x0, symName: __ZNSt3__122__make_exception_guardB8ne180100INS_6vectorINS_4pairIhhEENS_9allocatorIS3_EEE16__destroy_vectorEEENS_28__exception_guard_exceptionsIT_EES9_, symObjAddr: 0x277C, symBinAddr: 0x100004578, symSize: 0x40 }
  - { offset: 0xB01D, size: 0x8, addend: 0x0, symName: __ZNSt3__119__allocate_at_leastB8ne180100INS_9allocatorINS_4pairIhhEEEEEENS_19__allocation_resultINS_16allocator_traitsIT_E7pointerEEERS7_m, symObjAddr: 0x2A64, symBinAddr: 0x100004860, symSize: 0x40 }
  - { offset: 0xB060, size: 0x8, addend: 0x0, symName: __ZNSt3__130__uninitialized_allocator_copyB8ne180100INS_9allocatorINS_4pairIhhEEEEPS3_S5_S5_EET2_RT_T0_T1_S6_, symObjAddr: 0x2C44, symBinAddr: 0x100004A40, symSize: 0x80 }
  - { offset: 0xB0FD, size: 0x8, addend: 0x0, symName: __ZNSt3__114__unwrap_rangeB8ne180100IPNS_4pairIhhEES3_EENS1_IT0_S4_EET_S6_, symObjAddr: 0x2D34, symBinAddr: 0x100004B30, symSize: 0x60 }
  - { offset: 0xB149, size: 0x8, addend: 0x0, symName: __ZNSt3__135__uninitialized_allocator_copy_implB8ne180100INS_9allocatorINS_4pairIhhEEEEPS3_S5_S5_EET2_RT_T0_T1_S6_, symObjAddr: 0x2D94, symBinAddr: 0x100004B90, symSize: 0xF4 }
  - { offset: 0xB1E7, size: 0x8, addend: 0x0, symName: __ZNSt3__113__unwrap_iterB8ne180100IPNS_4pairIhhEENS_18__unwrap_iter_implIS3_Lb1EEELi0EEEDTclsrT0_8__unwrapclsr3stdE7declvalIT_EEEES7_, symObjAddr: 0x2E88, symBinAddr: 0x100004C84, symSize: 0x24 }
  - { offset: 0xB22B, size: 0x8, addend: 0x0, symName: __ZNSt3__113__rewrap_iterB8ne180100IPNS_4pairIhhEES3_NS_18__unwrap_iter_implIS3_Lb1EEEEET_S6_T0_, symObjAddr: 0x2EAC, symBinAddr: 0x100004CA8, symSize: 0x3C }
  - { offset: 0xB280, size: 0x8, addend: 0x0, symName: __ZNSt3__19make_pairB8ne180100IPNS_4pairIhhEES3_EENS1_INS_18__unwrap_ref_decayIT_E4typeENS4_IT0_E4typeEEEOS5_OS8_, symObjAddr: 0x2EE8, symBinAddr: 0x100004CE4, symSize: 0x38 }
  - { offset: 0xB3A3, size: 0x8, addend: 0x0, symName: __ZNSt3__122__make_exception_guardB8ne180100INS_29_AllocatorDestroyRangeReverseINS_9allocatorINS_4pairIhhEEEEPS4_EEEENS_28__exception_guard_exceptionsIT_EES9_, symObjAddr: 0x2F90, symBinAddr: 0x100004D8C, symSize: 0x4C }
  - { offset: 0xB3D9, size: 0x8, addend: 0x0, symName: __ZNSt3__112__to_addressB8ne180100INS_4pairIhhEEEEPT_S4_, symObjAddr: 0x3054, symBinAddr: 0x100004E50, symSize: 0x14 }
  - { offset: 0xB40E, size: 0x8, addend: 0x0, symName: __ZNSt3__119__allocator_destroyB8ne180100INS_9allocatorINS_4pairIhhEEEENS_16reverse_iteratorIPS3_EES7_EEvRT_T0_T1_, symObjAddr: 0x322C, symBinAddr: 0x100005028, symSize: 0x70 }
  - { offset: 0xB471, size: 0x8, addend: 0x0, symName: __ZNSt3__1neB8ne180100IPNS_4pairIhhEES3_EEbRKNS_16reverse_iteratorIT_EERKNS4_IT0_EE, symObjAddr: 0x32D0, symBinAddr: 0x1000050CC, symSize: 0x48 }
  - { offset: 0xB4BD, size: 0x8, addend: 0x0, symName: __ZNSt3__112__to_addressB8ne180100INS_16reverse_iteratorIPNS_4pairIhhEEEEvEEu7__decayIDTclsr19__to_address_helperIT_EE6__callclsr3stdE7declvalIRKS6_EEEEES8_, symObjAddr: 0x3344, symBinAddr: 0x100005140, symSize: 0x24 }
  - { offset: 0xB56F, size: 0x8, addend: 0x0, symName: __ZNSt3__119__libcpp_deallocateB8ne180100EPvmm, symObjAddr: 0x374C, symBinAddr: 0x100005548, symSize: 0x60 }
  - { offset: 0xB5D4, size: 0x8, addend: 0x0, symName: __ZNSt3__127__do_deallocate_handle_sizeB8ne180100IJSt11align_val_tEEEvPvmDpT_, symObjAddr: 0x37AC, symBinAddr: 0x1000055A8, symSize: 0x30 }
  - { offset: 0xB627, size: 0x8, addend: 0x0, symName: __ZNSt3__127__do_deallocate_handle_sizeB8ne180100IJEEEvPvmDpT_, symObjAddr: 0x37DC, symBinAddr: 0x1000055D8, symSize: 0x28 }
  - { offset: 0xB665, size: 0x8, addend: 0x0, symName: __ZNSt3__124__libcpp_operator_deleteB8ne180100IJPvSt11align_val_tEEEvDpT_, symObjAddr: 0x3804, symBinAddr: 0x100005600, symSize: 0x2C }
  - { offset: 0xB6AE, size: 0x8, addend: 0x0, symName: __ZNSt3__124__libcpp_operator_deleteB8ne180100IJPvEEEvDpT_, symObjAddr: 0x3830, symBinAddr: 0x10000562C, symSize: 0x24 }
  - { offset: 0xB6E3, size: 0x8, addend: 0x0, symName: __ZNSt3__119__allocator_destroyB8ne180100INS_9allocatorINS_6vectorINS_4pairIhhEENS1_IS4_EEEEEENS_16reverse_iteratorIPS6_EESA_EEvRT_T0_T1_, symObjAddr: 0x396C, symBinAddr: 0x100005768, symSize: 0x70 }
  - { offset: 0xB746, size: 0x8, addend: 0x0, symName: __ZNSt3__1neB8ne180100IPNS_6vectorINS_4pairIhhEENS_9allocatorIS3_EEEES7_EEbRKNS_16reverse_iteratorIT_EERKNS8_IT0_EE, symObjAddr: 0x3A10, symBinAddr: 0x10000580C, symSize: 0x48 }
  - { offset: 0xB792, size: 0x8, addend: 0x0, symName: __ZNSt3__112__to_addressB8ne180100INS_16reverse_iteratorIPNS_6vectorINS_4pairIhhEENS_9allocatorIS4_EEEEEEvEEu7__decayIDTclsr19__to_address_helperIT_EE6__callclsr3stdE7declvalIRKSA_EEEEESC_, symObjAddr: 0x3A84, symBinAddr: 0x100005880, symSize: 0x24 }
  - { offset: 0xB88A, size: 0x8, addend: 0x0, symName: __ZNSt3__18__invokeB8ne180100IZNS_16__variant_detail6__dtorINS1_8__traitsIJ11UniCourse_t6Mand_tEEELNS1_6_TraitE1EE9__destroyB8ne180100EvEUlRT_E_JRNS1_5__altILm0ES4_EEEEEDTclclsr3stdE7declvalIS9_EEspclsr3stdE7declvalIT0_EEEEOS9_DpOSF_, symObjAddr: 0x4364, symBinAddr: 0x100006160, symSize: 0x2C }
  - { offset: 0xB8D7, size: 0x8, addend: 0x0, symName: __ZNSt3__18__invokeB8ne180100IZNS_16__variant_detail6__dtorINS1_8__traitsIJ11UniCourse_t6Mand_tEEELNS1_6_TraitE1EE9__destroyB8ne180100EvEUlRT_E_JRNS1_5__altILm1ES5_EEEEEDTclclsr3stdE7declvalIS9_EEspclsr3stdE7declvalIT0_EEEEOS9_DpOSF_, symObjAddr: 0x4448, symBinAddr: 0x100006244, symSize: 0x2C }
  - { offset: 0xB96A, size: 0x8, addend: 0x0, symName: __ZNSt3__18__invokeB8ne180100IZNS_16__variant_detail6__dtorINS1_8__traitsIJ7Break_t6None_tEEELNS1_6_TraitE1EE9__destroyB8ne180100EvEUlRT_E_JRNS1_5__altILm0ES4_EEEEEDTclclsr3stdE7declvalIS9_EEspclsr3stdE7declvalIT0_EEEEOS9_DpOSF_, symObjAddr: 0x5174, symBinAddr: 0x100006F70, symSize: 0x2C }
  - { offset: 0xB9B7, size: 0x8, addend: 0x0, symName: __ZNSt3__18__invokeB8ne180100IZNS_16__variant_detail6__dtorINS1_8__traitsIJ7Break_t6None_tEEELNS1_6_TraitE1EE9__destroyB8ne180100EvEUlRT_E_JRNS1_5__altILm1ES5_EEEEEDTclclsr3stdE7declvalIS9_EEspclsr3stdE7declvalIT0_EEEEOS9_DpOSF_, symObjAddr: 0x5258, symBinAddr: 0x100007054, symSize: 0x2C }
  - { offset: 0xBA4A, size: 0x8, addend: 0x0, symName: __ZNSt3__18__invokeB8ne180100IZNS_16__variant_detail6__ctorINS1_8__traitsIJ11UniCourse_t6Mand_tEEEE19__generic_constructB8ne180100IRKNS1_18__copy_constructorIS6_LNS1_6_TraitE1EEEEEvRS7_OT_EUlRSF_OT0_E_JRNS1_5__altILm0ES4_EERKSM_EEEDTclclsr3stdE7declvalISF_EEspclsr3stdE7declvalIT0_EEEESG_DpOSQ_, symObjAddr: 0x5CEC, symBinAddr: 0x100007AE8, symSize: 0x34 }
  - { offset: 0xBAAB, size: 0x8, addend: 0x0, symName: __ZNSt3__18__invokeB8ne180100IZNS_16__variant_detail6__ctorINS1_8__traitsIJ11UniCourse_t6Mand_tEEEE19__generic_constructB8ne180100IRKNS1_18__copy_constructorIS6_LNS1_6_TraitE1EEEEEvRS7_OT_EUlRSF_OT0_E_JRNS1_5__altILm1ES5_EERKSM_EEEDTclclsr3stdE7declvalISF_EEspclsr3stdE7declvalIT0_EEEESG_DpOSQ_, symObjAddr: 0x5E20, symBinAddr: 0x100007C1C, symSize: 0x34 }
  - { offset: 0xBB52, size: 0x8, addend: 0x0, symName: __ZNSt3__18__invokeB8ne180100IZNS_16__variant_detail6__ctorINS1_8__traitsIJ7Break_t6None_tEEEE19__generic_constructB8ne180100IRKNS1_18__copy_constructorIS6_LNS1_6_TraitE1EEEEEvRS7_OT_EUlRSF_OT0_E_JRNS1_5__altILm0ES4_EERKSM_EEEDTclclsr3stdE7declvalISF_EEspclsr3stdE7declvalIT0_EEEESG_DpOSQ_, symObjAddr: 0x6540, symBinAddr: 0x10000833C, symSize: 0x34 }
  - { offset: 0xBBB3, size: 0x8, addend: 0x0, symName: __ZNSt3__18__invokeB8ne180100IZNS_16__variant_detail6__ctorINS1_8__traitsIJ7Break_t6None_tEEEE19__generic_constructB8ne180100IRKNS1_18__copy_constructorIS6_LNS1_6_TraitE1EEEEEvRS7_OT_EUlRSF_OT0_E_JRNS1_5__altILm1ES5_EERKSM_EEEDTclclsr3stdE7declvalISF_EEspclsr3stdE7declvalIT0_EEEESG_DpOSQ_, symObjAddr: 0x6674, symBinAddr: 0x100008470, symSize: 0x34 }
  - { offset: 0xBC14, size: 0x8, addend: 0x0, symName: __ZNSt3__112__to_addressB8ne180100IP10Activity_tEEPT_S4_, symObjAddr: 0x6E9C, symBinAddr: 0x100008C98, symSize: 0x14 }
  - { offset: 0xBC49, size: 0x8, addend: 0x0, symName: __ZNSt3__13maxB8ne180100ImEERKT_S3_S3_, symObjAddr: 0x72B8, symBinAddr: 0x1000090B4, symSize: 0x2C }
  - { offset: 0xBC8C, size: 0x8, addend: 0x0, symName: __ZNSt3__13maxB8ne180100ImNS_6__lessIvvEEEERKT_S5_S5_T0_, symObjAddr: 0x73DC, symBinAddr: 0x1000091D8, symSize: 0x54 }
  - { offset: 0xBCE6, size: 0x8, addend: 0x0, symName: __ZNSt3__119__allocate_at_leastB8ne180100INS_9allocatorIP10Activity_tEEEENS_19__allocation_resultINS_16allocator_traitsIT_E7pointerEEERS7_m, symObjAddr: 0x7540, symBinAddr: 0x10000933C, symSize: 0x40 }
  - { offset: 0xBD29, size: 0x8, addend: 0x0, symName: __ZNSt3__142__uninitialized_allocator_move_if_noexceptB8ne180100INS_9allocatorIP10Activity_tEENS_16reverse_iteratorIPS3_EES7_S3_vEET1_RT_T0_SB_S8_, symObjAddr: 0x7704, symBinAddr: 0x100009500, symSize: 0x78 }
  - { offset: 0xBDA6, size: 0x8, addend: 0x0, symName: __ZNSt3__14swapB8ne180100IPP10Activity_tEENS_9enable_ifIXaasr21is_move_constructibleIT_EE5valuesr18is_move_assignableIS5_EE5valueEvE4typeERS5_S8_, symObjAddr: 0x77C8, symBinAddr: 0x1000095C4, symSize: 0x3C }
  - { offset: 0xBDF7, size: 0x8, addend: 0x0, symName: __ZNSt3__14moveB8ne180100INS_16reverse_iteratorIPP10Activity_tEES5_EET0_T_S7_S6_, symObjAddr: 0x7818, symBinAddr: 0x100009614, symSize: 0x78 }
  - { offset: 0xBE51, size: 0x8, addend: 0x0, symName: __ZNSt3__16__moveB8ne180100INS_17_ClassicAlgPolicyENS_16reverse_iteratorIPP10Activity_tEES6_S6_EENS_4pairIT0_T2_EES8_T1_S9_, symObjAddr: 0x7890, symBinAddr: 0x10000968C, symSize: 0x64 }
  - { offset: 0xBEBD, size: 0x8, addend: 0x0, symName: __ZNSt3__123__dispatch_copy_or_moveB8ne180100INS_17_ClassicAlgPolicyENS_11__move_loopIS1_EENS_14__move_trivialENS_16reverse_iteratorIPP10Activity_tEES9_S9_EENS_4pairIT2_T4_EESB_T3_SC_, symObjAddr: 0x78F4, symBinAddr: 0x1000096F0, symSize: 0x64 }
  - { offset: 0xBF3B, size: 0x8, addend: 0x0, symName: __ZNSt3__121__unwrap_and_dispatchB8ne180100INS_10__overloadINS_11__move_loopINS_17_ClassicAlgPolicyEEENS_14__move_trivialEEENS_16reverse_iteratorIPP10Activity_tEESB_SB_Li0EEENS_4pairIT0_T2_EESD_T1_SE_, symObjAddr: 0x7958, symBinAddr: 0x100009754, symSize: 0x12C }
  - { offset: 0xBFCB, size: 0x8, addend: 0x0, symName: __ZNSt3__114__unwrap_rangeB8ne180100INS_16reverse_iteratorIPP10Activity_tEES5_EENS_4pairIT0_S7_EET_S9_, symObjAddr: 0x7A84, symBinAddr: 0x100009880, symSize: 0x84 }
  - { offset: 0xC146, size: 0x8, addend: 0x0, symName: __ZNSt3__113__unwrap_iterB8ne180100INS_16reverse_iteratorIPP10Activity_tEENS_18__unwrap_iter_implIS5_Lb0EEELi0EEEDTclsrT0_8__unwrapclsr3stdE7declvalIT_EEEES9_, symObjAddr: 0x7BA8, symBinAddr: 0x1000099A4, symSize: 0x44 }
  - { offset: 0xC18A, size: 0x8, addend: 0x0, symName: __ZNSt3__19make_pairB8ne180100INS_16reverse_iteratorIPP10Activity_tEES5_EENS_4pairINS_18__unwrap_ref_decayIT_E4typeENS7_IT0_E4typeEEEOS8_OSB_, symObjAddr: 0x7BEC, symBinAddr: 0x1000099E8, symSize: 0x38 }
  - { offset: 0xC1D9, size: 0x8, addend: 0x0, symName: __ZNSt3__114__rewrap_rangeB8ne180100INS_16reverse_iteratorIPP10Activity_tEES5_EET_S6_T0_, symObjAddr: 0x7C24, symBinAddr: 0x100009A20, symSize: 0x5C }
  - { offset: 0xC225, size: 0x8, addend: 0x0, symName: __ZNSt3__113__rewrap_iterB8ne180100INS_16reverse_iteratorIPP10Activity_tEES5_NS_18__unwrap_iter_implIS5_Lb0EEEEET_S8_T0_, symObjAddr: 0x7C80, symBinAddr: 0x100009A7C, symSize: 0x74 }
  - { offset: 0xC27A, size: 0x8, addend: 0x0, symName: __ZNSt3__1neB8ne180100IPP10Activity_tS3_EEbRKNS_16reverse_iteratorIT_EERKNS4_IT0_EE, symObjAddr: 0x7CF4, symBinAddr: 0x100009AF0, symSize: 0x48 }
  - { offset: 0xC370, size: 0x8, addend: 0x0, symName: __ZNSt3__13getB8ne180100ILm0EhhEEONS_13tuple_elementIXT_ENS_4pairIT0_T1_EEE4typeEOS5_, symObjAddr: 0x8784, symBinAddr: 0x10000A580, symSize: 0x24 }
  - { offset: 0xC3BA, size: 0x8, addend: 0x0, symName: __ZNSt3__13getB8ne180100ILm1EhhEEONS_13tuple_elementIXT_ENS_4pairIT0_T1_EEE4typeEOS5_, symObjAddr: 0x87A8, symBinAddr: 0x10000A5A4, symSize: 0x24 }
  - { offset: 0xC404, size: 0x8, addend: 0x0, symName: __ZNSt3__117holds_alternativeB8ne180100I4FREEJ4WORK5SLEEPS1_EEEbRKNS_7variantIJDpT0_EEE, symObjAddr: 0x8828, symBinAddr: 0x10000A624, symSize: 0x28 }
  - { offset: 0xC450, size: 0x8, addend: 0x0, symName: __ZNSt3__13getB8ne180100I4FREEJ4WORK5SLEEPS1_EEERT_RNS_7variantIJDpT0_EEE, symObjAddr: 0x8850, symBinAddr: 0x10000A64C, symSize: 0x24 }
  - { offset: 0xC49C, size: 0x8, addend: 0x0, symName: __ZNSt3__117holds_alternativeB8ne180100I6None_tJ7Break_tS1_EEEbRKNS_7variantIJDpT0_EEE, symObjAddr: 0x8874, symBinAddr: 0x10000A670, symSize: 0x28 }
  - { offset: 0xC5A3, size: 0x8, addend: 0x0, symName: __ZNSt3__18__invokeB8ne180100IZNS_16__variant_detail6__dtorINS1_8__traitsIJ4WORK5SLEEP4FREEEEELNS1_6_TraitE1EE9__destroyB8ne180100EvEUlRT_E_JRNS1_5__altILm0ES4_EEEEEDTclclsr3stdE7declvalISA_EEspclsr3stdE7declvalIT0_EEEEOSA_DpOSG_, symObjAddr: 0x8F50, symBinAddr: 0x10000AD4C, symSize: 0x2C }
  - { offset: 0xC5F0, size: 0x8, addend: 0x0, symName: __ZNSt3__18__invokeB8ne180100IZNS_16__variant_detail6__dtorINS1_8__traitsIJ4WORK5SLEEP4FREEEEELNS1_6_TraitE1EE9__destroyB8ne180100EvEUlRT_E_JRNS1_5__altILm1ES5_EEEEEDTclclsr3stdE7declvalISA_EEspclsr3stdE7declvalIT0_EEEEOSA_DpOSG_, symObjAddr: 0x9034, symBinAddr: 0x10000AE30, symSize: 0x2C }
  - { offset: 0xC63D, size: 0x8, addend: 0x0, symName: __ZNSt3__18__invokeB8ne180100IZNS_16__variant_detail6__dtorINS1_8__traitsIJ4WORK5SLEEP4FREEEEELNS1_6_TraitE1EE9__destroyB8ne180100EvEUlRT_E_JRNS1_5__altILm2ES6_EEEEEDTclclsr3stdE7declvalISA_EEspclsr3stdE7declvalIT0_EEEEOSA_DpOSG_, symObjAddr: 0x913C, symBinAddr: 0x10000AF38, symSize: 0x2C }
  - { offset: 0xC6D0, size: 0x8, addend: 0x0, symName: __ZNSt3__18__invokeB8ne180100IZNS_16__variant_detail6__ctorINS1_8__traitsIJ4WORK5SLEEP4FREEEEEE19__generic_constructB8ne180100IRKNS1_18__copy_constructorIS7_LNS1_6_TraitE1EEEEEvRS8_OT_EUlRSG_OT0_E_JRNS1_5__altILm0ES4_EERKSN_EEEDTclclsr3stdE7declvalISG_EEspclsr3stdE7declvalIT0_EEEESH_DpOSR_, symObjAddr: 0x93C0, symBinAddr: 0x10000B1BC, symSize: 0x34 }
  - { offset: 0xC731, size: 0x8, addend: 0x0, symName: __ZNSt3__18__invokeB8ne180100IZNS_16__variant_detail6__ctorINS1_8__traitsIJ4WORK5SLEEP4FREEEEEE19__generic_constructB8ne180100IRKNS1_18__copy_constructorIS7_LNS1_6_TraitE1EEEEEvRS8_OT_EUlRSG_OT0_E_JRNS1_5__altILm1ES5_EERKSN_EEEDTclclsr3stdE7declvalISG_EEspclsr3stdE7declvalIT0_EEEESH_DpOSR_, symObjAddr: 0x94F4, symBinAddr: 0x10000B2F0, symSize: 0x34 }
  - { offset: 0xC792, size: 0x8, addend: 0x0, symName: __ZNSt3__18__invokeB8ne180100IZNS_16__variant_detail6__ctorINS1_8__traitsIJ4WORK5SLEEP4FREEEEEE19__generic_constructB8ne180100IRKNS1_18__copy_constructorIS7_LNS1_6_TraitE1EEEEEvRS8_OT_EUlRSG_OT0_E_JRNS1_5__altILm2ES6_EERKSN_EEEDTclclsr3stdE7declvalISG_EEspclsr3stdE7declvalIT0_EEEESH_DpOSR_, symObjAddr: 0x964C, symBinAddr: 0x10000B448, symSize: 0x34 }
  - { offset: 0xC7F3, size: 0x8, addend: 0x0, symName: __ZNSt3__119__holds_alternativeB8ne180100ILm2EJ4WORK5SLEEP4FREEEEEbRKNS_7variantIJDpT0_EEE, symObjAddr: 0x98C0, symBinAddr: 0x10000B6BC, symSize: 0x30 }
  - { offset: 0xC840, size: 0x8, addend: 0x0, symName: __ZNSt3__13getB8ne180100ILm2EJ4WORK5SLEEP4FREEEEERNS_19variant_alternativeIXT_ENS_7variantIJDpT0_EEEE4typeERS8_, symObjAddr: 0x9918, symBinAddr: 0x10000B714, symSize: 0x24 }
  - { offset: 0xC88D, size: 0x8, addend: 0x0, symName: __ZNSt3__113__generic_getB8ne180100ILm2ERNS_7variantIJ4WORK5SLEEP4FREEEEEEEODaOT0_, symObjAddr: 0x993C, symBinAddr: 0x10000B738, symSize: 0x38 }
  - { offset: 0xC8D6, size: 0x8, addend: 0x0, symName: __ZNSt3__126__throw_bad_variant_accessB8ne180100Ev, symObjAddr: 0x9974, symBinAddr: 0x10000B770, symSize: 0x38 }
  - { offset: 0xC8F0, size: 0x8, addend: 0x0, symName: __ZNSt3__119__holds_alternativeB8ne180100ILm1EJ7Break_t6None_tEEEbRKNS_7variantIJDpT0_EEE, symObjAddr: 0x9ADC, symBinAddr: 0x10000B8D8, symSize: 0x30 }
  - { offset: 0xC938, size: 0x8, addend: 0x0, symName: __ZNSt3__117holds_alternativeB8ne180100I4WORKJS1_5SLEEP4FREEEEEbRKNS_7variantIJDpT0_EEE, symObjAddr: 0xA140, symBinAddr: 0x10000BF3C, symSize: 0x28 }
  - { offset: 0xC984, size: 0x8, addend: 0x0, symName: __ZNSt3__13getB8ne180100I4WORKJS1_5SLEEP4FREEEEERT_RNS_7variantIJDpT0_EEE, symObjAddr: 0xA168, symBinAddr: 0x10000BF64, symSize: 0x24 }
  - { offset: 0xC9D0, size: 0x8, addend: 0x0, symName: __ZNSt3__117holds_alternativeB8ne180100I11UniCourse_tJS1_6Mand_tEEEbRKNS_7variantIJDpT0_EEE, symObjAddr: 0xA18C, symBinAddr: 0x10000BF88, symSize: 0x28 }
  - { offset: 0xCA17, size: 0x8, addend: 0x0, symName: __ZNSt3__13getB8ne180100I11UniCourse_tJS1_6Mand_tEEERKT_RKNS_7variantIJDpT0_EEE, symObjAddr: 0xA1B4, symBinAddr: 0x10000BFB0, symSize: 0x24 }
  - { offset: 0xCA5E, size: 0x8, addend: 0x0, symName: __ZNSt3__117holds_alternativeB8ne180100I6Mand_tJ11UniCourse_tS1_EEEbRKNS_7variantIJDpT0_EEE, symObjAddr: 0xA228, symBinAddr: 0x10000C024, symSize: 0x28 }
  - { offset: 0xCAA5, size: 0x8, addend: 0x0, symName: __ZNSt3__13getB8ne180100I6Mand_tJ11UniCourse_tS1_EEERKT_RKNS_7variantIJDpT0_EEE, symObjAddr: 0xA250, symBinAddr: 0x10000C04C, symSize: 0x24 }
  - { offset: 0xCAEC, size: 0x8, addend: 0x0, symName: __ZNSt3__117holds_alternativeB8ne180100I5SLEEPJ4WORKS1_4FREEEEEbRKNS_7variantIJDpT0_EEE, symObjAddr: 0xA274, symBinAddr: 0x10000C070, symSize: 0x28 }
  - { offset: 0xCB38, size: 0x8, addend: 0x0, symName: __ZNSt3__13getB8ne180100I5SLEEPJ4WORKS1_4FREEEEERT_RNS_7variantIJDpT0_EEE, symObjAddr: 0xA29C, symBinAddr: 0x10000C098, symSize: 0x24 }
  - { offset: 0xCB84, size: 0x8, addend: 0x0, symName: __ZNSt3__117holds_alternativeB8ne180100I7Break_tJS1_6None_tEEEbRKNS_7variantIJDpT0_EEE, symObjAddr: 0xA2C0, symBinAddr: 0x10000C0BC, symSize: 0x28 }
  - { offset: 0xCBCB, size: 0x8, addend: 0x0, symName: __ZNSt3__13getB8ne180100I7Break_tJS1_6None_tEEERKT_RKNS_7variantIJDpT0_EEE, symObjAddr: 0xA2E8, symBinAddr: 0x10000C0E4, symSize: 0x24 }
  - { offset: 0xCC12, size: 0x8, addend: 0x0, symName: __ZNSt3__13getB8ne180100I6None_tJ7Break_tS1_EEERKT_RKNS_7variantIJDpT0_EEE, symObjAddr: 0xA30C, symBinAddr: 0x10000C108, symSize: 0x24 }
  - { offset: 0xCC59, size: 0x8, addend: 0x0, symName: __ZNSt3__1plB8ne180100IcNS_11char_traitsIcEENS_9allocatorIcEEEENS_12basic_stringIT_T0_T1_EEPKS6_OS9_, symObjAddr: 0xA380, symBinAddr: 0x10000C17C, symSize: 0x44 }
  - { offset: 0xCCB1, size: 0x8, addend: 0x0, symName: __ZNSt3__1plB8ne180100IcNS_11char_traitsIcEENS_9allocatorIcEEEENS_12basic_stringIT_T0_T1_EERKS9_SB_, symObjAddr: 0xA424, symBinAddr: 0x10000C220, symSize: 0x134 }
  - { offset: 0xCD85, size: 0x8, addend: 0x0, symName: __ZNSt3__112__to_addressB8ne180100IcEEPT_S2_, symObjAddr: 0xADD4, symBinAddr: 0x10000CBD0, symSize: 0x14 }
  - { offset: 0xCFA6, size: 0x8, addend: 0x0, symName: __ZNSt3__14copyB8ne180100IPKcPcEET0_T_S5_S4_, symObjAddr: 0xB4A0, symBinAddr: 0x10000D29C, symSize: 0x40 }
  - { offset: 0xD000, size: 0x8, addend: 0x0, symName: __ZNSt3__16__copyB8ne180100INS_17_ClassicAlgPolicyEPKcS3_PcEENS_4pairIT0_T2_EES6_T1_S7_, symObjAddr: 0xB4E0, symBinAddr: 0x10000D2DC, symSize: 0x44 }
  - { offset: 0xD06C, size: 0x8, addend: 0x0, symName: __ZNSt3__123__dispatch_copy_or_moveB8ne180100INS_17_ClassicAlgPolicyENS_11__copy_loopIS1_EENS_14__copy_trivialEPKcS6_PcEENS_4pairIT2_T4_EES9_T3_SA_, symObjAddr: 0xB524, symBinAddr: 0x10000D320, symSize: 0x44 }
  - { offset: 0xD0EA, size: 0x8, addend: 0x0, symName: __ZNSt3__121__unwrap_and_dispatchB8ne180100INS_10__overloadINS_11__copy_loopINS_17_ClassicAlgPolicyEEENS_14__copy_trivialEEEPKcS8_PcLi0EEENS_4pairIT0_T2_EESB_T1_SC_, symObjAddr: 0xB568, symBinAddr: 0x10000D364, symSize: 0xB4 }
  - { offset: 0xD178, size: 0x8, addend: 0x0, symName: __ZNSt3__114__unwrap_rangeB8ne180100IPKcS2_EENS_4pairIT0_S4_EET_S6_, symObjAddr: 0xB61C, symBinAddr: 0x10000D418, symSize: 0x60 }
  - { offset: 0xD30D, size: 0x8, addend: 0x0, symName: __ZNSt3__113__unwrap_iterB8ne180100IPcNS_18__unwrap_iter_implIS1_Lb1EEELi0EEEDTclsrT0_8__unwrapclsr3stdE7declvalIT_EEEES5_, symObjAddr: 0xB6C4, symBinAddr: 0x10000D4C0, symSize: 0x24 }
  - { offset: 0xD351, size: 0x8, addend: 0x0, symName: __ZNSt3__19make_pairB8ne180100IPKcPcEENS_4pairINS_18__unwrap_ref_decayIT_E4typeENS5_IT0_E4typeEEEOS6_OS9_, symObjAddr: 0xB6E8, symBinAddr: 0x10000D4E4, symSize: 0x38 }
  - { offset: 0xD3A0, size: 0x8, addend: 0x0, symName: __ZNSt3__114__rewrap_rangeB8ne180100IPKcS2_EET_S3_T0_, symObjAddr: 0xB720, symBinAddr: 0x10000D51C, symSize: 0x2C }
  - { offset: 0xD3EC, size: 0x8, addend: 0x0, symName: __ZNSt3__113__rewrap_iterB8ne180100IPcS1_NS_18__unwrap_iter_implIS1_Lb1EEEEET_S4_T0_, symObjAddr: 0xB74C, symBinAddr: 0x10000D548, symSize: 0x3C }
  - { offset: 0xD441, size: 0x8, addend: 0x0, symName: __ZNSt3__19make_pairB8ne180100IPKcS2_EENS_4pairINS_18__unwrap_ref_decayIT_E4typeENS4_IT0_E4typeEEEOS5_OS8_, symObjAddr: 0xB788, symBinAddr: 0x10000D584, symSize: 0x38 }
  - { offset: 0xD490, size: 0x8, addend: 0x0, symName: __ZNSt3__113__unwrap_iterB8ne180100IPKcNS_18__unwrap_iter_implIS2_Lb1EEELi0EEEDTclsrT0_8__unwrapclsr3stdE7declvalIT_EEEES6_, symObjAddr: 0xB7C0, symBinAddr: 0x10000D5BC, symSize: 0x24 }
  - { offset: 0xD5FB, size: 0x8, addend: 0x0, symName: __ZNSt3__112__to_addressB8ne180100IKcEEPT_S3_, symObjAddr: 0xB878, symBinAddr: 0x10000D674, symSize: 0x14 }
  - { offset: 0xD630, size: 0x8, addend: 0x0, symName: __ZNSt3__119__copy_trivial_implB8ne180100IKccEENS_4pairIPT_PT0_EES4_S4_S6_, symObjAddr: 0xB88C, symBinAddr: 0x10000D688, symSize: 0x78 }
  - { offset: 0xD698, size: 0x8, addend: 0x0, symName: __ZNSt3__119__constexpr_memmoveB8ne180100IcKcLi0EEEPT_S3_PT0_NS_15__element_countE, symObjAddr: 0xB904, symBinAddr: 0x10000D700, symSize: 0x64 }
  - { offset: 0xD706, size: 0x8, addend: 0x0, symName: __ZNSt3__19make_pairB8ne180100IRPKcPcEENS_4pairINS_18__unwrap_ref_decayIT_E4typeENS6_IT0_E4typeEEEOS7_OSA_, symObjAddr: 0xB968, symBinAddr: 0x10000D764, symSize: 0x38 }
  - { offset: 0xD7A8, size: 0x8, addend: 0x0, symName: __ZNSt3__113__rewrap_iterB8ne180100IPKcS2_NS_18__unwrap_iter_implIS2_Lb1EEEEET_S5_T0_, symObjAddr: 0xBAA4, symBinAddr: 0x10000D8A0, symSize: 0x3C }
  - { offset: 0xD830, size: 0x8, addend: 0x0, symName: __ZNSt3__16fill_nB8ne180100IPcmcEET_S2_T0_RKT1_, symObjAddr: 0xBC28, symBinAddr: 0x10000DA24, symSize: 0x44 }
  - { offset: 0xD893, size: 0x8, addend: 0x0, symName: __ZNSt3__18__fill_nB8ne180100IPcmcEET_S2_T0_RKT1_, symObjAddr: 0xBC6C, symBinAddr: 0x10000DA68, symSize: 0x64 }
  - { offset: 0xD8F6, size: 0x8, addend: 0x0, symName: __ZNSt3__121__convert_to_integralB8ne180100Em, symObjAddr: 0xBCD0, symBinAddr: 0x10000DACC, symSize: 0x14 }
  - { offset: 0xD922, size: 0x8, addend: 0x0, symName: __ZNSt3__119__holds_alternativeB8ne180100ILm0EJ4WORK5SLEEP4FREEEEEbRKNS_7variantIJDpT0_EEE, symObjAddr: 0xBCE4, symBinAddr: 0x10000DAE0, symSize: 0x30 }
  - { offset: 0xD96F, size: 0x8, addend: 0x0, symName: __ZNSt3__13getB8ne180100ILm0EJ4WORK5SLEEP4FREEEEERNS_19variant_alternativeIXT_ENS_7variantIJDpT0_EEEE4typeERS8_, symObjAddr: 0xBD14, symBinAddr: 0x10000DB10, symSize: 0x24 }
  - { offset: 0xD9BC, size: 0x8, addend: 0x0, symName: __ZNSt3__113__generic_getB8ne180100ILm0ERNS_7variantIJ4WORK5SLEEP4FREEEEEEEODaOT0_, symObjAddr: 0xBD38, symBinAddr: 0x10000DB34, symSize: 0x38 }
  - { offset: 0xDA05, size: 0x8, addend: 0x0, symName: __ZNSt3__119__holds_alternativeB8ne180100ILm0EJ11UniCourse_t6Mand_tEEEbRKNS_7variantIJDpT0_EEE, symObjAddr: 0xBDBC, symBinAddr: 0x10000DBB8, symSize: 0x30 }
  - { offset: 0xDA4D, size: 0x8, addend: 0x0, symName: __ZNSt3__13getB8ne180100ILm0EJ11UniCourse_t6Mand_tEEERKNS_19variant_alternativeIXT_ENS_7variantIJDpT0_EEEE4typeERKS7_, symObjAddr: 0xBE10, symBinAddr: 0x10000DC0C, symSize: 0x24 }
  - { offset: 0xDA95, size: 0x8, addend: 0x0, symName: __ZNSt3__113__generic_getB8ne180100ILm0ERKNS_7variantIJ11UniCourse_t6Mand_tEEEEEODaOT0_, symObjAddr: 0xBE34, symBinAddr: 0x10000DC30, symSize: 0x38 }
  - { offset: 0xDADE, size: 0x8, addend: 0x0, symName: __ZNSt3__119__holds_alternativeB8ne180100ILm1EJ11UniCourse_t6Mand_tEEEbRKNS_7variantIJDpT0_EEE, symObjAddr: 0xBEB4, symBinAddr: 0x10000DCB0, symSize: 0x30 }
  - { offset: 0xDB26, size: 0x8, addend: 0x0, symName: __ZNSt3__13getB8ne180100ILm1EJ11UniCourse_t6Mand_tEEERKNS_19variant_alternativeIXT_ENS_7variantIJDpT0_EEEE4typeERKS7_, symObjAddr: 0xBEE4, symBinAddr: 0x10000DCE0, symSize: 0x24 }
  - { offset: 0xDB6E, size: 0x8, addend: 0x0, symName: __ZNSt3__113__generic_getB8ne180100ILm1ERKNS_7variantIJ11UniCourse_t6Mand_tEEEEEODaOT0_, symObjAddr: 0xBF08, symBinAddr: 0x10000DD04, symSize: 0x38 }
  - { offset: 0xDBB7, size: 0x8, addend: 0x0, symName: __ZNSt3__119__holds_alternativeB8ne180100ILm1EJ4WORK5SLEEP4FREEEEEbRKNS_7variantIJDpT0_EEE, symObjAddr: 0xBF88, symBinAddr: 0x10000DD84, symSize: 0x30 }
  - { offset: 0xDC04, size: 0x8, addend: 0x0, symName: __ZNSt3__13getB8ne180100ILm1EJ4WORK5SLEEP4FREEEEERNS_19variant_alternativeIXT_ENS_7variantIJDpT0_EEEE4typeERS8_, symObjAddr: 0xBFB8, symBinAddr: 0x10000DDB4, symSize: 0x24 }
  - { offset: 0xDC51, size: 0x8, addend: 0x0, symName: __ZNSt3__113__generic_getB8ne180100ILm1ERNS_7variantIJ4WORK5SLEEP4FREEEEEEEODaOT0_, symObjAddr: 0xBFDC, symBinAddr: 0x10000DDD8, symSize: 0x38 }
  - { offset: 0xDC9A, size: 0x8, addend: 0x0, symName: __ZNSt3__119__holds_alternativeB8ne180100ILm0EJ7Break_t6None_tEEEbRKNS_7variantIJDpT0_EEE, symObjAddr: 0xC060, symBinAddr: 0x10000DE5C, symSize: 0x30 }
  - { offset: 0xDCE2, size: 0x8, addend: 0x0, symName: __ZNSt3__13getB8ne180100ILm0EJ7Break_t6None_tEEERKNS_19variant_alternativeIXT_ENS_7variantIJDpT0_EEEE4typeERKS7_, symObjAddr: 0xC090, symBinAddr: 0x10000DE8C, symSize: 0x24 }
  - { offset: 0xDD2A, size: 0x8, addend: 0x0, symName: __ZNSt3__113__generic_getB8ne180100ILm0ERKNS_7variantIJ7Break_t6None_tEEEEEODaOT0_, symObjAddr: 0xC0B4, symBinAddr: 0x10000DEB0, symSize: 0x38 }
  - { offset: 0xDD73, size: 0x8, addend: 0x0, symName: __ZNSt3__13getB8ne180100ILm1EJ7Break_t6None_tEEERKNS_19variant_alternativeIXT_ENS_7variantIJDpT0_EEEE4typeERKS7_, symObjAddr: 0xC134, symBinAddr: 0x10000DF30, symSize: 0x24 }
  - { offset: 0xDDBB, size: 0x8, addend: 0x0, symName: __ZNSt3__113__generic_getB8ne180100ILm1ERKNS_7variantIJ7Break_t6None_tEEEEEODaOT0_, symObjAddr: 0xC158, symBinAddr: 0x10000DF54, symSize: 0x38 }
  - { offset: 0xEF74, size: 0x8, addend: 0x0, symName: __ZSt28__throw_bad_array_new_lengthB8ne180100v, symObjAddr: 0x1DC0, symBinAddr: 0x100003BBC, symSize: 0x34 }
  - { offset: 0xF230, size: 0x8, addend: 0x0, symName: __ZN4Time9IdxToTimeEh, symObjAddr: 0x9E34, symBinAddr: 0x10000BC30, symSize: 0x30C }
  - { offset: 0xF24F, size: 0x8, addend: 0x0, symName: __ZZN4Time9IdxToTimeEhE7timeStr, symObjAddr: 0xD7A0, symBinAddr: 0x100014000, symSize: 0x0 }
  - { offset: 0xFEF8, size: 0x8, addend: 0x0, symName: __ZNSt3__16vectorIP10Activity_tNS_9allocatorIS2_EEE26__swap_out_circular_bufferERNS_14__split_bufferIS2_RS4_EE, symObjAddr: 0x70C0, symBinAddr: 0x100008EBC, symSize: 0x110 }
  - { offset: 0xFF6C, size: 0x8, addend: 0x0, symName: _main, symObjAddr: 0x0, symBinAddr: 0x100001DFC, symSize: 0x720 }
  - { offset: 0x100A3, size: 0x8, addend: 0x0, symName: __ZN6StringC1EPKc, symObjAddr: 0x720, symBinAddr: 0x10000251C, symSize: 0x34 }
  - { offset: 0x100DA, size: 0x8, addend: 0x0, symName: __ZN6StringC1ERKS_, symObjAddr: 0x754, symBinAddr: 0x100002550, symSize: 0x34 }
  - { offset: 0x10111, size: 0x8, addend: 0x0, symName: __ZNSt3__16vectorINS0_INS_4pairIhhEENS_9allocatorIS2_EEEENS3_IS5_EEEC1B8ne180100Ev, symObjAddr: 0x788, symBinAddr: 0x100002584, symSize: 0x2C }
  - { offset: 0x1013F, size: 0x8, addend: 0x0, symName: __ZN6None_tC1Ev, symObjAddr: 0x7B4, symBinAddr: 0x1000025B0, symSize: 0x2C }
  - { offset: 0x1016F, size: 0x8, addend: 0x0, symName: __ZNSt3__17variantIJ11UniCourse_t6Mand_tEEC1B8ne180100IRS1_Li0ELi0ELi0ES1_Lm0ELi0EEEOT_, symObjAddr: 0x7E0, symBinAddr: 0x1000025DC, symSize: 0x34 }
  - { offset: 0x101DB, size: 0x8, addend: 0x0, symName: __ZNSt3__17variantIJ11UniCourse_t6Mand_tEED1B8ne180100Ev, symObjAddr: 0x814, symBinAddr: 0x100002610, symSize: 0x2C }
  - { offset: 0x10209, size: 0x8, addend: 0x0, symName: __ZNSt3__17variantIJ11UniCourse_t6Mand_tEEC1B8ne180100IRS2_Li0ELi0ELi0ES2_Lm1ELi0EEEOT_, symObjAddr: 0x840, symBinAddr: 0x10000263C, symSize: 0x34 }
  - { offset: 0x10284, size: 0x8, addend: 0x0, symName: __ZN7Sleep_tC1ERKS_, symObjAddr: 0x874, symBinAddr: 0x100002670, symSize: 0x34 }
  - { offset: 0x102BD, size: 0x8, addend: 0x0, symName: __ZNSt3__17variantIJ7Break_t6None_tEEC1B8ne180100IRS1_Li0ELi0ELi0ES1_Lm0ELi0EEEOT_, symObjAddr: 0x8A8, symBinAddr: 0x1000026A4, symSize: 0x34 }
  - { offset: 0x10329, size: 0x8, addend: 0x0, symName: __ZNSt3__17variantIJ7Break_t6None_tEED1B8ne180100Ev, symObjAddr: 0x8DC, symBinAddr: 0x1000026D8, symSize: 0x2C }
  - { offset: 0x10357, size: 0x8, addend: 0x0, symName: __ZNSt3__17variantIJ7Break_t6None_tEEC1B8ne180100IRS2_Li0ELi0ELi0ES2_Lm1ELi0EEEOT_, symObjAddr: 0x908, symBinAddr: 0x100002704, symSize: 0x34 }
  - { offset: 0x103D2, size: 0x8, addend: 0x0, symName: __ZN4WORKC1ERKS_, symObjAddr: 0x93C, symBinAddr: 0x100002738, symSize: 0x34 }
  - { offset: 0x10406, size: 0x8, addend: 0x0, symName: __ZN10Activity_tC1I4WORKEET_hh, symObjAddr: 0x970, symBinAddr: 0x10000276C, symSize: 0x44 }
  - { offset: 0x10463, size: 0x8, addend: 0x0, symName: __ZN4WORKD1Ev, symObjAddr: 0x9B4, symBinAddr: 0x1000027B0, symSize: 0x2C }
  - { offset: 0x1049D, size: 0x8, addend: 0x0, symName: __ZN5SLEEPC1ERKS_, symObjAddr: 0x9E0, symBinAddr: 0x1000027DC, symSize: 0x34 }
  - { offset: 0x104D1, size: 0x8, addend: 0x0, symName: __ZN10Activity_tC1I5SLEEPEET_hh, symObjAddr: 0xA14, symBinAddr: 0x100002810, symSize: 0x44 }
  - { offset: 0x1052E, size: 0x8, addend: 0x0, symName: __ZN5SLEEPD1Ev, symObjAddr: 0xA58, symBinAddr: 0x100002854, symSize: 0x2C }
  - { offset: 0x10568, size: 0x8, addend: 0x0, symName: __ZN4FREEC1ERKS_, symObjAddr: 0xA84, symBinAddr: 0x100002880, symSize: 0x34 }
  - { offset: 0x1059C, size: 0x8, addend: 0x0, symName: __ZN10Activity_tC1I4FREEEET_hh, symObjAddr: 0xAB8, symBinAddr: 0x1000028B4, symSize: 0x44 }
  - { offset: 0x105F9, size: 0x8, addend: 0x0, symName: __ZN4FREED1Ev, symObjAddr: 0xAFC, symBinAddr: 0x1000028F8, symSize: 0x2C }
  - { offset: 0x10683, size: 0x8, addend: 0x0, symName: __ZN11TimeTable_tC1Ev, symObjAddr: 0xB28, symBinAddr: 0x100002924, symSize: 0x2C }
  - { offset: 0x106AC, size: 0x8, addend: 0x0, symName: __ZN11TimeTable_t6insertEP10Activity_t, symObjAddr: 0xB54, symBinAddr: 0x100002950, symSize: 0x198 }
  - { offset: 0x10750, size: 0x8, addend: 0x0, symName: __ZN11TimeTable_t5debugEv, symObjAddr: 0xCEC, symBinAddr: 0x100002AE8, symSize: 0x194 }
  - { offset: 0x107BB, size: 0x8, addend: 0x0, symName: __ZN11TimeTable_tD1Ev, symObjAddr: 0xE80, symBinAddr: 0x100002C7C, symSize: 0x2C }
  - { offset: 0x107E6, size: 0x8, addend: 0x0, symName: __ZN10Activity_tD1Ev, symObjAddr: 0xEAC, symBinAddr: 0x100002CA8, symSize: 0x2C }
  - { offset: 0x10811, size: 0x8, addend: 0x0, symName: __ZN6None_tD1Ev, symObjAddr: 0xED8, symBinAddr: 0x100002CD4, symSize: 0x2C }
  - { offset: 0x10841, size: 0x8, addend: 0x0, symName: __ZN7Break_tD1Ev, symObjAddr: 0xF04, symBinAddr: 0x100002D00, symSize: 0x2C }
  - { offset: 0x1086C, size: 0x8, addend: 0x0, symName: __ZN7Sleep_tD1Ev, symObjAddr: 0xF30, symBinAddr: 0x100002D2C, symSize: 0x2C }
  - { offset: 0x1089C, size: 0x8, addend: 0x0, symName: __ZN6Mand_tD1Ev, symObjAddr: 0xF5C, symBinAddr: 0x100002D58, symSize: 0x2C }
  - { offset: 0x108CC, size: 0x8, addend: 0x0, symName: __ZN11UniCourse_tD1Ev, symObjAddr: 0xF88, symBinAddr: 0x100002D84, symSize: 0x2C }
  - { offset: 0x108F7, size: 0x8, addend: 0x0, symName: __ZN6StringD1Ev, symObjAddr: 0xFB4, symBinAddr: 0x100002DB0, symSize: 0x2C }
  - { offset: 0x10920, size: 0x8, addend: 0x0, symName: __ZN6StringC2EPKc, symObjAddr: 0xFE0, symBinAddr: 0x100002DDC, symSize: 0x70 }
  - { offset: 0x10957, size: 0x8, addend: 0x0, symName: __ZNK6String8myStrlenEPKc, symObjAddr: 0x1050, symBinAddr: 0x100002E4C, symSize: 0x50 }
  - { offset: 0x10998, size: 0x8, addend: 0x0, symName: __ZN6StringC2ERKS_, symObjAddr: 0x10A0, symBinAddr: 0x100002E9C, symSize: 0x70 }
  - { offset: 0x109CF, size: 0x8, addend: 0x0, symName: __ZN6None_tC2Ev, symObjAddr: 0x1110, symBinAddr: 0x100002F0C, symSize: 0x34 }
  - { offset: 0x109FA, size: 0x8, addend: 0x0, symName: __ZNSt3__17variantIJ11UniCourse_t6Mand_tEEC2B8ne180100IRS1_Li0ELi0ELi0ES1_Lm0ELi0EEEOT_, symObjAddr: 0x1144, symBinAddr: 0x100002F40, symSize: 0x34 }
  - { offset: 0x10A66, size: 0x8, addend: 0x0, symName: __ZNSt3__116__variant_detail6__implIJ11UniCourse_t6Mand_tEECI1NS0_6__baseILNS0_6_TraitE1EJS2_S3_EEEILm0EJRS2_EEENS_16in_place_index_tIXT_EEEDpOT0_, symObjAddr: 0x1178, symBinAddr: 0x100002F74, symSize: 0x34 }
  - { offset: 0x10AA4, size: 0x8, addend: 0x0, symName: __ZNSt3__116__variant_detail6__implIJ11UniCourse_t6Mand_tEECI2NS0_6__baseILNS0_6_TraitE1EJS2_S3_EEEILm0EJRS2_EEENS_16in_place_index_tIXT_EEEDpOT0_, symObjAddr: 0x11AC, symBinAddr: 0x100002FA8, symSize: 0x34 }
  - { offset: 0x10AE2, size: 0x8, addend: 0x0, symName: __ZNSt3__116__variant_detail17__copy_assignmentINS0_8__traitsIJ11UniCourse_t6Mand_tEEELNS0_6_TraitE1EECI2NS0_6__baseILS6_1EJS3_S4_EEEILm0EJRS3_EEENS_16in_place_index_tIXT_EEEDpOT0_, symObjAddr: 0x11E0, symBinAddr: 0x100002FDC, symSize: 0x34 }
  - { offset: 0x10B20, size: 0x8, addend: 0x0, symName: __ZNSt3__116__variant_detail17__move_assignmentINS0_8__traitsIJ11UniCourse_t6Mand_tEEELNS0_6_TraitE1EECI2NS0_6__baseILS6_1EJS3_S4_EEEILm0EJRS3_EEENS_16in_place_index_tIXT_EEEDpOT0_, symObjAddr: 0x1214, symBinAddr: 0x100003010, symSize: 0x34 }
  - { offset: 0x10B63, size: 0x8, addend: 0x0, symName: __ZNSt3__116__variant_detail12__assignmentINS0_8__traitsIJ11UniCourse_t6Mand_tEEEECI2NS0_6__baseILNS0_6_TraitE1EJS3_S4_EEEILm0EJRS3_EEENS_16in_place_index_tIXT_EEEDpOT0_, symObjAddr: 0x1248, symBinAddr: 0x100003044, symSize: 0x34 }
  - { offset: 0x10BA1, size: 0x8, addend: 0x0, symName: __ZNSt3__116__variant_detail18__copy_constructorINS0_8__traitsIJ11UniCourse_t6Mand_tEEELNS0_6_TraitE1EECI2NS0_6__baseILS6_1EJS3_S4_EEEILm0EJRS3_EEENS_16in_place_index_tIXT_EEEDpOT0_, symObjAddr: 0x127C, symBinAddr: 0x100003078, symSize: 0x34 }
  - { offset: 0x10BDF, size: 0x8, addend: 0x0, symName: __ZNSt3__116__variant_detail18__move_constructorINS0_8__traitsIJ11UniCourse_t6Mand_tEEELNS0_6_TraitE1EECI2NS0_6__baseILS6_1EJS3_S4_EEEILm0EJRS3_EEENS_16in_place_index_tIXT_EEEDpOT0_, symObjAddr: 0x12B0, symBinAddr: 0x1000030AC, symSize: 0x34 }
  - { offset: 0x10C22, size: 0x8, addend: 0x0, symName: __ZNSt3__116__variant_detail6__ctorINS0_8__traitsIJ11UniCourse_t6Mand_tEEEECI2NS0_6__baseILNS0_6_TraitE1EJS3_S4_EEEILm0EJRS3_EEENS_16in_place_index_tIXT_EEEDpOT0_, symObjAddr: 0x12E4, symBinAddr: 0x1000030E0, symSize: 0x34 }
  - { offset: 0x10C60, size: 0x8, addend: 0x0, symName: __ZNSt3__116__variant_detail6__dtorINS0_8__traitsIJ11UniCourse_t6Mand_tEEELNS0_6_TraitE1EECI2NS0_6__baseILS6_1EJS3_S4_EEEILm0EJRS3_EEENS_16in_place_index_tIXT_EEEDpOT0_, symObjAddr: 0x1318, symBinAddr: 0x100003114, symSize: 0x34 }
  - { offset: 0x10C9E, size: 0x8, addend: 0x0, symName: __ZNSt3__116__variant_detail6__baseILNS0_6_TraitE1EJ11UniCourse_t6Mand_tEEC2B8ne180100ILm0EJRS3_EEENS_16in_place_index_tIXT_EEEDpOT0_, symObjAddr: 0x134C, symBinAddr: 0x100003148, symSize: 0x38 }
  - { offset: 0x10CF6, size: 0x8, addend: 0x0, symName: __ZNSt3__116__variant_detail7__unionILNS0_6_TraitE1ELm0EJ11UniCourse_t6Mand_tEEC1B8ne180100IJRS3_EEENS_16in_place_index_tILm0EEEDpOT_, symObjAddr: 0x1384, symBinAddr: 0x100003180, symSize: 0x34 }
  - { offset: 0x10D44, size: 0x8, addend: 0x0, symName: __ZNSt3__116__variant_detail7__unionILNS0_6_TraitE1ELm0EJ11UniCourse_t6Mand_tEEC2B8ne180100IJRS3_EEENS_16in_place_index_tILm0EEEDpOT_, symObjAddr: 0x13B8, symBinAddr: 0x1000031B4, symSize: 0x34 }
  - { offset: 0x10D97, size: 0x8, addend: 0x0, symName: __ZNSt3__116__variant_detail5__altILm0E11UniCourse_tEC1B8ne180100IJRS2_EEENS_10in_place_tEDpOT_, symObjAddr: 0x13EC, symBinAddr: 0x1000031E8, symSize: 0x34 }
  - { offset: 0x10DE5, size: 0x8, addend: 0x0, symName: __ZNSt3__116__variant_detail5__altILm0E11UniCourse_tEC2B8ne180100IJRS2_EEENS_10in_place_tEDpOT_, symObjAddr: 0x1420, symBinAddr: 0x10000321C, symSize: 0x34 }
  - { offset: 0x10E3D, size: 0x8, addend: 0x0, symName: __ZN11UniCourse_tC1ERKS_, symObjAddr: 0x1454, symBinAddr: 0x100003250, symSize: 0x34 }
  - { offset: 0x10E71, size: 0x8, addend: 0x0, symName: __ZN11UniCourse_tC2ERKS_, symObjAddr: 0x1488, symBinAddr: 0x100003284, symSize: 0x84 }
  - { offset: 0x10EA5, size: 0x8, addend: 0x0, symName: __ZNSt3__16vectorINS0_INS_4pairIhhEENS_9allocatorIS2_EEEENS3_IS5_EEEC1ERKS7_, symObjAddr: 0x150C, symBinAddr: 0x100003308, symSize: 0x34 }
  - { offset: 0x10EDF, size: 0x8, addend: 0x0, symName: __ZNSt3__16vectorINS0_INS_4pairIhhEENS_9allocatorIS2_EEEENS3_IS5_EEEC2ERKS7_, symObjAddr: 0x1540, symBinAddr: 0x10000333C, symSize: 0x94 }
  - { offset: 0x10F23, size: 0x8, addend: 0x0, symName: __ZNSt3__116allocator_traitsINS_9allocatorINS_6vectorINS_4pairIhhEENS1_IS4_EEEEEEE37select_on_container_copy_constructionB8ne180100IS7_vvEES7_RKS7_, symObjAddr: 0x15D4, symBinAddr: 0x1000033D0, symSize: 0x10 }
  - { offset: 0x10F52, size: 0x8, addend: 0x0, symName: __ZNKSt3__16vectorINS0_INS_4pairIhhEENS_9allocatorIS2_EEEENS3_IS5_EEE7__allocB8ne180100Ev, symObjAddr: 0x15E4, symBinAddr: 0x1000033E0, symSize: 0x28 }
  - { offset: 0x10F87, size: 0x8, addend: 0x0, symName: __ZNSt3__117__compressed_pairIPNS_6vectorINS_4pairIhhEENS_9allocatorIS3_EEEENS4_IS6_EEEC1B8ne180100IDnS8_EEOT_OT0_, symObjAddr: 0x160C, symBinAddr: 0x100003408, symSize: 0x3C }
  - { offset: 0x10FDE, size: 0x8, addend: 0x0, symName: __ZNSt3__16vectorINS0_INS_4pairIhhEENS_9allocatorIS2_EEEENS3_IS5_EEE16__init_with_sizeB8ne180100IPS5_S9_EEvT_T0_m, symObjAddr: 0x1648, symBinAddr: 0x100003444, symSize: 0xB8 }
  - { offset: 0x11051, size: 0x8, addend: 0x0, symName: __ZNKSt3__16vectorINS0_INS_4pairIhhEENS_9allocatorIS2_EEEENS3_IS5_EEE4sizeB8ne180100Ev, symObjAddr: 0x1700, symBinAddr: 0x1000034FC, symSize: 0x28 }
  - { offset: 0x11076, size: 0x8, addend: 0x0, symName: __ZNKSt3__117__compressed_pairIPNS_6vectorINS_4pairIhhEENS_9allocatorIS3_EEEENS4_IS6_EEE6secondB8ne180100Ev, symObjAddr: 0x1728, symBinAddr: 0x100003524, symSize: 0x24 }
  - { offset: 0x1109B, size: 0x8, addend: 0x0, symName: __ZNKSt3__122__compressed_pair_elemINS_9allocatorINS_6vectorINS_4pairIhhEENS1_IS4_EEEEEELi1ELb1EE5__getB8ne180100Ev, symObjAddr: 0x174C, symBinAddr: 0x100003548, symSize: 0x14 }
  - { offset: 0x110C0, size: 0x8, addend: 0x0, symName: __ZNSt3__117__compressed_pairIPNS_6vectorINS_4pairIhhEENS_9allocatorIS3_EEEENS4_IS6_EEEC2B8ne180100IDnS8_EEOT_OT0_, symObjAddr: 0x1760, symBinAddr: 0x10000355C, symSize: 0x44 }
  - { offset: 0x11117, size: 0x8, addend: 0x0, symName: __ZNSt3__122__compressed_pair_elemIPNS_6vectorINS_4pairIhhEENS_9allocatorIS3_EEEELi0ELb0EEC2B8ne180100IDnvEEOT_, symObjAddr: 0x17A4, symBinAddr: 0x1000035A0, symSize: 0x1C }
  - { offset: 0x11158, size: 0x8, addend: 0x0, symName: __ZNSt3__122__compressed_pair_elemINS_9allocatorINS_6vectorINS_4pairIhhEENS1_IS4_EEEEEELi1ELb1EEC2B8ne180100IS7_vEEOT_, symObjAddr: 0x17C0, symBinAddr: 0x1000035BC, symSize: 0x18 }
  - { offset: 0x11199, size: 0x8, addend: 0x0, symName: __ZNSt3__16vectorINS0_INS_4pairIhhEENS_9allocatorIS2_EEEENS3_IS5_EEE16__destroy_vectorC1B8ne180100ERS7_, symObjAddr: 0x1818, symBinAddr: 0x100003614, symSize: 0x34 }
  - { offset: 0x111D1, size: 0x8, addend: 0x0, symName: __ZNSt3__16vectorINS0_INS_4pairIhhEENS_9allocatorIS2_EEEENS3_IS5_EEE11__vallocateB8ne180100Em, symObjAddr: 0x184C, symBinAddr: 0x100003648, symSize: 0xB4 }
  - { offset: 0x11213, size: 0x8, addend: 0x0, symName: __ZNSt3__16vectorINS0_INS_4pairIhhEENS_9allocatorIS2_EEEENS3_IS5_EEE18__construct_at_endIPS5_S9_EEvT_T0_m, symObjAddr: 0x1900, symBinAddr: 0x1000036FC, symSize: 0x8C }
  - { offset: 0x11288, size: 0x8, addend: 0x0, symName: __ZNSt3__128__exception_guard_exceptionsINS_6vectorINS1_INS_4pairIhhEENS_9allocatorIS3_EEEENS4_IS6_EEE16__destroy_vectorEE10__completeB8ne180100Ev, symObjAddr: 0x198C, symBinAddr: 0x100003788, symSize: 0x1C }
  - { offset: 0x112AD, size: 0x8, addend: 0x0, symName: __ZNSt3__128__exception_guard_exceptionsINS_6vectorINS1_INS_4pairIhhEENS_9allocatorIS3_EEEENS4_IS6_EEE16__destroy_vectorEED1B8ne180100Ev, symObjAddr: 0x19A8, symBinAddr: 0x1000037A4, symSize: 0x2C }
  - { offset: 0x112D6, size: 0x8, addend: 0x0, symName: __ZNSt3__128__exception_guard_exceptionsINS_6vectorINS1_INS_4pairIhhEENS_9allocatorIS3_EEEENS4_IS6_EEE16__destroy_vectorEEC1B8ne180100ES9_, symObjAddr: 0x19D4, symBinAddr: 0x1000037D0, symSize: 0x34 }
  - { offset: 0x1130D, size: 0x8, addend: 0x0, symName: __ZNSt3__128__exception_guard_exceptionsINS_6vectorINS1_INS_4pairIhhEENS_9allocatorIS3_EEEENS4_IS6_EEE16__destroy_vectorEEC2B8ne180100ES9_, symObjAddr: 0x1A08, symBinAddr: 0x100003804, symSize: 0x24 }
  - { offset: 0x11344, size: 0x8, addend: 0x0, symName: __ZNSt3__16vectorINS0_INS_4pairIhhEENS_9allocatorIS2_EEEENS3_IS5_EEE16__destroy_vectorC2B8ne180100ERS7_, symObjAddr: 0x1A2C, symBinAddr: 0x100003828, symSize: 0x20 }
  - { offset: 0x1137B, size: 0x8, addend: 0x0, symName: __ZNKSt3__16vectorINS0_INS_4pairIhhEENS_9allocatorIS2_EEEENS3_IS5_EEE8max_sizeEv, symObjAddr: 0x1A4C, symBinAddr: 0x100003848, symSize: 0x60 }
  - { offset: 0x113A2, size: 0x8, addend: 0x0, symName: __ZNKSt3__16vectorINS0_INS_4pairIhhEENS_9allocatorIS2_EEEENS3_IS5_EEE20__throw_length_errorB8ne180100Ev, symObjAddr: 0x1AAC, symBinAddr: 0x1000038A8, symSize: 0x1C }
  - { offset: 0x113C7, size: 0x8, addend: 0x0, symName: __ZNSt3__16vectorINS0_INS_4pairIhhEENS_9allocatorIS2_EEEENS3_IS5_EEE7__allocB8ne180100Ev, symObjAddr: 0x1B08, symBinAddr: 0x100003904, symSize: 0x28 }
  - { offset: 0x113EC, size: 0x8, addend: 0x0, symName: __ZNSt3__16vectorINS0_INS_4pairIhhEENS_9allocatorIS2_EEEENS3_IS5_EEE9__end_capB8ne180100Ev, symObjAddr: 0x1B30, symBinAddr: 0x10000392C, symSize: 0x28 }
  - { offset: 0x11411, size: 0x8, addend: 0x0, symName: __ZNKSt3__16vectorINS0_INS_4pairIhhEENS_9allocatorIS2_EEEENS3_IS5_EEE14__annotate_newB8ne180100Em, symObjAddr: 0x1B58, symBinAddr: 0x100003954, symSize: 0x14 }
  - { offset: 0x11444, size: 0x8, addend: 0x0, symName: __ZNSt3__116allocator_traitsINS_9allocatorINS_6vectorINS_4pairIhhEENS1_IS4_EEEEEEE8max_sizeB8ne180100IS7_vEEmRKS7_, symObjAddr: 0x1B98, symBinAddr: 0x100003994, symSize: 0x24 }
  - { offset: 0x11472, size: 0x8, addend: 0x0, symName: __ZNSt3__114numeric_limitsIlE3maxB8ne180100Ev, symObjAddr: 0x1BBC, symBinAddr: 0x1000039B8, symSize: 0x14 }
  - { offset: 0x1149A, size: 0x8, addend: 0x0, symName: __ZNKSt3__16__lessIvvEclB8ne180100ImmEEbRKT_RKT0_, symObjAddr: 0x1C34, symBinAddr: 0x100003A30, symSize: 0x34 }
  - { offset: 0x114ED, size: 0x8, addend: 0x0, symName: __ZNKSt3__19allocatorINS_6vectorINS_4pairIhhEENS0_IS3_EEEEE8max_sizeB8ne180100Ev, symObjAddr: 0x1C68, symBinAddr: 0x100003A64, symSize: 0x18 }
  - { offset: 0x11512, size: 0x8, addend: 0x0, symName: __ZNSt3__123__libcpp_numeric_limitsIlLb1EE3maxB8ne180100Ev, symObjAddr: 0x1C80, symBinAddr: 0x100003A7C, symSize: 0x8 }
  - { offset: 0x11526, size: 0x8, addend: 0x0, symName: __ZNSt12length_errorC1B8ne180100EPKc, symObjAddr: 0x1CEC, symBinAddr: 0x100003AE8, symSize: 0x34 }
  - { offset: 0x1155D, size: 0x8, addend: 0x0, symName: __ZNSt12length_errorC2B8ne180100EPKc, symObjAddr: 0x1D20, symBinAddr: 0x100003B1C, symSize: 0x44 }
  - { offset: 0x11594, size: 0x8, addend: 0x0, symName: __ZNSt3__19allocatorINS_6vectorINS_4pairIhhEENS0_IS3_EEEEE8allocateB8ne180100Em, symObjAddr: 0x1D64, symBinAddr: 0x100003B60, symSize: 0x5C }
  - { offset: 0x115C7, size: 0x8, addend: 0x0, symName: __ZNSt3__117__compressed_pairIPNS_6vectorINS_4pairIhhEENS_9allocatorIS3_EEEENS4_IS6_EEE6secondB8ne180100Ev, symObjAddr: 0x1EC4, symBinAddr: 0x100003CC0, symSize: 0x24 }
  - { offset: 0x115EC, size: 0x8, addend: 0x0, symName: __ZNSt3__122__compressed_pair_elemINS_9allocatorINS_6vectorINS_4pairIhhEENS1_IS4_EEEEEELi1ELb1EE5__getB8ne180100Ev, symObjAddr: 0x1EE8, symBinAddr: 0x100003CE4, symSize: 0x14 }
  - { offset: 0x11611, size: 0x8, addend: 0x0, symName: __ZNSt3__117__compressed_pairIPNS_6vectorINS_4pairIhhEENS_9allocatorIS3_EEEENS4_IS6_EEE5firstB8ne180100Ev, symObjAddr: 0x1EFC, symBinAddr: 0x100003CF8, symSize: 0x24 }
  - { offset: 0x11636, size: 0x8, addend: 0x0, symName: __ZNSt3__122__compressed_pair_elemIPNS_6vectorINS_4pairIhhEENS_9allocatorIS3_EEEELi0ELb0EE5__getB8ne180100Ev, symObjAddr: 0x1F20, symBinAddr: 0x100003D1C, symSize: 0x14 }
  - { offset: 0x11674, size: 0x8, addend: 0x0, symName: __ZNSt3__16vectorINS0_INS_4pairIhhEENS_9allocatorIS2_EEEENS3_IS5_EEE21_ConstructTransactionC1B8ne180100ERS7_m, symObjAddr: 0x1F34, symBinAddr: 0x100003D30, symSize: 0x3C }
  - { offset: 0x116BB, size: 0x8, addend: 0x0, symName: __ZNSt3__16vectorINS0_INS_4pairIhhEENS_9allocatorIS2_EEEENS3_IS5_EEE21_ConstructTransactionD1B8ne180100Ev, symObjAddr: 0x1FF0, symBinAddr: 0x100003DEC, symSize: 0x2C }
  - { offset: 0x116E4, size: 0x8, addend: 0x0, symName: __ZNSt3__16vectorINS0_INS_4pairIhhEENS_9allocatorIS2_EEEENS3_IS5_EEE21_ConstructTransactionC2B8ne180100ERS7_m, symObjAddr: 0x201C, symBinAddr: 0x100003E18, symSize: 0x4C }
  - { offset: 0x11749, size: 0x8, addend: 0x0, symName: __ZNSt3__14pairIPNS_6vectorINS0_IhhEENS_9allocatorIS2_EEEES6_EC1B8ne180100IS6_S6_Li0EEEOT_OT0_, symObjAddr: 0x2254, symBinAddr: 0x100004050, symSize: 0x3C }
  - { offset: 0x117A6, size: 0x8, addend: 0x0, symName: __ZNSt3__14pairIPNS_6vectorINS0_IhhEENS_9allocatorIS2_EEEES6_EC2B8ne180100IS6_S6_Li0EEEOT_OT0_, symObjAddr: 0x2290, symBinAddr: 0x10000408C, symSize: 0x34 }
  - { offset: 0x11803, size: 0x8, addend: 0x0, symName: __ZNSt3__129_AllocatorDestroyRangeReverseINS_9allocatorINS_6vectorINS_4pairIhhEENS1_IS4_EEEEEEPS6_EC1B8ne180100ERS7_RS8_SB_, symObjAddr: 0x2310, symBinAddr: 0x10000410C, symSize: 0x44 }
  - { offset: 0x11858, size: 0x8, addend: 0x0, symName: __ZNSt3__116allocator_traitsINS_9allocatorINS_6vectorINS_4pairIhhEENS1_IS4_EEEEEEE9constructB8ne180100IS6_JRS6_EvEEvRS7_PT_DpOT0_, symObjAddr: 0x2354, symBinAddr: 0x100004150, symSize: 0x34 }
  - { offset: 0x118AF, size: 0x8, addend: 0x0, symName: __ZNSt3__128__exception_guard_exceptionsINS_29_AllocatorDestroyRangeReverseINS_9allocatorINS_6vectorINS_4pairIhhEENS2_IS5_EEEEEEPS7_EEE10__completeB8ne180100Ev, symObjAddr: 0x239C, symBinAddr: 0x100004198, symSize: 0x1C }
  - { offset: 0x118D4, size: 0x8, addend: 0x0, symName: __ZNSt3__128__exception_guard_exceptionsINS_29_AllocatorDestroyRangeReverseINS_9allocatorINS_6vectorINS_4pairIhhEENS2_IS5_EEEEEEPS7_EEED1B8ne180100Ev, symObjAddr: 0x23B8, symBinAddr: 0x1000041B4, symSize: 0x2C }
  - { offset: 0x118FD, size: 0x8, addend: 0x0, symName: __ZNSt3__128__exception_guard_exceptionsINS_29_AllocatorDestroyRangeReverseINS_9allocatorINS_6vectorINS_4pairIhhEENS2_IS5_EEEEEEPS7_EEEC1B8ne180100ESA_, symObjAddr: 0x23E4, symBinAddr: 0x1000041E0, symSize: 0x34 }
  - { offset: 0x11935, size: 0x8, addend: 0x0, symName: __ZNSt3__128__exception_guard_exceptionsINS_29_AllocatorDestroyRangeReverseINS_9allocatorINS_6vectorINS_4pairIhhEENS2_IS5_EEEEEEPS7_EEEC2B8ne180100ESA_, symObjAddr: 0x2418, symBinAddr: 0x100004214, symSize: 0x30 }
  - { offset: 0x1196D, size: 0x8, addend: 0x0, symName: __ZNSt3__129_AllocatorDestroyRangeReverseINS_9allocatorINS_6vectorINS_4pairIhhEENS1_IS4_EEEEEEPS6_EC2B8ne180100ERS7_RS8_SB_, symObjAddr: 0x2448, symBinAddr: 0x100004244, symSize: 0x38 }
  - { offset: 0x119C3, size: 0x8, addend: 0x0, symName: __ZNSt3__19allocatorINS_6vectorINS_4pairIhhEENS0_IS3_EEEEE9constructB8ne180100IS5_JRS5_EEEvPT_DpOT0_, symObjAddr: 0x2480, symBinAddr: 0x10000427C, symSize: 0x30 }
  - { offset: 0x11A18, size: 0x8, addend: 0x0, symName: __ZNSt3__16vectorINS_4pairIhhEENS_9allocatorIS2_EEEC1ERKS5_, symObjAddr: 0x24B0, symBinAddr: 0x1000042AC, symSize: 0x34 }
  - { offset: 0x11A52, size: 0x8, addend: 0x0, symName: __ZNSt3__16vectorINS_4pairIhhEENS_9allocatorIS2_EEEC2ERKS5_, symObjAddr: 0x24E4, symBinAddr: 0x1000042E0, symSize: 0x94 }
  - { offset: 0x11A96, size: 0x8, addend: 0x0, symName: __ZNSt3__116allocator_traitsINS_9allocatorINS_4pairIhhEEEEE37select_on_container_copy_constructionB8ne180100IS4_vvEES4_RKS4_, symObjAddr: 0x2578, symBinAddr: 0x100004374, symSize: 0x10 }
  - { offset: 0x11AC5, size: 0x8, addend: 0x0, symName: __ZNKSt3__16vectorINS_4pairIhhEENS_9allocatorIS2_EEE7__allocB8ne180100Ev, symObjAddr: 0x2588, symBinAddr: 0x100004384, symSize: 0x28 }
  - { offset: 0x11AEF, size: 0x8, addend: 0x0, symName: __ZNSt3__117__compressed_pairIPNS_4pairIhhEENS_9allocatorIS2_EEEC1B8ne180100IDnS5_EEOT_OT0_, symObjAddr: 0x25B0, symBinAddr: 0x1000043AC, symSize: 0x3C }
  - { offset: 0x11B46, size: 0x8, addend: 0x0, symName: __ZNSt3__16vectorINS_4pairIhhEENS_9allocatorIS2_EEE16__init_with_sizeB8ne180100IPS2_S7_EEvT_T0_m, symObjAddr: 0x25EC, symBinAddr: 0x1000043E8, symSize: 0xB8 }
  - { offset: 0x11BB9, size: 0x8, addend: 0x0, symName: __ZNKSt3__16vectorINS_4pairIhhEENS_9allocatorIS2_EEE4sizeB8ne180100Ev, symObjAddr: 0x26A4, symBinAddr: 0x1000044A0, symSize: 0x28 }
  - { offset: 0x11BDE, size: 0x8, addend: 0x0, symName: __ZNKSt3__117__compressed_pairIPNS_4pairIhhEENS_9allocatorIS2_EEE6secondB8ne180100Ev, symObjAddr: 0x26CC, symBinAddr: 0x1000044C8, symSize: 0x24 }
  - { offset: 0x11C03, size: 0x8, addend: 0x0, symName: __ZNKSt3__122__compressed_pair_elemINS_9allocatorINS_4pairIhhEEEELi1ELb1EE5__getB8ne180100Ev, symObjAddr: 0x26F0, symBinAddr: 0x1000044EC, symSize: 0x14 }
  - { offset: 0x11C28, size: 0x8, addend: 0x0, symName: __ZNSt3__117__compressed_pairIPNS_4pairIhhEENS_9allocatorIS2_EEEC2B8ne180100IDnS5_EEOT_OT0_, symObjAddr: 0x2704, symBinAddr: 0x100004500, symSize: 0x44 }
  - { offset: 0x11C7F, size: 0x8, addend: 0x0, symName: __ZNSt3__122__compressed_pair_elemIPNS_4pairIhhEELi0ELb0EEC2B8ne180100IDnvEEOT_, symObjAddr: 0x2748, symBinAddr: 0x100004544, symSize: 0x1C }
  - { offset: 0x11CC0, size: 0x8, addend: 0x0, symName: __ZNSt3__122__compressed_pair_elemINS_9allocatorINS_4pairIhhEEEELi1ELb1EEC2B8ne180100IS4_vEEOT_, symObjAddr: 0x2764, symBinAddr: 0x100004560, symSize: 0x18 }
  - { offset: 0x11D01, size: 0x8, addend: 0x0, symName: __ZNSt3__16vectorINS_4pairIhhEENS_9allocatorIS2_EEE16__destroy_vectorC1B8ne180100ERS5_, symObjAddr: 0x27BC, symBinAddr: 0x1000045B8, symSize: 0x34 }
  - { offset: 0x11D39, size: 0x8, addend: 0x0, symName: __ZNSt3__16vectorINS_4pairIhhEENS_9allocatorIS2_EEE11__vallocateB8ne180100Em, symObjAddr: 0x27F0, symBinAddr: 0x1000045EC, symSize: 0xAC }
  - { offset: 0x11D7B, size: 0x8, addend: 0x0, symName: __ZNSt3__16vectorINS_4pairIhhEENS_9allocatorIS2_EEE18__construct_at_endIPS2_S7_EEvT_T0_m, symObjAddr: 0x289C, symBinAddr: 0x100004698, symSize: 0x8C }
  - { offset: 0x11DF0, size: 0x8, addend: 0x0, symName: __ZNSt3__128__exception_guard_exceptionsINS_6vectorINS_4pairIhhEENS_9allocatorIS3_EEE16__destroy_vectorEE10__completeB8ne180100Ev, symObjAddr: 0x2928, symBinAddr: 0x100004724, symSize: 0x1C }
  - { offset: 0x11E15, size: 0x8, addend: 0x0, symName: __ZNSt3__128__exception_guard_exceptionsINS_6vectorINS_4pairIhhEENS_9allocatorIS3_EEE16__destroy_vectorEED1B8ne180100Ev, symObjAddr: 0x2944, symBinAddr: 0x100004740, symSize: 0x2C }
  - { offset: 0x11E3E, size: 0x8, addend: 0x0, symName: __ZNSt3__128__exception_guard_exceptionsINS_6vectorINS_4pairIhhEENS_9allocatorIS3_EEE16__destroy_vectorEEC1B8ne180100ES7_, symObjAddr: 0x2970, symBinAddr: 0x10000476C, symSize: 0x34 }
  - { offset: 0x11E75, size: 0x8, addend: 0x0, symName: __ZNSt3__128__exception_guard_exceptionsINS_6vectorINS_4pairIhhEENS_9allocatorIS3_EEE16__destroy_vectorEEC2B8ne180100ES7_, symObjAddr: 0x29A4, symBinAddr: 0x1000047A0, symSize: 0x24 }
  - { offset: 0x11EAC, size: 0x8, addend: 0x0, symName: __ZNSt3__16vectorINS_4pairIhhEENS_9allocatorIS2_EEE16__destroy_vectorC2B8ne180100ERS5_, symObjAddr: 0x29C8, symBinAddr: 0x1000047C4, symSize: 0x20 }
  - { offset: 0x11EE3, size: 0x8, addend: 0x0, symName: __ZNKSt3__16vectorINS_4pairIhhEENS_9allocatorIS2_EEE8max_sizeEv, symObjAddr: 0x29E8, symBinAddr: 0x1000047E4, symSize: 0x60 }
  - { offset: 0x11F0A, size: 0x8, addend: 0x0, symName: __ZNKSt3__16vectorINS_4pairIhhEENS_9allocatorIS2_EEE20__throw_length_errorB8ne180100Ev, symObjAddr: 0x2A48, symBinAddr: 0x100004844, symSize: 0x1C }
  - { offset: 0x11F2F, size: 0x8, addend: 0x0, symName: __ZNSt3__16vectorINS_4pairIhhEENS_9allocatorIS2_EEE7__allocB8ne180100Ev, symObjAddr: 0x2AA4, symBinAddr: 0x1000048A0, symSize: 0x28 }
  - { offset: 0x11F54, size: 0x8, addend: 0x0, symName: __ZNSt3__16vectorINS_4pairIhhEENS_9allocatorIS2_EEE9__end_capB8ne180100Ev, symObjAddr: 0x2ACC, symBinAddr: 0x1000048C8, symSize: 0x28 }
  - { offset: 0x11F79, size: 0x8, addend: 0x0, symName: __ZNKSt3__16vectorINS_4pairIhhEENS_9allocatorIS2_EEE14__annotate_newB8ne180100Em, symObjAddr: 0x2AF4, symBinAddr: 0x1000048F0, symSize: 0x14 }
  - { offset: 0x11FAC, size: 0x8, addend: 0x0, symName: __ZNSt3__116allocator_traitsINS_9allocatorINS_4pairIhhEEEEE8max_sizeB8ne180100IS4_vEEmRKS4_, symObjAddr: 0x2B08, symBinAddr: 0x100004904, symSize: 0x24 }
  - { offset: 0x11FDA, size: 0x8, addend: 0x0, symName: __ZNKSt3__19allocatorINS_4pairIhhEEE8max_sizeB8ne180100Ev, symObjAddr: 0x2B2C, symBinAddr: 0x100004928, symSize: 0x14 }
  - { offset: 0x11FFF, size: 0x8, addend: 0x0, symName: __ZNSt3__19allocatorINS_4pairIhhEEE8allocateB8ne180100Em, symObjAddr: 0x2B40, symBinAddr: 0x10000493C, symSize: 0x58 }
  - { offset: 0x12032, size: 0x8, addend: 0x0, symName: __ZNSt3__117__compressed_pairIPNS_4pairIhhEENS_9allocatorIS2_EEE6secondB8ne180100Ev, symObjAddr: 0x2B98, symBinAddr: 0x100004994, symSize: 0x24 }
  - { offset: 0x12057, size: 0x8, addend: 0x0, symName: __ZNSt3__122__compressed_pair_elemINS_9allocatorINS_4pairIhhEEEELi1ELb1EE5__getB8ne180100Ev, symObjAddr: 0x2BBC, symBinAddr: 0x1000049B8, symSize: 0x14 }
  - { offset: 0x1207C, size: 0x8, addend: 0x0, symName: __ZNSt3__117__compressed_pairIPNS_4pairIhhEENS_9allocatorIS2_EEE5firstB8ne180100Ev, symObjAddr: 0x2BD0, symBinAddr: 0x1000049CC, symSize: 0x24 }
  - { offset: 0x120A1, size: 0x8, addend: 0x0, symName: __ZNSt3__122__compressed_pair_elemIPNS_4pairIhhEELi0ELb0EE5__getB8ne180100Ev, symObjAddr: 0x2BF4, symBinAddr: 0x1000049F0, symSize: 0x14 }
  - { offset: 0x120DF, size: 0x8, addend: 0x0, symName: __ZNSt3__16vectorINS_4pairIhhEENS_9allocatorIS2_EEE21_ConstructTransactionC1B8ne180100ERS5_m, symObjAddr: 0x2C08, symBinAddr: 0x100004A04, symSize: 0x3C }
  - { offset: 0x12126, size: 0x8, addend: 0x0, symName: __ZNSt3__16vectorINS_4pairIhhEENS_9allocatorIS2_EEE21_ConstructTransactionD1B8ne180100Ev, symObjAddr: 0x2CC4, symBinAddr: 0x100004AC0, symSize: 0x2C }
  - { offset: 0x1214F, size: 0x8, addend: 0x0, symName: __ZNSt3__16vectorINS_4pairIhhEENS_9allocatorIS2_EEE21_ConstructTransactionC2B8ne180100ERS5_m, symObjAddr: 0x2CF0, symBinAddr: 0x100004AEC, symSize: 0x44 }
  - { offset: 0x121B4, size: 0x8, addend: 0x0, symName: __ZNSt3__14pairIPNS0_IhhEES2_EC1B8ne180100IS2_S2_Li0EEEOT_OT0_, symObjAddr: 0x2F20, symBinAddr: 0x100004D1C, symSize: 0x3C }
  - { offset: 0x12211, size: 0x8, addend: 0x0, symName: __ZNSt3__14pairIPNS0_IhhEES2_EC2B8ne180100IS2_S2_Li0EEEOT_OT0_, symObjAddr: 0x2F5C, symBinAddr: 0x100004D58, symSize: 0x34 }
  - { offset: 0x1226E, size: 0x8, addend: 0x0, symName: __ZNSt3__129_AllocatorDestroyRangeReverseINS_9allocatorINS_4pairIhhEEEEPS3_EC1B8ne180100ERS4_RS5_S8_, symObjAddr: 0x2FDC, symBinAddr: 0x100004DD8, symSize: 0x44 }
  - { offset: 0x122C3, size: 0x8, addend: 0x0, symName: __ZNSt3__116allocator_traitsINS_9allocatorINS_4pairIhhEEEEE9constructB8ne180100IS3_JRS3_EvEEvRS4_PT_DpOT0_, symObjAddr: 0x3020, symBinAddr: 0x100004E1C, symSize: 0x34 }
  - { offset: 0x1231A, size: 0x8, addend: 0x0, symName: __ZNSt3__128__exception_guard_exceptionsINS_29_AllocatorDestroyRangeReverseINS_9allocatorINS_4pairIhhEEEEPS4_EEE10__completeB8ne180100Ev, symObjAddr: 0x3068, symBinAddr: 0x100004E64, symSize: 0x1C }
  - { offset: 0x1233F, size: 0x8, addend: 0x0, symName: __ZNSt3__128__exception_guard_exceptionsINS_29_AllocatorDestroyRangeReverseINS_9allocatorINS_4pairIhhEEEEPS4_EEED1B8ne180100Ev, symObjAddr: 0x3084, symBinAddr: 0x100004E80, symSize: 0x2C }
  - { offset: 0x12368, size: 0x8, addend: 0x0, symName: __ZNSt3__128__exception_guard_exceptionsINS_29_AllocatorDestroyRangeReverseINS_9allocatorINS_4pairIhhEEEEPS4_EEEC1B8ne180100ES7_, symObjAddr: 0x30B0, symBinAddr: 0x100004EAC, symSize: 0x34 }
  - { offset: 0x123A0, size: 0x8, addend: 0x0, symName: __ZNSt3__128__exception_guard_exceptionsINS_29_AllocatorDestroyRangeReverseINS_9allocatorINS_4pairIhhEEEEPS4_EEEC2B8ne180100ES7_, symObjAddr: 0x30E4, symBinAddr: 0x100004EE0, symSize: 0x30 }
  - { offset: 0x123D8, size: 0x8, addend: 0x0, symName: __ZNSt3__129_AllocatorDestroyRangeReverseINS_9allocatorINS_4pairIhhEEEEPS3_EC2B8ne180100ERS4_RS5_S8_, symObjAddr: 0x3114, symBinAddr: 0x100004F10, symSize: 0x38 }
  - { offset: 0x1242E, size: 0x8, addend: 0x0, symName: __ZNSt3__19allocatorINS_4pairIhhEEE9constructB8ne180100IS2_JRS2_EEEvPT_DpOT0_, symObjAddr: 0x314C, symBinAddr: 0x100004F48, symSize: 0x28 }
  - { offset: 0x12483, size: 0x8, addend: 0x0, symName: __ZNSt3__128__exception_guard_exceptionsINS_29_AllocatorDestroyRangeReverseINS_9allocatorINS_4pairIhhEEEEPS4_EEED2B8ne180100Ev, symObjAddr: 0x3174, symBinAddr: 0x100004F70, symSize: 0x50 }
  - { offset: 0x124AC, size: 0x8, addend: 0x0, symName: __ZNKSt3__129_AllocatorDestroyRangeReverseINS_9allocatorINS_4pairIhhEEEEPS3_EclB8ne180100Ev, symObjAddr: 0x31C4, symBinAddr: 0x100004FC0, symSize: 0x68 }
  - { offset: 0x124D1, size: 0x8, addend: 0x0, symName: __ZNSt3__116reverse_iteratorIPNS_4pairIhhEEEC1B8ne180100ES3_, symObjAddr: 0x329C, symBinAddr: 0x100005098, symSize: 0x34 }
  - { offset: 0x12507, size: 0x8, addend: 0x0, symName: __ZNSt3__116allocator_traitsINS_9allocatorINS_4pairIhhEEEEE7destroyB8ne180100IS3_vEEvRS4_PT_, symObjAddr: 0x3318, symBinAddr: 0x100005114, symSize: 0x2C }
  - { offset: 0x12544, size: 0x8, addend: 0x0, symName: __ZNSt3__116reverse_iteratorIPNS_4pairIhhEEEppB8ne180100Ev, symObjAddr: 0x3368, symBinAddr: 0x100005164, symSize: 0x20 }
  - { offset: 0x12569, size: 0x8, addend: 0x0, symName: __ZNKSt3__116reverse_iteratorIPNS_4pairIhhEEE4baseB8ne180100Ev, symObjAddr: 0x3388, symBinAddr: 0x100005184, symSize: 0x18 }
  - { offset: 0x1258E, size: 0x8, addend: 0x0, symName: __ZNSt3__19allocatorINS_4pairIhhEEE7destroyB8ne180100EPS2_, symObjAddr: 0x33A0, symBinAddr: 0x10000519C, symSize: 0x14 }
  - { offset: 0x125C5, size: 0x8, addend: 0x0, symName: __ZNSt3__119__to_address_helperINS_16reverse_iteratorIPNS_4pairIhhEEEEvE6__callB8ne180100ERKS5_, symObjAddr: 0x33B4, symBinAddr: 0x1000051B0, symSize: 0x38 }
  - { offset: 0x125E8, size: 0x8, addend: 0x0, symName: __ZNKSt3__116reverse_iteratorIPNS_4pairIhhEEEptB8ne180100Ev, symObjAddr: 0x33EC, symBinAddr: 0x1000051E8, symSize: 0x24 }
  - { offset: 0x1260D, size: 0x8, addend: 0x0, symName: __ZNKSt3__116reverse_iteratorIPNS_4pairIhhEEEdeB8ne180100Ev, symObjAddr: 0x3410, symBinAddr: 0x10000520C, symSize: 0x28 }
  - { offset: 0x12640, size: 0x8, addend: 0x0, symName: __ZNSt3__116reverse_iteratorIPNS_4pairIhhEEEC2B8ne180100ES3_, symObjAddr: 0x3438, symBinAddr: 0x100005234, symSize: 0x28 }
  - { offset: 0x12676, size: 0x8, addend: 0x0, symName: __ZNSt3__118__unwrap_iter_implIPNS_4pairIhhEELb1EE8__unwrapB8ne180100ES3_, symObjAddr: 0x3460, symBinAddr: 0x10000525C, symSize: 0x24 }
  - { offset: 0x12698, size: 0x8, addend: 0x0, symName: __ZNSt3__118__unwrap_iter_implIPNS_4pairIhhEELb1EE8__rewrapB8ne180100ES3_S3_, symObjAddr: 0x3484, symBinAddr: 0x100005280, symSize: 0x50 }
  - { offset: 0x126C9, size: 0x8, addend: 0x0, symName: __ZNSt3__16vectorINS_4pairIhhEENS_9allocatorIS2_EEE21_ConstructTransactionD2B8ne180100Ev, symObjAddr: 0x34D4, symBinAddr: 0x1000052D0, symSize: 0x20 }
  - { offset: 0x126F2, size: 0x8, addend: 0x0, symName: __ZNSt3__128__exception_guard_exceptionsINS_6vectorINS_4pairIhhEENS_9allocatorIS3_EEE16__destroy_vectorEED2B8ne180100Ev, symObjAddr: 0x34F4, symBinAddr: 0x1000052F0, symSize: 0x50 }
  - { offset: 0x1271B, size: 0x8, addend: 0x0, symName: __ZNSt3__16vectorINS_4pairIhhEENS_9allocatorIS2_EEE16__destroy_vectorclB8ne180100Ev, symObjAddr: 0x3544, symBinAddr: 0x100005340, symSize: 0x90 }
  - { offset: 0x12740, size: 0x8, addend: 0x0, symName: __ZNSt3__16vectorINS_4pairIhhEENS_9allocatorIS2_EEE7__clearB8ne180100Ev, symObjAddr: 0x35D4, symBinAddr: 0x1000053D0, symSize: 0x28 }
  - { offset: 0x12765, size: 0x8, addend: 0x0, symName: __ZNKSt3__16vectorINS_4pairIhhEENS_9allocatorIS2_EEE17__annotate_deleteB8ne180100Ev, symObjAddr: 0x35FC, symBinAddr: 0x1000053F8, symSize: 0x10 }
  - { offset: 0x12789, size: 0x8, addend: 0x0, symName: __ZNSt3__116allocator_traitsINS_9allocatorINS_4pairIhhEEEEE10deallocateB8ne180100ERS4_PS3_m, symObjAddr: 0x360C, symBinAddr: 0x100005408, symSize: 0x34 }
  - { offset: 0x127CB, size: 0x8, addend: 0x0, symName: __ZNKSt3__16vectorINS_4pairIhhEENS_9allocatorIS2_EEE8capacityB8ne180100Ev, symObjAddr: 0x3640, symBinAddr: 0x10000543C, symSize: 0x40 }
  - { offset: 0x127F0, size: 0x8, addend: 0x0, symName: __ZNSt3__16vectorINS_4pairIhhEENS_9allocatorIS2_EEE22__base_destruct_at_endB8ne180100EPS2_, symObjAddr: 0x3680, symBinAddr: 0x10000547C, symSize: 0x8C }
  - { offset: 0x12833, size: 0x8, addend: 0x0, symName: __ZNSt3__19allocatorINS_4pairIhhEEE10deallocateB8ne180100EPS2_m, symObjAddr: 0x370C, symBinAddr: 0x100005508, symSize: 0x40 }
  - { offset: 0x12874, size: 0x8, addend: 0x0, symName: __ZNKSt3__16vectorINS_4pairIhhEENS_9allocatorIS2_EEE9__end_capB8ne180100Ev, symObjAddr: 0x3854, symBinAddr: 0x100005650, symSize: 0x28 }
  - { offset: 0x12899, size: 0x8, addend: 0x0, symName: __ZNKSt3__117__compressed_pairIPNS_4pairIhhEENS_9allocatorIS2_EEE5firstB8ne180100Ev, symObjAddr: 0x387C, symBinAddr: 0x100005678, symSize: 0x24 }
  - { offset: 0x128BE, size: 0x8, addend: 0x0, symName: __ZNKSt3__122__compressed_pair_elemIPNS_4pairIhhEELi0ELb0EE5__getB8ne180100Ev, symObjAddr: 0x38A0, symBinAddr: 0x10000569C, symSize: 0x14 }
  - { offset: 0x128E3, size: 0x8, addend: 0x0, symName: __ZNSt3__128__exception_guard_exceptionsINS_29_AllocatorDestroyRangeReverseINS_9allocatorINS_6vectorINS_4pairIhhEENS2_IS5_EEEEEEPS7_EEED2B8ne180100Ev, symObjAddr: 0x38B4, symBinAddr: 0x1000056B0, symSize: 0x50 }
  - { offset: 0x1290C, size: 0x8, addend: 0x0, symName: __ZNKSt3__129_AllocatorDestroyRangeReverseINS_9allocatorINS_6vectorINS_4pairIhhEENS1_IS4_EEEEEEPS6_EclB8ne180100Ev, symObjAddr: 0x3904, symBinAddr: 0x100005700, symSize: 0x68 }
  - { offset: 0x12931, size: 0x8, addend: 0x0, symName: __ZNSt3__116reverse_iteratorIPNS_6vectorINS_4pairIhhEENS_9allocatorIS3_EEEEEC1B8ne180100ES7_, symObjAddr: 0x39DC, symBinAddr: 0x1000057D8, symSize: 0x34 }
  - { offset: 0x12967, size: 0x8, addend: 0x0, symName: __ZNSt3__116allocator_traitsINS_9allocatorINS_6vectorINS_4pairIhhEENS1_IS4_EEEEEEE7destroyB8ne180100IS6_vEEvRS7_PT_, symObjAddr: 0x3A58, symBinAddr: 0x100005854, symSize: 0x2C }
  - { offset: 0x129A4, size: 0x8, addend: 0x0, symName: __ZNSt3__116reverse_iteratorIPNS_6vectorINS_4pairIhhEENS_9allocatorIS3_EEEEEppB8ne180100Ev, symObjAddr: 0x3AA8, symBinAddr: 0x1000058A4, symSize: 0x20 }
  - { offset: 0x129C9, size: 0x8, addend: 0x0, symName: __ZNKSt3__116reverse_iteratorIPNS_6vectorINS_4pairIhhEENS_9allocatorIS3_EEEEE4baseB8ne180100Ev, symObjAddr: 0x3AC8, symBinAddr: 0x1000058C4, symSize: 0x18 }
  - { offset: 0x129EE, size: 0x8, addend: 0x0, symName: __ZNSt3__19allocatorINS_6vectorINS_4pairIhhEENS0_IS3_EEEEE7destroyB8ne180100EPS5_, symObjAddr: 0x3AE0, symBinAddr: 0x1000058DC, symSize: 0x28 }
  - { offset: 0x12A21, size: 0x8, addend: 0x0, symName: __ZNSt3__16vectorINS_4pairIhhEENS_9allocatorIS2_EEED1B8ne180100Ev, symObjAddr: 0x3B08, symBinAddr: 0x100005904, symSize: 0x2C }
  - { offset: 0x12A4A, size: 0x8, addend: 0x0, symName: __ZNSt3__16vectorINS_4pairIhhEENS_9allocatorIS2_EEED2B8ne180100Ev, symObjAddr: 0x3B34, symBinAddr: 0x100005930, symSize: 0x40 }
  - { offset: 0x12A77, size: 0x8, addend: 0x0, symName: __ZNSt3__119__to_address_helperINS_16reverse_iteratorIPNS_6vectorINS_4pairIhhEENS_9allocatorIS4_EEEEEEvE6__callB8ne180100ERKS9_, symObjAddr: 0x3B74, symBinAddr: 0x100005970, symSize: 0x38 }
  - { offset: 0x12A9A, size: 0x8, addend: 0x0, symName: __ZNKSt3__116reverse_iteratorIPNS_6vectorINS_4pairIhhEENS_9allocatorIS3_EEEEEptB8ne180100Ev, symObjAddr: 0x3BAC, symBinAddr: 0x1000059A8, symSize: 0x24 }
  - { offset: 0x12ABF, size: 0x8, addend: 0x0, symName: __ZNKSt3__116reverse_iteratorIPNS_6vectorINS_4pairIhhEENS_9allocatorIS3_EEEEEdeB8ne180100Ev, symObjAddr: 0x3BD0, symBinAddr: 0x1000059CC, symSize: 0x28 }
  - { offset: 0x12AF2, size: 0x8, addend: 0x0, symName: __ZNSt3__116reverse_iteratorIPNS_6vectorINS_4pairIhhEENS_9allocatorIS3_EEEEEC2B8ne180100ES7_, symObjAddr: 0x3BF8, symBinAddr: 0x1000059F4, symSize: 0x28 }
  - { offset: 0x12B28, size: 0x8, addend: 0x0, symName: __ZNSt3__118__unwrap_iter_implIPNS_6vectorINS_4pairIhhEENS_9allocatorIS3_EEEELb1EE8__unwrapB8ne180100ES7_, symObjAddr: 0x3C20, symBinAddr: 0x100005A1C, symSize: 0x24 }
  - { offset: 0x12B4A, size: 0x8, addend: 0x0, symName: __ZNSt3__118__unwrap_iter_implIPNS_6vectorINS_4pairIhhEENS_9allocatorIS3_EEEELb1EE8__rewrapB8ne180100ES7_S7_, symObjAddr: 0x3C44, symBinAddr: 0x100005A40, symSize: 0x58 }
  - { offset: 0x12B7B, size: 0x8, addend: 0x0, symName: __ZNSt3__16vectorINS0_INS_4pairIhhEENS_9allocatorIS2_EEEENS3_IS5_EEE21_ConstructTransactionD2B8ne180100Ev, symObjAddr: 0x3C9C, symBinAddr: 0x100005A98, symSize: 0x20 }
  - { offset: 0x12BA4, size: 0x8, addend: 0x0, symName: __ZNSt3__128__exception_guard_exceptionsINS_6vectorINS1_INS_4pairIhhEENS_9allocatorIS3_EEEENS4_IS6_EEE16__destroy_vectorEED2B8ne180100Ev, symObjAddr: 0x3CBC, symBinAddr: 0x100005AB8, symSize: 0x50 }
  - { offset: 0x12BCD, size: 0x8, addend: 0x0, symName: __ZNSt3__16vectorINS0_INS_4pairIhhEENS_9allocatorIS2_EEEENS3_IS5_EEE16__destroy_vectorclB8ne180100Ev, symObjAddr: 0x3D0C, symBinAddr: 0x100005B08, symSize: 0x90 }
  - { offset: 0x12BF2, size: 0x8, addend: 0x0, symName: __ZNSt3__16vectorINS0_INS_4pairIhhEENS_9allocatorIS2_EEEENS3_IS5_EEE7__clearB8ne180100Ev, symObjAddr: 0x3D9C, symBinAddr: 0x100005B98, symSize: 0x28 }
  - { offset: 0x12C17, size: 0x8, addend: 0x0, symName: __ZNKSt3__16vectorINS0_INS_4pairIhhEENS_9allocatorIS2_EEEENS3_IS5_EEE17__annotate_deleteB8ne180100Ev, symObjAddr: 0x3DC4, symBinAddr: 0x100005BC0, symSize: 0x10 }
  - { offset: 0x12C3B, size: 0x8, addend: 0x0, symName: __ZNSt3__116allocator_traitsINS_9allocatorINS_6vectorINS_4pairIhhEENS1_IS4_EEEEEEE10deallocateB8ne180100ERS7_PS6_m, symObjAddr: 0x3DD4, symBinAddr: 0x100005BD0, symSize: 0x34 }
  - { offset: 0x12C7D, size: 0x8, addend: 0x0, symName: __ZNKSt3__16vectorINS0_INS_4pairIhhEENS_9allocatorIS2_EEEENS3_IS5_EEE8capacityB8ne180100Ev, symObjAddr: 0x3E08, symBinAddr: 0x100005C04, symSize: 0x40 }
  - { offset: 0x12CA2, size: 0x8, addend: 0x0, symName: __ZNSt3__16vectorINS0_INS_4pairIhhEENS_9allocatorIS2_EEEENS3_IS5_EEE22__base_destruct_at_endB8ne180100EPS5_, symObjAddr: 0x3E48, symBinAddr: 0x100005C44, symSize: 0x8C }
  - { offset: 0x12CE5, size: 0x8, addend: 0x0, symName: __ZNSt3__19allocatorINS_6vectorINS_4pairIhhEENS0_IS3_EEEEE10deallocateB8ne180100EPS5_m, symObjAddr: 0x3ED4, symBinAddr: 0x100005CD0, symSize: 0x44 }
  - { offset: 0x12D26, size: 0x8, addend: 0x0, symName: __ZNKSt3__16vectorINS0_INS_4pairIhhEENS_9allocatorIS2_EEEENS3_IS5_EEE9__end_capB8ne180100Ev, symObjAddr: 0x3F18, symBinAddr: 0x100005D14, symSize: 0x28 }
  - { offset: 0x12D4B, size: 0x8, addend: 0x0, symName: __ZNKSt3__117__compressed_pairIPNS_6vectorINS_4pairIhhEENS_9allocatorIS3_EEEENS4_IS6_EEE5firstB8ne180100Ev, symObjAddr: 0x3F40, symBinAddr: 0x100005D3C, symSize: 0x24 }
  - { offset: 0x12D70, size: 0x8, addend: 0x0, symName: __ZNKSt3__122__compressed_pair_elemIPNS_6vectorINS_4pairIhhEENS_9allocatorIS3_EEEELi0ELb0EE5__getB8ne180100Ev, symObjAddr: 0x3F64, symBinAddr: 0x100005D60, symSize: 0x14 }
  - { offset: 0x12D95, size: 0x8, addend: 0x0, symName: __ZNSt3__17variantIJ11UniCourse_t6Mand_tEED2B8ne180100Ev, symObjAddr: 0x3F78, symBinAddr: 0x100005D74, symSize: 0x2C }
  - { offset: 0x12DBE, size: 0x8, addend: 0x0, symName: __ZNSt3__116__variant_detail6__implIJ11UniCourse_t6Mand_tEED1Ev, symObjAddr: 0x3FA4, symBinAddr: 0x100005DA0, symSize: 0x2C }
  - { offset: 0x12DEA, size: 0x8, addend: 0x0, symName: __ZNSt3__116__variant_detail6__implIJ11UniCourse_t6Mand_tEED2Ev, symObjAddr: 0x3FD0, symBinAddr: 0x100005DCC, symSize: 0x2C }
  - { offset: 0x12E16, size: 0x8, addend: 0x0, symName: __ZNSt3__116__variant_detail17__copy_assignmentINS0_8__traitsIJ11UniCourse_t6Mand_tEEELNS0_6_TraitE1EED2Ev, symObjAddr: 0x3FFC, symBinAddr: 0x100005DF8, symSize: 0x2C }
  - { offset: 0x12E3F, size: 0x8, addend: 0x0, symName: __ZNSt3__116__variant_detail17__move_assignmentINS0_8__traitsIJ11UniCourse_t6Mand_tEEELNS0_6_TraitE1EED2Ev, symObjAddr: 0x4028, symBinAddr: 0x100005E24, symSize: 0x2C }
  - { offset: 0x12E68, size: 0x8, addend: 0x0, symName: __ZNSt3__116__variant_detail12__assignmentINS0_8__traitsIJ11UniCourse_t6Mand_tEEEED2Ev, symObjAddr: 0x4054, symBinAddr: 0x100005E50, symSize: 0x2C }
  - { offset: 0x12E94, size: 0x8, addend: 0x0, symName: __ZNSt3__116__variant_detail18__copy_constructorINS0_8__traitsIJ11UniCourse_t6Mand_tEEELNS0_6_TraitE1EED2Ev, symObjAddr: 0x4080, symBinAddr: 0x100005E7C, symSize: 0x2C }
  - { offset: 0x12EBD, size: 0x8, addend: 0x0, symName: __ZNSt3__116__variant_detail18__move_constructorINS0_8__traitsIJ11UniCourse_t6Mand_tEEELNS0_6_TraitE1EED2Ev, symObjAddr: 0x40AC, symBinAddr: 0x100005EA8, symSize: 0x2C }
  - { offset: 0x12EE6, size: 0x8, addend: 0x0, symName: __ZNSt3__116__variant_detail6__ctorINS0_8__traitsIJ11UniCourse_t6Mand_tEEEED2Ev, symObjAddr: 0x40D8, symBinAddr: 0x100005ED4, symSize: 0x2C }
  - { offset: 0x12F12, size: 0x8, addend: 0x0, symName: __ZNSt3__116__variant_detail6__dtorINS0_8__traitsIJ11UniCourse_t6Mand_tEEELNS0_6_TraitE1EED2Ev, symObjAddr: 0x4104, symBinAddr: 0x100005F00, symSize: 0x34 }
  - { offset: 0x12F3B, size: 0x8, addend: 0x0, symName: __ZNSt3__116__variant_detail6__dtorINS0_8__traitsIJ11UniCourse_t6Mand_tEEELNS0_6_TraitE1EE9__destroyB8ne180100Ev, symObjAddr: 0x4138, symBinAddr: 0x100005F34, symSize: 0x54 }
  - { offset: 0x12FA2, size: 0x8, addend: 0x0, symName: __ZNSt3__116__variant_detail6__baseILNS0_6_TraitE1EJ11UniCourse_t6Mand_tEED2Ev, symObjAddr: 0x418C, symBinAddr: 0x100005F88, symSize: 0x2C }
  - { offset: 0x12FCE, size: 0x8, addend: 0x0, symName: __ZNKSt3__116__variant_detail6__baseILNS0_6_TraitE1EJ11UniCourse_t6Mand_tEE22valueless_by_exceptionB8ne180100Ev, symObjAddr: 0x41B8, symBinAddr: 0x100005FB4, symSize: 0x30 }
  - { offset: 0x12FF7, size: 0x8, addend: 0x0, symName: __ZNSt3__116__variant_detail12__visitation6__base11__visit_altB8ne180100IZNS0_6__dtorINS0_8__traitsIJ11UniCourse_t6Mand_tEEELNS0_6_TraitE1EE9__destroyB8ne180100EvEUlRT_E_JRSA_EEEDcOSB_DpOT0_, symObjAddr: 0x41E8, symBinAddr: 0x100005FE4, symSize: 0x74 }
  - { offset: 0x1304D, size: 0x8, addend: 0x0, symName: __ZNKSt3__116__variant_detail6__baseILNS0_6_TraitE1EJ11UniCourse_t6Mand_tEE5indexB8ne180100Ev, symObjAddr: 0x425C, symBinAddr: 0x100006058, symSize: 0x4C }
  - { offset: 0x13076, size: 0x8, addend: 0x0, symName: __ZNSt3__116__variant_detail12__visitation6__base12__dispatcherIJLm0EEE10__dispatchB8ne180100IOZNS0_6__dtorINS0_8__traitsIJ11UniCourse_t6Mand_tEEELNS0_6_TraitE1EE9__destroyB8ne180100EvEUlRT_E_JRNS0_6__baseILSB_1EJS8_S9_EEEEEEDcSD_DpT0_, symObjAddr: 0x42A8, symBinAddr: 0x1000060A4, symSize: 0x3C }
  - { offset: 0x130BC, size: 0x8, addend: 0x0, symName: __ZNSt3__116__variant_detail12__visitation6__base12__dispatcherIJLm1EEE10__dispatchB8ne180100IOZNS0_6__dtorINS0_8__traitsIJ11UniCourse_t6Mand_tEEELNS0_6_TraitE1EE9__destroyB8ne180100EvEUlRT_E_JRNS0_6__baseILSB_1EJS8_S9_EEEEEEDcSD_DpT0_, symObjAddr: 0x42E4, symBinAddr: 0x1000060E0, symSize: 0x3C }
  - { offset: 0x13139, size: 0x8, addend: 0x0, symName: __ZNSt3__116__variant_detail12__visitation6__base4__atB8ne180100IPFvOZNS0_6__dtorINS0_8__traitsIJ11UniCourse_t6Mand_tEEELNS0_6_TraitE1EE9__destroyB8ne180100EvEUlRT_E_RNS0_6__baseILS9_1EJS6_S7_EEEELm2EJEEEODaRKNS_8__farrayISB_XT0_EEEmDpT1_, symObjAddr: 0x4320, symBinAddr: 0x10000611C, symSize: 0x30 }
  - { offset: 0x13184, size: 0x8, addend: 0x0, symName: __ZNRSt3__116__variant_detail6__baseILNS0_6_TraitE1EJ11UniCourse_t6Mand_tEE9__as_baseB8ne180100Ev, symObjAddr: 0x4350, symBinAddr: 0x10000614C, symSize: 0x14 }
  - { offset: 0x131AD, size: 0x8, addend: 0x0, symName: __ZNSt3__116__variant_detail8__access6__base9__get_altB8ne180100ILm0ERNS0_6__baseILNS0_6_TraitE1EJ11UniCourse_t6Mand_tEEEEEODaOT0_, symObjAddr: 0x4390, symBinAddr: 0x10000618C, symSize: 0x24 }
  - { offset: 0x131EE, size: 0x8, addend: 0x0, symName: __ZZNSt3__116__variant_detail6__dtorINS0_8__traitsIJ11UniCourse_t6Mand_tEEELNS0_6_TraitE1EE9__destroyB8ne180100EvENKUlRT_E_clINS0_5__altILm0ES3_EEEEDaS9_, symObjAddr: 0x43B4, symBinAddr: 0x1000061B0, symSize: 0x28 }
  - { offset: 0x1322F, size: 0x8, addend: 0x0, symName: __ZNSt3__116__variant_detail5__altILm0E11UniCourse_tED1Ev, symObjAddr: 0x43DC, symBinAddr: 0x1000061D8, symSize: 0x2C }
  - { offset: 0x1325B, size: 0x8, addend: 0x0, symName: __ZNSt3__116__variant_detail5__altILm0E11UniCourse_tED2Ev, symObjAddr: 0x4408, symBinAddr: 0x100006204, symSize: 0x2C }
  - { offset: 0x13287, size: 0x8, addend: 0x0, symName: __ZNSt3__116__variant_detail8__access7__union9__get_altB8ne180100IRNS0_7__unionILNS0_6_TraitE1ELm0EJ11UniCourse_t6Mand_tEEEEEODaOT_NS_16in_place_index_tILm0EEE, symObjAddr: 0x4434, symBinAddr: 0x100006230, symSize: 0x14 }
  - { offset: 0x132C3, size: 0x8, addend: 0x0, symName: __ZNSt3__116__variant_detail8__access6__base9__get_altB8ne180100ILm1ERNS0_6__baseILNS0_6_TraitE1EJ11UniCourse_t6Mand_tEEEEEODaOT0_, symObjAddr: 0x4474, symBinAddr: 0x100006270, symSize: 0x24 }
  - { offset: 0x132FA, size: 0x8, addend: 0x0, symName: __ZZNSt3__116__variant_detail6__dtorINS0_8__traitsIJ11UniCourse_t6Mand_tEEELNS0_6_TraitE1EE9__destroyB8ne180100EvENKUlRT_E_clINS0_5__altILm1ES4_EEEEDaS9_, symObjAddr: 0x4498, symBinAddr: 0x100006294, symSize: 0x28 }
  - { offset: 0x13340, size: 0x8, addend: 0x0, symName: __ZNSt3__116__variant_detail5__altILm1E6Mand_tED1Ev, symObjAddr: 0x44C0, symBinAddr: 0x1000062BC, symSize: 0x2C }
  - { offset: 0x1336C, size: 0x8, addend: 0x0, symName: __ZNSt3__116__variant_detail5__altILm1E6Mand_tED2Ev, symObjAddr: 0x44EC, symBinAddr: 0x1000062E8, symSize: 0x2C }
  - { offset: 0x13397, size: 0x8, addend: 0x0, symName: __ZNSt3__116__variant_detail8__access7__union9__get_altB8ne180100IRNS0_7__unionILNS0_6_TraitE1ELm0EJ11UniCourse_t6Mand_tEEELm1EEEODaOT_NS_16in_place_index_tIXT0_EEE, symObjAddr: 0x4518, symBinAddr: 0x100006314, symSize: 0x24 }
  - { offset: 0x133D9, size: 0x8, addend: 0x0, symName: __ZNSt3__116__variant_detail8__access7__union9__get_altB8ne180100IRNS0_7__unionILNS0_6_TraitE1ELm1EJ6Mand_tEEEEEODaOT_NS_16in_place_index_tILm0EEE, symObjAddr: 0x453C, symBinAddr: 0x100006338, symSize: 0x14 }
  - { offset: 0x13411, size: 0x8, addend: 0x0, symName: __ZNSt3__116__variant_detail12__visitation6__base4__atB8ne180100IPFvOZNS0_6__dtorINS0_8__traitsIJ11UniCourse_t6Mand_tEEELNS0_6_TraitE1EE9__destroyB8ne180100EvEUlRT_E_RNS0_6__baseILS9_1EJS6_S7_EEEEEERKSB_SL_, symObjAddr: 0x4550, symBinAddr: 0x10000634C, symSize: 0x14 }
  - { offset: 0x1343E, size: 0x8, addend: 0x0, symName: __ZNKSt3__18__farrayIPFvOZNS_16__variant_detail6__dtorINS1_8__traitsIJ11UniCourse_t6Mand_tEEELNS1_6_TraitE1EE9__destroyB8ne180100EvEUlRT_E_RNS1_6__baseILS7_1EJS4_S5_EEEELm2EEixB8ne180100Em, symObjAddr: 0x4564, symBinAddr: 0x100006360, symSize: 0x20 }
  - { offset: 0x13472, size: 0x8, addend: 0x0, symName: __ZNSt3__116__variant_detail7__unionILNS0_6_TraitE1ELm0EJ11UniCourse_t6Mand_tEED1Ev, symObjAddr: 0x4584, symBinAddr: 0x100006380, symSize: 0x2C }
  - { offset: 0x1349B, size: 0x8, addend: 0x0, symName: __ZNSt3__116__variant_detail7__unionILNS0_6_TraitE1ELm0EJ11UniCourse_t6Mand_tEED2Ev, symObjAddr: 0x45B0, symBinAddr: 0x1000063AC, symSize: 0x14 }
  - { offset: 0x134C4, size: 0x8, addend: 0x0, symName: __ZNSt3__17variantIJ11UniCourse_t6Mand_tEEC2B8ne180100IRS2_Li0ELi0ELi0ES2_Lm1ELi0EEEOT_, symObjAddr: 0x45C4, symBinAddr: 0x1000063C0, symSize: 0x34 }
  - { offset: 0x13530, size: 0x8, addend: 0x0, symName: __ZNSt3__116__variant_detail6__implIJ11UniCourse_t6Mand_tEECI1NS0_6__baseILNS0_6_TraitE1EJS2_S3_EEEILm1EJRS3_EEENS_16in_place_index_tIXT_EEEDpOT0_, symObjAddr: 0x45F8, symBinAddr: 0x1000063F4, symSize: 0x34 }
  - { offset: 0x1356E, size: 0x8, addend: 0x0, symName: __ZNSt3__116__variant_detail6__implIJ11UniCourse_t6Mand_tEECI2NS0_6__baseILNS0_6_TraitE1EJS2_S3_EEEILm1EJRS3_EEENS_16in_place_index_tIXT_EEEDpOT0_, symObjAddr: 0x462C, symBinAddr: 0x100006428, symSize: 0x34 }
  - { offset: 0x135AC, size: 0x8, addend: 0x0, symName: __ZNSt3__116__variant_detail17__copy_assignmentINS0_8__traitsIJ11UniCourse_t6Mand_tEEELNS0_6_TraitE1EECI2NS0_6__baseILS6_1EJS3_S4_EEEILm1EJRS4_EEENS_16in_place_index_tIXT_EEEDpOT0_, symObjAddr: 0x4660, symBinAddr: 0x10000645C, symSize: 0x34 }
  - { offset: 0x135EA, size: 0x8, addend: 0x0, symName: __ZNSt3__116__variant_detail17__move_assignmentINS0_8__traitsIJ11UniCourse_t6Mand_tEEELNS0_6_TraitE1EECI2NS0_6__baseILS6_1EJS3_S4_EEEILm1EJRS4_EEENS_16in_place_index_tIXT_EEEDpOT0_, symObjAddr: 0x4694, symBinAddr: 0x100006490, symSize: 0x34 }
  - { offset: 0x13628, size: 0x8, addend: 0x0, symName: __ZNSt3__116__variant_detail12__assignmentINS0_8__traitsIJ11UniCourse_t6Mand_tEEEECI2NS0_6__baseILNS0_6_TraitE1EJS3_S4_EEEILm1EJRS4_EEENS_16in_place_index_tIXT_EEEDpOT0_, symObjAddr: 0x46C8, symBinAddr: 0x1000064C4, symSize: 0x34 }
  - { offset: 0x13666, size: 0x8, addend: 0x0, symName: __ZNSt3__116__variant_detail18__copy_constructorINS0_8__traitsIJ11UniCourse_t6Mand_tEEELNS0_6_TraitE1EECI2NS0_6__baseILS6_1EJS3_S4_EEEILm1EJRS4_EEENS_16in_place_index_tIXT_EEEDpOT0_, symObjAddr: 0x46FC, symBinAddr: 0x1000064F8, symSize: 0x34 }
  - { offset: 0x136A4, size: 0x8, addend: 0x0, symName: __ZNSt3__116__variant_detail18__move_constructorINS0_8__traitsIJ11UniCourse_t6Mand_tEEELNS0_6_TraitE1EECI2NS0_6__baseILS6_1EJS3_S4_EEEILm1EJRS4_EEENS_16in_place_index_tIXT_EEEDpOT0_, symObjAddr: 0x4730, symBinAddr: 0x10000652C, symSize: 0x34 }
  - { offset: 0x136E2, size: 0x8, addend: 0x0, symName: __ZNSt3__116__variant_detail6__ctorINS0_8__traitsIJ11UniCourse_t6Mand_tEEEECI2NS0_6__baseILNS0_6_TraitE1EJS3_S4_EEEILm1EJRS4_EEENS_16in_place_index_tIXT_EEEDpOT0_, symObjAddr: 0x4764, symBinAddr: 0x100006560, symSize: 0x34 }
  - { offset: 0x13720, size: 0x8, addend: 0x0, symName: __ZNSt3__116__variant_detail6__dtorINS0_8__traitsIJ11UniCourse_t6Mand_tEEELNS0_6_TraitE1EECI2NS0_6__baseILS6_1EJS3_S4_EEEILm1EJRS4_EEENS_16in_place_index_tIXT_EEEDpOT0_, symObjAddr: 0x4798, symBinAddr: 0x100006594, symSize: 0x34 }
  - { offset: 0x1375E, size: 0x8, addend: 0x0, symName: __ZNSt3__116__variant_detail6__baseILNS0_6_TraitE1EJ11UniCourse_t6Mand_tEEC2B8ne180100ILm1EJRS4_EEENS_16in_place_index_tIXT_EEEDpOT0_, symObjAddr: 0x47CC, symBinAddr: 0x1000065C8, symSize: 0x3C }
  - { offset: 0x137B6, size: 0x8, addend: 0x0, symName: __ZNSt3__116__variant_detail7__unionILNS0_6_TraitE1ELm0EJ11UniCourse_t6Mand_tEEC1B8ne180100ILm1EJRS4_EEENS_16in_place_index_tIXT_EEEDpOT0_, symObjAddr: 0x4808, symBinAddr: 0x100006604, symSize: 0x34 }
  - { offset: 0x1380E, size: 0x8, addend: 0x0, symName: __ZNSt3__116__variant_detail7__unionILNS0_6_TraitE1ELm0EJ11UniCourse_t6Mand_tEEC2B8ne180100ILm1EJRS4_EEENS_16in_place_index_tIXT_EEEDpOT0_, symObjAddr: 0x483C, symBinAddr: 0x100006638, symSize: 0x34 }
  - { offset: 0x13866, size: 0x8, addend: 0x0, symName: __ZNSt3__116__variant_detail7__unionILNS0_6_TraitE1ELm1EJ6Mand_tEEC1B8ne180100IJRS3_EEENS_16in_place_index_tILm0EEEDpOT_, symObjAddr: 0x4870, symBinAddr: 0x10000666C, symSize: 0x34 }
  - { offset: 0x138B4, size: 0x8, addend: 0x0, symName: __ZNSt3__116__variant_detail7__unionILNS0_6_TraitE1ELm1EJ6Mand_tEEC2B8ne180100IJRS3_EEENS_16in_place_index_tILm0EEEDpOT_, symObjAddr: 0x48A4, symBinAddr: 0x1000066A0, symSize: 0x34 }
  - { offset: 0x13902, size: 0x8, addend: 0x0, symName: __ZNSt3__116__variant_detail5__altILm1E6Mand_tEC1B8ne180100IJRS2_EEENS_10in_place_tEDpOT_, symObjAddr: 0x48D8, symBinAddr: 0x1000066D4, symSize: 0x34 }
  - { offset: 0x13950, size: 0x8, addend: 0x0, symName: __ZNSt3__116__variant_detail5__altILm1E6Mand_tEC2B8ne180100IJRS2_EEENS_10in_place_tEDpOT_, symObjAddr: 0x490C, symBinAddr: 0x100006708, symSize: 0x34 }
  - { offset: 0x139A8, size: 0x8, addend: 0x0, symName: __ZN6Mand_tC1ERKS_, symObjAddr: 0x4940, symBinAddr: 0x10000673C, symSize: 0x34 }
  - { offset: 0x139DC, size: 0x8, addend: 0x0, symName: __ZN6Mand_tC2ERKS_, symObjAddr: 0x4974, symBinAddr: 0x100006770, symSize: 0x40 }
  - { offset: 0x13A10, size: 0x8, addend: 0x0, symName: __ZN7Sleep_tC2ERKS_, symObjAddr: 0x49B4, symBinAddr: 0x1000067B0, symSize: 0x48 }
  - { offset: 0x13A44, size: 0x8, addend: 0x0, symName: __ZNSt3__17variantIJ7Break_t6None_tEEC2B8ne180100IRS1_Li0ELi0ELi0ES1_Lm0ELi0EEEOT_, symObjAddr: 0x49FC, symBinAddr: 0x1000067F8, symSize: 0x34 }
  - { offset: 0x13AB0, size: 0x8, addend: 0x0, symName: __ZNSt3__116__variant_detail6__implIJ7Break_t6None_tEECI1NS0_6__baseILNS0_6_TraitE1EJS2_S3_EEEILm0EJRS2_EEENS_16in_place_index_tIXT_EEEDpOT0_, symObjAddr: 0x4A30, symBinAddr: 0x10000682C, symSize: 0x34 }
  - { offset: 0x13AEE, size: 0x8, addend: 0x0, symName: __ZNSt3__116__variant_detail6__implIJ7Break_t6None_tEECI2NS0_6__baseILNS0_6_TraitE1EJS2_S3_EEEILm0EJRS2_EEENS_16in_place_index_tIXT_EEEDpOT0_, symObjAddr: 0x4A64, symBinAddr: 0x100006860, symSize: 0x34 }
  - { offset: 0x13B2C, size: 0x8, addend: 0x0, symName: __ZNSt3__116__variant_detail17__copy_assignmentINS0_8__traitsIJ7Break_t6None_tEEELNS0_6_TraitE1EECI2NS0_6__baseILS6_1EJS3_S4_EEEILm0EJRS3_EEENS_16in_place_index_tIXT_EEEDpOT0_, symObjAddr: 0x4A98, symBinAddr: 0x100006894, symSize: 0x34 }
  - { offset: 0x13B6A, size: 0x8, addend: 0x0, symName: __ZNSt3__116__variant_detail17__move_assignmentINS0_8__traitsIJ7Break_t6None_tEEELNS0_6_TraitE1EECI2NS0_6__baseILS6_1EJS3_S4_EEEILm0EJRS3_EEENS_16in_place_index_tIXT_EEEDpOT0_, symObjAddr: 0x4ACC, symBinAddr: 0x1000068C8, symSize: 0x34 }
  - { offset: 0x13BAD, size: 0x8, addend: 0x0, symName: __ZNSt3__116__variant_detail12__assignmentINS0_8__traitsIJ7Break_t6None_tEEEECI2NS0_6__baseILNS0_6_TraitE1EJS3_S4_EEEILm0EJRS3_EEENS_16in_place_index_tIXT_EEEDpOT0_, symObjAddr: 0x4B00, symBinAddr: 0x1000068FC, symSize: 0x34 }
  - { offset: 0x13BEB, size: 0x8, addend: 0x0, symName: __ZNSt3__116__variant_detail18__copy_constructorINS0_8__traitsIJ7Break_t6None_tEEELNS0_6_TraitE1EECI2NS0_6__baseILS6_1EJS3_S4_EEEILm0EJRS3_EEENS_16in_place_index_tIXT_EEEDpOT0_, symObjAddr: 0x4B34, symBinAddr: 0x100006930, symSize: 0x34 }
  - { offset: 0x13C29, size: 0x8, addend: 0x0, symName: __ZNSt3__116__variant_detail18__move_constructorINS0_8__traitsIJ7Break_t6None_tEEELNS0_6_TraitE1EECI2NS0_6__baseILS6_1EJS3_S4_EEEILm0EJRS3_EEENS_16in_place_index_tIXT_EEEDpOT0_, symObjAddr: 0x4B68, symBinAddr: 0x100006964, symSize: 0x34 }
  - { offset: 0x13C6C, size: 0x8, addend: 0x0, symName: __ZNSt3__116__variant_detail6__ctorINS0_8__traitsIJ7Break_t6None_tEEEECI2NS0_6__baseILNS0_6_TraitE1EJS3_S4_EEEILm0EJRS3_EEENS_16in_place_index_tIXT_EEEDpOT0_, symObjAddr: 0x4B9C, symBinAddr: 0x100006998, symSize: 0x34 }
  - { offset: 0x13CAA, size: 0x8, addend: 0x0, symName: __ZNSt3__116__variant_detail6__dtorINS0_8__traitsIJ7Break_t6None_tEEELNS0_6_TraitE1EECI2NS0_6__baseILS6_1EJS3_S4_EEEILm0EJRS3_EEENS_16in_place_index_tIXT_EEEDpOT0_, symObjAddr: 0x4BD0, symBinAddr: 0x1000069CC, symSize: 0x34 }
  - { offset: 0x13CE8, size: 0x8, addend: 0x0, symName: __ZNSt3__116__variant_detail6__baseILNS0_6_TraitE1EJ7Break_t6None_tEEC2B8ne180100ILm0EJRS3_EEENS_16in_place_index_tIXT_EEEDpOT0_, symObjAddr: 0x4C04, symBinAddr: 0x100006A00, symSize: 0x38 }
  - { offset: 0x13D40, size: 0x8, addend: 0x0, symName: __ZNSt3__116__variant_detail7__unionILNS0_6_TraitE1ELm0EJ7Break_t6None_tEEC1B8ne180100IJRS3_EEENS_16in_place_index_tILm0EEEDpOT_, symObjAddr: 0x4C3C, symBinAddr: 0x100006A38, symSize: 0x34 }
  - { offset: 0x13D8E, size: 0x8, addend: 0x0, symName: __ZNSt3__116__variant_detail7__unionILNS0_6_TraitE1ELm0EJ7Break_t6None_tEEC2B8ne180100IJRS3_EEENS_16in_place_index_tILm0EEEDpOT_, symObjAddr: 0x4C70, symBinAddr: 0x100006A6C, symSize: 0x34 }
  - { offset: 0x13DE1, size: 0x8, addend: 0x0, symName: __ZNSt3__116__variant_detail5__altILm0E7Break_tEC1B8ne180100IJRS2_EEENS_10in_place_tEDpOT_, symObjAddr: 0x4CA4, symBinAddr: 0x100006AA0, symSize: 0x34 }
  - { offset: 0x13E2F, size: 0x8, addend: 0x0, symName: __ZNSt3__116__variant_detail5__altILm0E7Break_tEC2B8ne180100IJRS2_EEENS_10in_place_tEDpOT_, symObjAddr: 0x4CD8, symBinAddr: 0x100006AD4, symSize: 0x34 }
  - { offset: 0x13E87, size: 0x8, addend: 0x0, symName: __ZN7Break_tC1ERKS_, symObjAddr: 0x4D0C, symBinAddr: 0x100006B08, symSize: 0x34 }
  - { offset: 0x13EBB, size: 0x8, addend: 0x0, symName: __ZN7Break_tC2ERKS_, symObjAddr: 0x4D40, symBinAddr: 0x100006B3C, symSize: 0x48 }
  - { offset: 0x13EEF, size: 0x8, addend: 0x0, symName: __ZNSt3__17variantIJ7Break_t6None_tEED2B8ne180100Ev, symObjAddr: 0x4D88, symBinAddr: 0x100006B84, symSize: 0x2C }
  - { offset: 0x13F18, size: 0x8, addend: 0x0, symName: __ZNSt3__116__variant_detail6__implIJ7Break_t6None_tEED1Ev, symObjAddr: 0x4DB4, symBinAddr: 0x100006BB0, symSize: 0x2C }
  - { offset: 0x13F44, size: 0x8, addend: 0x0, symName: __ZNSt3__116__variant_detail6__implIJ7Break_t6None_tEED2Ev, symObjAddr: 0x4DE0, symBinAddr: 0x100006BDC, symSize: 0x2C }
  - { offset: 0x13F70, size: 0x8, addend: 0x0, symName: __ZNSt3__116__variant_detail17__copy_assignmentINS0_8__traitsIJ7Break_t6None_tEEELNS0_6_TraitE1EED2Ev, symObjAddr: 0x4E0C, symBinAddr: 0x100006C08, symSize: 0x2C }
  - { offset: 0x13F99, size: 0x8, addend: 0x0, symName: __ZNSt3__116__variant_detail17__move_assignmentINS0_8__traitsIJ7Break_t6None_tEEELNS0_6_TraitE1EED2Ev, symObjAddr: 0x4E38, symBinAddr: 0x100006C34, symSize: 0x2C }
  - { offset: 0x13FC2, size: 0x8, addend: 0x0, symName: __ZNSt3__116__variant_detail12__assignmentINS0_8__traitsIJ7Break_t6None_tEEEED2Ev, symObjAddr: 0x4E64, symBinAddr: 0x100006C60, symSize: 0x2C }
  - { offset: 0x13FEE, size: 0x8, addend: 0x0, symName: __ZNSt3__116__variant_detail18__copy_constructorINS0_8__traitsIJ7Break_t6None_tEEELNS0_6_TraitE1EED2Ev, symObjAddr: 0x4E90, symBinAddr: 0x100006C8C, symSize: 0x2C }
  - { offset: 0x14017, size: 0x8, addend: 0x0, symName: __ZNSt3__116__variant_detail18__move_constructorINS0_8__traitsIJ7Break_t6None_tEEELNS0_6_TraitE1EED2Ev, symObjAddr: 0x4EBC, symBinAddr: 0x100006CB8, symSize: 0x2C }
  - { offset: 0x14040, size: 0x8, addend: 0x0, symName: __ZNSt3__116__variant_detail6__ctorINS0_8__traitsIJ7Break_t6None_tEEEED2Ev, symObjAddr: 0x4EE8, symBinAddr: 0x100006CE4, symSize: 0x2C }
  - { offset: 0x1406C, size: 0x8, addend: 0x0, symName: __ZNSt3__116__variant_detail6__dtorINS0_8__traitsIJ7Break_t6None_tEEELNS0_6_TraitE1EED2Ev, symObjAddr: 0x4F14, symBinAddr: 0x100006D10, symSize: 0x34 }
  - { offset: 0x14095, size: 0x8, addend: 0x0, symName: __ZNSt3__116__variant_detail6__dtorINS0_8__traitsIJ7Break_t6None_tEEELNS0_6_TraitE1EE9__destroyB8ne180100Ev, symObjAddr: 0x4F48, symBinAddr: 0x100006D44, symSize: 0x54 }
  - { offset: 0x140FC, size: 0x8, addend: 0x0, symName: __ZNSt3__116__variant_detail6__baseILNS0_6_TraitE1EJ7Break_t6None_tEED2Ev, symObjAddr: 0x4F9C, symBinAddr: 0x100006D98, symSize: 0x2C }
  - { offset: 0x14128, size: 0x8, addend: 0x0, symName: __ZNKSt3__116__variant_detail6__baseILNS0_6_TraitE1EJ7Break_t6None_tEE22valueless_by_exceptionB8ne180100Ev, symObjAddr: 0x4FC8, symBinAddr: 0x100006DC4, symSize: 0x30 }
  - { offset: 0x14151, size: 0x8, addend: 0x0, symName: __ZNSt3__116__variant_detail12__visitation6__base11__visit_altB8ne180100IZNS0_6__dtorINS0_8__traitsIJ7Break_t6None_tEEELNS0_6_TraitE1EE9__destroyB8ne180100EvEUlRT_E_JRSA_EEEDcOSB_DpOT0_, symObjAddr: 0x4FF8, symBinAddr: 0x100006DF4, symSize: 0x74 }
  - { offset: 0x141A7, size: 0x8, addend: 0x0, symName: __ZNKSt3__116__variant_detail6__baseILNS0_6_TraitE1EJ7Break_t6None_tEE5indexB8ne180100Ev, symObjAddr: 0x506C, symBinAddr: 0x100006E68, symSize: 0x4C }
  - { offset: 0x141D0, size: 0x8, addend: 0x0, symName: __ZNSt3__116__variant_detail12__visitation6__base12__dispatcherIJLm0EEE10__dispatchB8ne180100IOZNS0_6__dtorINS0_8__traitsIJ7Break_t6None_tEEELNS0_6_TraitE1EE9__destroyB8ne180100EvEUlRT_E_JRNS0_6__baseILSB_1EJS8_S9_EEEEEEDcSD_DpT0_, symObjAddr: 0x50B8, symBinAddr: 0x100006EB4, symSize: 0x3C }
  - { offset: 0x14216, size: 0x8, addend: 0x0, symName: __ZNSt3__116__variant_detail12__visitation6__base12__dispatcherIJLm1EEE10__dispatchB8ne180100IOZNS0_6__dtorINS0_8__traitsIJ7Break_t6None_tEEELNS0_6_TraitE1EE9__destroyB8ne180100EvEUlRT_E_JRNS0_6__baseILSB_1EJS8_S9_EEEEEEDcSD_DpT0_, symObjAddr: 0x50F4, symBinAddr: 0x100006EF0, symSize: 0x3C }
  - { offset: 0x14293, size: 0x8, addend: 0x0, symName: __ZNSt3__116__variant_detail12__visitation6__base4__atB8ne180100IPFvOZNS0_6__dtorINS0_8__traitsIJ7Break_t6None_tEEELNS0_6_TraitE1EE9__destroyB8ne180100EvEUlRT_E_RNS0_6__baseILS9_1EJS6_S7_EEEELm2EJEEEODaRKNS_8__farrayISB_XT0_EEEmDpT1_, symObjAddr: 0x5130, symBinAddr: 0x100006F2C, symSize: 0x30 }
  - { offset: 0x142DE, size: 0x8, addend: 0x0, symName: __ZNRSt3__116__variant_detail6__baseILNS0_6_TraitE1EJ7Break_t6None_tEE9__as_baseB8ne180100Ev, symObjAddr: 0x5160, symBinAddr: 0x100006F5C, symSize: 0x14 }
  - { offset: 0x14307, size: 0x8, addend: 0x0, symName: __ZNSt3__116__variant_detail8__access6__base9__get_altB8ne180100ILm0ERNS0_6__baseILNS0_6_TraitE1EJ7Break_t6None_tEEEEEODaOT0_, symObjAddr: 0x51A0, symBinAddr: 0x100006F9C, symSize: 0x24 }
  - { offset: 0x14348, size: 0x8, addend: 0x0, symName: __ZZNSt3__116__variant_detail6__dtorINS0_8__traitsIJ7Break_t6None_tEEELNS0_6_TraitE1EE9__destroyB8ne180100EvENKUlRT_E_clINS0_5__altILm0ES3_EEEEDaS9_, symObjAddr: 0x51C4, symBinAddr: 0x100006FC0, symSize: 0x28 }
  - { offset: 0x14389, size: 0x8, addend: 0x0, symName: __ZNSt3__116__variant_detail5__altILm0E7Break_tED1Ev, symObjAddr: 0x51EC, symBinAddr: 0x100006FE8, symSize: 0x2C }
  - { offset: 0x143B5, size: 0x8, addend: 0x0, symName: __ZNSt3__116__variant_detail5__altILm0E7Break_tED2Ev, symObjAddr: 0x5218, symBinAddr: 0x100007014, symSize: 0x2C }
  - { offset: 0x143E1, size: 0x8, addend: 0x0, symName: __ZNSt3__116__variant_detail8__access7__union9__get_altB8ne180100IRNS0_7__unionILNS0_6_TraitE1ELm0EJ7Break_t6None_tEEEEEODaOT_NS_16in_place_index_tILm0EEE, symObjAddr: 0x5244, symBinAddr: 0x100007040, symSize: 0x14 }
  - { offset: 0x1441D, size: 0x8, addend: 0x0, symName: __ZNSt3__116__variant_detail8__access6__base9__get_altB8ne180100ILm1ERNS0_6__baseILNS0_6_TraitE1EJ7Break_t6None_tEEEEEODaOT0_, symObjAddr: 0x5284, symBinAddr: 0x100007080, symSize: 0x24 }
  - { offset: 0x14454, size: 0x8, addend: 0x0, symName: __ZZNSt3__116__variant_detail6__dtorINS0_8__traitsIJ7Break_t6None_tEEELNS0_6_TraitE1EE9__destroyB8ne180100EvENKUlRT_E_clINS0_5__altILm1ES4_EEEEDaS9_, symObjAddr: 0x52A8, symBinAddr: 0x1000070A4, symSize: 0x28 }
  - { offset: 0x1449A, size: 0x8, addend: 0x0, symName: __ZNSt3__116__variant_detail5__altILm1E6None_tED1Ev, symObjAddr: 0x52D0, symBinAddr: 0x1000070CC, symSize: 0x2C }
  - { offset: 0x144C6, size: 0x8, addend: 0x0, symName: __ZNSt3__116__variant_detail5__altILm1E6None_tED2Ev, symObjAddr: 0x52FC, symBinAddr: 0x1000070F8, symSize: 0x2C }
  - { offset: 0x144F1, size: 0x8, addend: 0x0, symName: __ZNSt3__116__variant_detail8__access7__union9__get_altB8ne180100IRNS0_7__unionILNS0_6_TraitE1ELm0EJ7Break_t6None_tEEELm1EEEODaOT_NS_16in_place_index_tIXT0_EEE, symObjAddr: 0x5328, symBinAddr: 0x100007124, symSize: 0x24 }
  - { offset: 0x14533, size: 0x8, addend: 0x0, symName: __ZNSt3__116__variant_detail8__access7__union9__get_altB8ne180100IRNS0_7__unionILNS0_6_TraitE1ELm1EJ6None_tEEEEEODaOT_NS_16in_place_index_tILm0EEE, symObjAddr: 0x534C, symBinAddr: 0x100007148, symSize: 0x14 }
  - { offset: 0x1456B, size: 0x8, addend: 0x0, symName: __ZNSt3__116__variant_detail12__visitation6__base4__atB8ne180100IPFvOZNS0_6__dtorINS0_8__traitsIJ7Break_t6None_tEEELNS0_6_TraitE1EE9__destroyB8ne180100EvEUlRT_E_RNS0_6__baseILS9_1EJS6_S7_EEEEEERKSB_SL_, symObjAddr: 0x5360, symBinAddr: 0x10000715C, symSize: 0x14 }
  - { offset: 0x14598, size: 0x8, addend: 0x0, symName: __ZNKSt3__18__farrayIPFvOZNS_16__variant_detail6__dtorINS1_8__traitsIJ7Break_t6None_tEEELNS1_6_TraitE1EE9__destroyB8ne180100EvEUlRT_E_RNS1_6__baseILS7_1EJS4_S5_EEEELm2EEixB8ne180100Em, symObjAddr: 0x5374, symBinAddr: 0x100007170, symSize: 0x20 }
  - { offset: 0x145CC, size: 0x8, addend: 0x0, symName: __ZNSt3__116__variant_detail7__unionILNS0_6_TraitE1ELm0EJ7Break_t6None_tEED1Ev, symObjAddr: 0x5394, symBinAddr: 0x100007190, symSize: 0x2C }
  - { offset: 0x145F5, size: 0x8, addend: 0x0, symName: __ZNSt3__116__variant_detail7__unionILNS0_6_TraitE1ELm0EJ7Break_t6None_tEED2Ev, symObjAddr: 0x53C0, symBinAddr: 0x1000071BC, symSize: 0x14 }
  - { offset: 0x1461E, size: 0x8, addend: 0x0, symName: __ZNSt3__17variantIJ7Break_t6None_tEEC2B8ne180100IRS2_Li0ELi0ELi0ES2_Lm1ELi0EEEOT_, symObjAddr: 0x53D4, symBinAddr: 0x1000071D0, symSize: 0x34 }
  - { offset: 0x1468A, size: 0x8, addend: 0x0, symName: __ZNSt3__116__variant_detail6__implIJ7Break_t6None_tEECI1NS0_6__baseILNS0_6_TraitE1EJS2_S3_EEEILm1EJRS3_EEENS_16in_place_index_tIXT_EEEDpOT0_, symObjAddr: 0x5408, symBinAddr: 0x100007204, symSize: 0x34 }
  - { offset: 0x146C8, size: 0x8, addend: 0x0, symName: __ZNSt3__116__variant_detail6__implIJ7Break_t6None_tEECI2NS0_6__baseILNS0_6_TraitE1EJS2_S3_EEEILm1EJRS3_EEENS_16in_place_index_tIXT_EEEDpOT0_, symObjAddr: 0x543C, symBinAddr: 0x100007238, symSize: 0x34 }
  - { offset: 0x14706, size: 0x8, addend: 0x0, symName: __ZNSt3__116__variant_detail17__copy_assignmentINS0_8__traitsIJ7Break_t6None_tEEELNS0_6_TraitE1EECI2NS0_6__baseILS6_1EJS3_S4_EEEILm1EJRS4_EEENS_16in_place_index_tIXT_EEEDpOT0_, symObjAddr: 0x5470, symBinAddr: 0x10000726C, symSize: 0x34 }
  - { offset: 0x14744, size: 0x8, addend: 0x0, symName: __ZNSt3__116__variant_detail17__move_assignmentINS0_8__traitsIJ7Break_t6None_tEEELNS0_6_TraitE1EECI2NS0_6__baseILS6_1EJS3_S4_EEEILm1EJRS4_EEENS_16in_place_index_tIXT_EEEDpOT0_, symObjAddr: 0x54A4, symBinAddr: 0x1000072A0, symSize: 0x34 }
  - { offset: 0x14782, size: 0x8, addend: 0x0, symName: __ZNSt3__116__variant_detail12__assignmentINS0_8__traitsIJ7Break_t6None_tEEEECI2NS0_6__baseILNS0_6_TraitE1EJS3_S4_EEEILm1EJRS4_EEENS_16in_place_index_tIXT_EEEDpOT0_, symObjAddr: 0x54D8, symBinAddr: 0x1000072D4, symSize: 0x34 }
  - { offset: 0x147C0, size: 0x8, addend: 0x0, symName: __ZNSt3__116__variant_detail18__copy_constructorINS0_8__traitsIJ7Break_t6None_tEEELNS0_6_TraitE1EECI2NS0_6__baseILS6_1EJS3_S4_EEEILm1EJRS4_EEENS_16in_place_index_tIXT_EEEDpOT0_, symObjAddr: 0x550C, symBinAddr: 0x100007308, symSize: 0x34 }
  - { offset: 0x147FE, size: 0x8, addend: 0x0, symName: __ZNSt3__116__variant_detail18__move_constructorINS0_8__traitsIJ7Break_t6None_tEEELNS0_6_TraitE1EECI2NS0_6__baseILS6_1EJS3_S4_EEEILm1EJRS4_EEENS_16in_place_index_tIXT_EEEDpOT0_, symObjAddr: 0x5540, symBinAddr: 0x10000733C, symSize: 0x34 }
  - { offset: 0x1483C, size: 0x8, addend: 0x0, symName: __ZNSt3__116__variant_detail6__ctorINS0_8__traitsIJ7Break_t6None_tEEEECI2NS0_6__baseILNS0_6_TraitE1EJS3_S4_EEEILm1EJRS4_EEENS_16in_place_index_tIXT_EEEDpOT0_, symObjAddr: 0x5574, symBinAddr: 0x100007370, symSize: 0x34 }
  - { offset: 0x1487A, size: 0x8, addend: 0x0, symName: __ZNSt3__116__variant_detail6__dtorINS0_8__traitsIJ7Break_t6None_tEEELNS0_6_TraitE1EECI2NS0_6__baseILS6_1EJS3_S4_EEEILm1EJRS4_EEENS_16in_place_index_tIXT_EEEDpOT0_, symObjAddr: 0x55A8, symBinAddr: 0x1000073A4, symSize: 0x34 }
  - { offset: 0x148B8, size: 0x8, addend: 0x0, symName: __ZNSt3__116__variant_detail6__baseILNS0_6_TraitE1EJ7Break_t6None_tEEC2B8ne180100ILm1EJRS4_EEENS_16in_place_index_tIXT_EEEDpOT0_, symObjAddr: 0x55DC, symBinAddr: 0x1000073D8, symSize: 0x3C }
  - { offset: 0x14910, size: 0x8, addend: 0x0, symName: __ZNSt3__116__variant_detail7__unionILNS0_6_TraitE1ELm0EJ7Break_t6None_tEEC1B8ne180100ILm1EJRS4_EEENS_16in_place_index_tIXT_EEEDpOT0_, symObjAddr: 0x5618, symBinAddr: 0x100007414, symSize: 0x34 }
  - { offset: 0x14968, size: 0x8, addend: 0x0, symName: __ZNSt3__116__variant_detail7__unionILNS0_6_TraitE1ELm0EJ7Break_t6None_tEEC2B8ne180100ILm1EJRS4_EEENS_16in_place_index_tIXT_EEEDpOT0_, symObjAddr: 0x564C, symBinAddr: 0x100007448, symSize: 0x34 }
  - { offset: 0x149C0, size: 0x8, addend: 0x0, symName: __ZNSt3__116__variant_detail7__unionILNS0_6_TraitE1ELm1EJ6None_tEEC1B8ne180100IJRS3_EEENS_16in_place_index_tILm0EEEDpOT_, symObjAddr: 0x5680, symBinAddr: 0x10000747C, symSize: 0x34 }
  - { offset: 0x14A0E, size: 0x8, addend: 0x0, symName: __ZNSt3__116__variant_detail7__unionILNS0_6_TraitE1ELm1EJ6None_tEEC2B8ne180100IJRS3_EEENS_16in_place_index_tILm0EEEDpOT_, symObjAddr: 0x56B4, symBinAddr: 0x1000074B0, symSize: 0x34 }
  - { offset: 0x14A5C, size: 0x8, addend: 0x0, symName: __ZNSt3__116__variant_detail5__altILm1E6None_tEC1B8ne180100IJRS2_EEENS_10in_place_tEDpOT_, symObjAddr: 0x56E8, symBinAddr: 0x1000074E4, symSize: 0x34 }
  - { offset: 0x14AAA, size: 0x8, addend: 0x0, symName: __ZNSt3__116__variant_detail5__altILm1E6None_tEC2B8ne180100IJRS2_EEENS_10in_place_tEDpOT_, symObjAddr: 0x571C, symBinAddr: 0x100007518, symSize: 0x34 }
  - { offset: 0x14B02, size: 0x8, addend: 0x0, symName: __ZN6None_tC1ERKS_, symObjAddr: 0x5750, symBinAddr: 0x10000754C, symSize: 0x34 }
  - { offset: 0x14B36, size: 0x8, addend: 0x0, symName: __ZN6None_tC2ERKS_, symObjAddr: 0x5784, symBinAddr: 0x100007580, symSize: 0x34 }
  - { offset: 0x14B6A, size: 0x8, addend: 0x0, symName: __ZN4WORKC2ERKS_, symObjAddr: 0x57B8, symBinAddr: 0x1000075B4, symSize: 0x84 }
  - { offset: 0x14B9E, size: 0x8, addend: 0x0, symName: __ZNSt3__17variantIJ11UniCourse_t6Mand_tEEC1B8ne180100ERKS3_, symObjAddr: 0x583C, symBinAddr: 0x100007638, symSize: 0x34 }
  - { offset: 0x14BD2, size: 0x8, addend: 0x0, symName: __ZNSt3__17variantIJ11UniCourse_t6Mand_tEEC2B8ne180100ERKS3_, symObjAddr: 0x5870, symBinAddr: 0x10000766C, symSize: 0x34 }
  - { offset: 0x14C06, size: 0x8, addend: 0x0, symName: __ZNSt3__116__variant_detail6__implIJ11UniCourse_t6Mand_tEEC1B8ne180100ERKS4_, symObjAddr: 0x58A4, symBinAddr: 0x1000076A0, symSize: 0x34 }
  - { offset: 0x14C3A, size: 0x8, addend: 0x0, symName: __ZNSt3__116__variant_detail6__implIJ11UniCourse_t6Mand_tEEC2B8ne180100ERKS4_, symObjAddr: 0x58D8, symBinAddr: 0x1000076D4, symSize: 0x34 }
  - { offset: 0x14C6E, size: 0x8, addend: 0x0, symName: __ZNSt3__116__variant_detail17__copy_assignmentINS0_8__traitsIJ11UniCourse_t6Mand_tEEELNS0_6_TraitE1EEC2ERKS7_, symObjAddr: 0x590C, symBinAddr: 0x100007708, symSize: 0x34 }
  - { offset: 0x14CA2, size: 0x8, addend: 0x0, symName: __ZNSt3__116__variant_detail17__move_assignmentINS0_8__traitsIJ11UniCourse_t6Mand_tEEELNS0_6_TraitE1EEC2ERKS7_, symObjAddr: 0x5940, symBinAddr: 0x10000773C, symSize: 0x34 }
  - { offset: 0x14CE0, size: 0x8, addend: 0x0, symName: __ZNSt3__116__variant_detail12__assignmentINS0_8__traitsIJ11UniCourse_t6Mand_tEEEEC2ERKS6_, symObjAddr: 0x5974, symBinAddr: 0x100007770, symSize: 0x34 }
  - { offset: 0x14D15, size: 0x8, addend: 0x0, symName: __ZNSt3__116__variant_detail18__copy_constructorINS0_8__traitsIJ11UniCourse_t6Mand_tEEELNS0_6_TraitE1EEC2ERKS7_, symObjAddr: 0x59A8, symBinAddr: 0x1000077A4, symSize: 0x64 }
  - { offset: 0x14D4D, size: 0x8, addend: 0x0, symName: __ZNSt3__116__variant_detail18__copy_constructorINS0_8__traitsIJ11UniCourse_t6Mand_tEEELNS0_6_TraitE1EECI2NS0_6__baseILS6_1EJS3_S4_EEEENS0_13__valueless_tE, symObjAddr: 0x5A0C, symBinAddr: 0x100007808, symSize: 0x2C }
  - { offset: 0x14D86, size: 0x8, addend: 0x0, symName: __ZNSt3__116__variant_detail6__ctorINS0_8__traitsIJ11UniCourse_t6Mand_tEEEE19__generic_constructB8ne180100IRKNS0_18__copy_constructorIS5_LNS0_6_TraitE1EEEEEvRS6_OT_, symObjAddr: 0x5A38, symBinAddr: 0x100007834, symSize: 0x68 }
  - { offset: 0x14E3D, size: 0x8, addend: 0x0, symName: __ZNSt3__116__variant_detail18__move_constructorINS0_8__traitsIJ11UniCourse_t6Mand_tEEELNS0_6_TraitE1EECI2NS0_6__baseILS6_1EJS3_S4_EEEENS0_13__valueless_tE, symObjAddr: 0x5AA0, symBinAddr: 0x10000789C, symSize: 0x2C }
  - { offset: 0x14E72, size: 0x8, addend: 0x0, symName: __ZNSt3__116__variant_detail6__ctorINS0_8__traitsIJ11UniCourse_t6Mand_tEEEECI2NS0_6__baseILNS0_6_TraitE1EJS3_S4_EEEENS0_13__valueless_tE, symObjAddr: 0x5ACC, symBinAddr: 0x1000078C8, symSize: 0x2C }
  - { offset: 0x14EA7, size: 0x8, addend: 0x0, symName: __ZNSt3__116__variant_detail6__dtorINS0_8__traitsIJ11UniCourse_t6Mand_tEEELNS0_6_TraitE1EECI2NS0_6__baseILS6_1EJS3_S4_EEEENS0_13__valueless_tE, symObjAddr: 0x5AF8, symBinAddr: 0x1000078F4, symSize: 0x2C }
  - { offset: 0x14EDC, size: 0x8, addend: 0x0, symName: __ZNSt3__116__variant_detail6__baseILNS0_6_TraitE1EJ11UniCourse_t6Mand_tEEC2B8ne180100ENS0_13__valueless_tE, symObjAddr: 0x5B24, symBinAddr: 0x100007920, symSize: 0x34 }
  - { offset: 0x14F14, size: 0x8, addend: 0x0, symName: __ZNSt3__116__variant_detail7__unionILNS0_6_TraitE1ELm0EJ11UniCourse_t6Mand_tEEC1B8ne180100ENS0_13__valueless_tE, symObjAddr: 0x5B58, symBinAddr: 0x100007954, symSize: 0x2C }
  - { offset: 0x14F48, size: 0x8, addend: 0x0, symName: __ZNSt3__116__variant_detail7__unionILNS0_6_TraitE1ELm0EJ11UniCourse_t6Mand_tEEC2B8ne180100ENS0_13__valueless_tE, symObjAddr: 0x5B84, symBinAddr: 0x100007980, symSize: 0x18 }
  - { offset: 0x14F80, size: 0x8, addend: 0x0, symName: __ZNSt3__116__variant_detail12__visitation6__base14__visit_alt_atB8ne180100IZNS0_6__ctorINS0_8__traitsIJ11UniCourse_t6Mand_tEEEE19__generic_constructB8ne180100IRKNS0_18__copy_constructorIS8_LNS0_6_TraitE1EEEEEvRS9_OT_EUlRSH_OT0_E_JSG_SF_EEEDcmSI_DpOT0_, symObjAddr: 0x5B9C, symBinAddr: 0x100007998, symSize: 0x7C }
  - { offset: 0x14FFD, size: 0x8, addend: 0x0, symName: __ZNSt3__116__variant_detail12__visitation6__base12__dispatcherIJLm0ELm0EEE10__dispatchB8ne180100IOZNS0_6__ctorINS0_8__traitsIJ11UniCourse_t6Mand_tEEEE19__generic_constructB8ne180100IRKNS0_18__copy_constructorISA_LNS0_6_TraitE1EEEEEvRSB_OT_EUlRSJ_OT0_E_JRNS0_6__baseILSE_1EJS8_S9_EEERKSR_EEEDcSJ_DpT0_, symObjAddr: 0x5C18, symBinAddr: 0x100007A14, symSize: 0x50 }
  - { offset: 0x15057, size: 0x8, addend: 0x0, symName: __ZNSt3__116__variant_detail12__visitation6__base12__dispatcherIJLm1ELm1EEE10__dispatchB8ne180100IOZNS0_6__ctorINS0_8__traitsIJ11UniCourse_t6Mand_tEEEE19__generic_constructB8ne180100IRKNS0_18__copy_constructorISA_LNS0_6_TraitE1EEEEEvRSB_OT_EUlRSJ_OT0_E_JRNS0_6__baseILSE_1EJS8_S9_EEERKSR_EEEDcSJ_DpT0_, symObjAddr: 0x5C68, symBinAddr: 0x100007A64, symSize: 0x50 }
  - { offset: 0x150E9, size: 0x8, addend: 0x0, symName: __ZNKSt3__18__farrayIPFvOZNS_16__variant_detail6__ctorINS1_8__traitsIJ11UniCourse_t6Mand_tEEEE19__generic_constructB8ne180100IRKNS1_18__copy_constructorIS6_LNS1_6_TraitE1EEEEEvRS7_OT_EUlRSF_OT0_E_RNS1_6__baseILSA_1EJS4_S5_EEERKSN_ELm2EEixB8ne180100Em, symObjAddr: 0x5CB8, symBinAddr: 0x100007AB4, symSize: 0x20 }
  - { offset: 0x1511D, size: 0x8, addend: 0x0, symName: __ZNKRSt3__116__variant_detail6__baseILNS0_6_TraitE1EJ11UniCourse_t6Mand_tEE9__as_baseB8ne180100Ev, symObjAddr: 0x5CD8, symBinAddr: 0x100007AD4, symSize: 0x14 }
  - { offset: 0x1514B, size: 0x8, addend: 0x0, symName: __ZNSt3__116__variant_detail8__access6__base9__get_altB8ne180100ILm0ERKNS0_6__baseILNS0_6_TraitE1EJ11UniCourse_t6Mand_tEEEEEODaOT0_, symObjAddr: 0x5D20, symBinAddr: 0x100007B1C, symSize: 0x24 }
  - { offset: 0x1518C, size: 0x8, addend: 0x0, symName: __ZZNSt3__116__variant_detail6__ctorINS0_8__traitsIJ11UniCourse_t6Mand_tEEEE19__generic_constructB8ne180100IRKNS0_18__copy_constructorIS5_LNS0_6_TraitE1EEEEEvRS6_OT_ENKUlRSE_OT0_E_clINS0_5__altILm0ES3_EERKSM_EEDaSG_SI_, symObjAddr: 0x5D44, symBinAddr: 0x100007B40, symSize: 0x30 }
  - { offset: 0x151E4, size: 0x8, addend: 0x0, symName: __ZNSt3__116__variant_detail6__ctorINS0_8__traitsIJ11UniCourse_t6Mand_tEEEE15__construct_altB8ne180100ILm0ES3_JRKS3_EEERT0_RNS0_5__altIXT_ESA_EEDpOT1_, symObjAddr: 0x5D74, symBinAddr: 0x100007B70, symSize: 0x30 }
  - { offset: 0x15235, size: 0x8, addend: 0x0, symName: __ZNSt3__116__variant_detail5__altILm0E11UniCourse_tEC1B8ne180100IJRKS2_EEENS_10in_place_tEDpOT_, symObjAddr: 0x5DA4, symBinAddr: 0x100007BA0, symSize: 0x34 }
  - { offset: 0x15283, size: 0x8, addend: 0x0, symName: __ZNSt3__116__variant_detail5__altILm0E11UniCourse_tEC2B8ne180100IJRKS2_EEENS_10in_place_tEDpOT_, symObjAddr: 0x5DD8, symBinAddr: 0x100007BD4, symSize: 0x34 }
  - { offset: 0x152D1, size: 0x8, addend: 0x0, symName: __ZNSt3__116__variant_detail8__access7__union9__get_altB8ne180100IRKNS0_7__unionILNS0_6_TraitE1ELm0EJ11UniCourse_t6Mand_tEEEEEODaOT_NS_16in_place_index_tILm0EEE, symObjAddr: 0x5E0C, symBinAddr: 0x100007C08, symSize: 0x14 }
  - { offset: 0x15312, size: 0x8, addend: 0x0, symName: __ZNSt3__116__variant_detail8__access6__base9__get_altB8ne180100ILm1ERKNS0_6__baseILNS0_6_TraitE1EJ11UniCourse_t6Mand_tEEEEEODaOT0_, symObjAddr: 0x5E54, symBinAddr: 0x100007C50, symSize: 0x24 }
  - { offset: 0x15349, size: 0x8, addend: 0x0, symName: __ZZNSt3__116__variant_detail6__ctorINS0_8__traitsIJ11UniCourse_t6Mand_tEEEE19__generic_constructB8ne180100IRKNS0_18__copy_constructorIS5_LNS0_6_TraitE1EEEEEvRS6_OT_ENKUlRSE_OT0_E_clINS0_5__altILm1ES4_EERKSM_EEDaSG_SI_, symObjAddr: 0x5E78, symBinAddr: 0x100007C74, symSize: 0x30 }
  - { offset: 0x153A1, size: 0x8, addend: 0x0, symName: __ZNSt3__116__variant_detail6__ctorINS0_8__traitsIJ11UniCourse_t6Mand_tEEEE15__construct_altB8ne180100ILm1ES4_JRKS4_EEERT0_RNS0_5__altIXT_ESA_EEDpOT1_, symObjAddr: 0x5EA8, symBinAddr: 0x100007CA4, symSize: 0x30 }
  - { offset: 0x153F2, size: 0x8, addend: 0x0, symName: __ZNSt3__116__variant_detail5__altILm1E6Mand_tEC1B8ne180100IJRKS2_EEENS_10in_place_tEDpOT_, symObjAddr: 0x5ED8, symBinAddr: 0x100007CD4, symSize: 0x34 }
  - { offset: 0x15440, size: 0x8, addend: 0x0, symName: __ZNSt3__116__variant_detail5__altILm1E6Mand_tEC2B8ne180100IJRKS2_EEENS_10in_place_tEDpOT_, symObjAddr: 0x5F0C, symBinAddr: 0x100007D08, symSize: 0x34 }
  - { offset: 0x1548D, size: 0x8, addend: 0x0, symName: __ZNSt3__116__variant_detail8__access7__union9__get_altB8ne180100IRKNS0_7__unionILNS0_6_TraitE1ELm0EJ11UniCourse_t6Mand_tEEELm1EEEODaOT_NS_16in_place_index_tIXT0_EEE, symObjAddr: 0x5F40, symBinAddr: 0x100007D3C, symSize: 0x24 }
  - { offset: 0x154CF, size: 0x8, addend: 0x0, symName: __ZNSt3__116__variant_detail8__access7__union9__get_altB8ne180100IRKNS0_7__unionILNS0_6_TraitE1ELm1EJ6Mand_tEEEEEODaOT_NS_16in_place_index_tILm0EEE, symObjAddr: 0x5F64, symBinAddr: 0x100007D60, symSize: 0x14 }
  - { offset: 0x15507, size: 0x8, addend: 0x0, symName: __ZN4WORKD2Ev, symObjAddr: 0x5F78, symBinAddr: 0x100007D74, symSize: 0x3C }
  - { offset: 0x15532, size: 0x8, addend: 0x0, symName: __ZN5SLEEPC2ERKS_, symObjAddr: 0x5FB4, symBinAddr: 0x100007DB0, symSize: 0x34 }
  - { offset: 0x15566, size: 0x8, addend: 0x0, symName: __ZN5SLEEPD2Ev, symObjAddr: 0x5FE8, symBinAddr: 0x100007DE4, symSize: 0x2C }
  - { offset: 0x15591, size: 0x8, addend: 0x0, symName: __ZN4FREEC2ERKS_, symObjAddr: 0x6014, symBinAddr: 0x100007E10, symSize: 0x7C }
  - { offset: 0x155C5, size: 0x8, addend: 0x0, symName: __ZNSt3__17variantIJ7Break_t6None_tEEC1B8ne180100ERKS3_, symObjAddr: 0x6090, symBinAddr: 0x100007E8C, symSize: 0x34 }
  - { offset: 0x155F9, size: 0x8, addend: 0x0, symName: __ZNSt3__17variantIJ7Break_t6None_tEEC2B8ne180100ERKS3_, symObjAddr: 0x60C4, symBinAddr: 0x100007EC0, symSize: 0x34 }
  - { offset: 0x1562D, size: 0x8, addend: 0x0, symName: __ZNSt3__116__variant_detail6__implIJ7Break_t6None_tEEC1B8ne180100ERKS4_, symObjAddr: 0x60F8, symBinAddr: 0x100007EF4, symSize: 0x34 }
  - { offset: 0x15661, size: 0x8, addend: 0x0, symName: __ZNSt3__116__variant_detail6__implIJ7Break_t6None_tEEC2B8ne180100ERKS4_, symObjAddr: 0x612C, symBinAddr: 0x100007F28, symSize: 0x34 }
  - { offset: 0x15695, size: 0x8, addend: 0x0, symName: __ZNSt3__116__variant_detail17__copy_assignmentINS0_8__traitsIJ7Break_t6None_tEEELNS0_6_TraitE1EEC2ERKS7_, symObjAddr: 0x6160, symBinAddr: 0x100007F5C, symSize: 0x34 }
  - { offset: 0x156C9, size: 0x8, addend: 0x0, symName: __ZNSt3__116__variant_detail17__move_assignmentINS0_8__traitsIJ7Break_t6None_tEEELNS0_6_TraitE1EEC2ERKS7_, symObjAddr: 0x6194, symBinAddr: 0x100007F90, symSize: 0x34 }
  - { offset: 0x15707, size: 0x8, addend: 0x0, symName: __ZNSt3__116__variant_detail12__assignmentINS0_8__traitsIJ7Break_t6None_tEEEEC2ERKS6_, symObjAddr: 0x61C8, symBinAddr: 0x100007FC4, symSize: 0x34 }
  - { offset: 0x1573C, size: 0x8, addend: 0x0, symName: __ZNSt3__116__variant_detail18__copy_constructorINS0_8__traitsIJ7Break_t6None_tEEELNS0_6_TraitE1EEC2ERKS7_, symObjAddr: 0x61FC, symBinAddr: 0x100007FF8, symSize: 0x64 }
  - { offset: 0x15774, size: 0x8, addend: 0x0, symName: __ZNSt3__116__variant_detail18__copy_constructorINS0_8__traitsIJ7Break_t6None_tEEELNS0_6_TraitE1EECI2NS0_6__baseILS6_1EJS3_S4_EEEENS0_13__valueless_tE, symObjAddr: 0x6260, symBinAddr: 0x10000805C, symSize: 0x2C }
  - { offset: 0x157AD, size: 0x8, addend: 0x0, symName: __ZNSt3__116__variant_detail6__ctorINS0_8__traitsIJ7Break_t6None_tEEEE19__generic_constructB8ne180100IRKNS0_18__copy_constructorIS5_LNS0_6_TraitE1EEEEEvRS6_OT_, symObjAddr: 0x628C, symBinAddr: 0x100008088, symSize: 0x68 }
  - { offset: 0x15864, size: 0x8, addend: 0x0, symName: __ZNSt3__116__variant_detail18__move_constructorINS0_8__traitsIJ7Break_t6None_tEEELNS0_6_TraitE1EECI2NS0_6__baseILS6_1EJS3_S4_EEEENS0_13__valueless_tE, symObjAddr: 0x62F4, symBinAddr: 0x1000080F0, symSize: 0x2C }
  - { offset: 0x15899, size: 0x8, addend: 0x0, symName: __ZNSt3__116__variant_detail6__ctorINS0_8__traitsIJ7Break_t6None_tEEEECI2NS0_6__baseILNS0_6_TraitE1EJS3_S4_EEEENS0_13__valueless_tE, symObjAddr: 0x6320, symBinAddr: 0x10000811C, symSize: 0x2C }
  - { offset: 0x158CE, size: 0x8, addend: 0x0, symName: __ZNSt3__116__variant_detail6__dtorINS0_8__traitsIJ7Break_t6None_tEEELNS0_6_TraitE1EECI2NS0_6__baseILS6_1EJS3_S4_EEEENS0_13__valueless_tE, symObjAddr: 0x634C, symBinAddr: 0x100008148, symSize: 0x2C }
  - { offset: 0x15903, size: 0x8, addend: 0x0, symName: __ZNSt3__116__variant_detail6__baseILNS0_6_TraitE1EJ7Break_t6None_tEEC2B8ne180100ENS0_13__valueless_tE, symObjAddr: 0x6378, symBinAddr: 0x100008174, symSize: 0x34 }
  - { offset: 0x1593B, size: 0x8, addend: 0x0, symName: __ZNSt3__116__variant_detail7__unionILNS0_6_TraitE1ELm0EJ7Break_t6None_tEEC1B8ne180100ENS0_13__valueless_tE, symObjAddr: 0x63AC, symBinAddr: 0x1000081A8, symSize: 0x2C }
  - { offset: 0x1596F, size: 0x8, addend: 0x0, symName: __ZNSt3__116__variant_detail7__unionILNS0_6_TraitE1ELm0EJ7Break_t6None_tEEC2B8ne180100ENS0_13__valueless_tE, symObjAddr: 0x63D8, symBinAddr: 0x1000081D4, symSize: 0x18 }
  - { offset: 0x159A7, size: 0x8, addend: 0x0, symName: __ZNSt3__116__variant_detail12__visitation6__base14__visit_alt_atB8ne180100IZNS0_6__ctorINS0_8__traitsIJ7Break_t6None_tEEEE19__generic_constructB8ne180100IRKNS0_18__copy_constructorIS8_LNS0_6_TraitE1EEEEEvRS9_OT_EUlRSH_OT0_E_JSG_SF_EEEDcmSI_DpOT0_, symObjAddr: 0x63F0, symBinAddr: 0x1000081EC, symSize: 0x7C }
  - { offset: 0x15A24, size: 0x8, addend: 0x0, symName: __ZNSt3__116__variant_detail12__visitation6__base12__dispatcherIJLm0ELm0EEE10__dispatchB8ne180100IOZNS0_6__ctorINS0_8__traitsIJ7Break_t6None_tEEEE19__generic_constructB8ne180100IRKNS0_18__copy_constructorISA_LNS0_6_TraitE1EEEEEvRSB_OT_EUlRSJ_OT0_E_JRNS0_6__baseILSE_1EJS8_S9_EEERKSR_EEEDcSJ_DpT0_, symObjAddr: 0x646C, symBinAddr: 0x100008268, symSize: 0x50 }
  - { offset: 0x15A7E, size: 0x8, addend: 0x0, symName: __ZNSt3__116__variant_detail12__visitation6__base12__dispatcherIJLm1ELm1EEE10__dispatchB8ne180100IOZNS0_6__ctorINS0_8__traitsIJ7Break_t6None_tEEEE19__generic_constructB8ne180100IRKNS0_18__copy_constructorISA_LNS0_6_TraitE1EEEEEvRSB_OT_EUlRSJ_OT0_E_JRNS0_6__baseILSE_1EJS8_S9_EEERKSR_EEEDcSJ_DpT0_, symObjAddr: 0x64BC, symBinAddr: 0x1000082B8, symSize: 0x50 }
  - { offset: 0x15B10, size: 0x8, addend: 0x0, symName: __ZNKSt3__18__farrayIPFvOZNS_16__variant_detail6__ctorINS1_8__traitsIJ7Break_t6None_tEEEE19__generic_constructB8ne180100IRKNS1_18__copy_constructorIS6_LNS1_6_TraitE1EEEEEvRS7_OT_EUlRSF_OT0_E_RNS1_6__baseILSA_1EJS4_S5_EEERKSN_ELm2EEixB8ne180100Em, symObjAddr: 0x650C, symBinAddr: 0x100008308, symSize: 0x20 }
  - { offset: 0x15B44, size: 0x8, addend: 0x0, symName: __ZNKRSt3__116__variant_detail6__baseILNS0_6_TraitE1EJ7Break_t6None_tEE9__as_baseB8ne180100Ev, symObjAddr: 0x652C, symBinAddr: 0x100008328, symSize: 0x14 }
  - { offset: 0x15B72, size: 0x8, addend: 0x0, symName: __ZNSt3__116__variant_detail8__access6__base9__get_altB8ne180100ILm0ERKNS0_6__baseILNS0_6_TraitE1EJ7Break_t6None_tEEEEEODaOT0_, symObjAddr: 0x6574, symBinAddr: 0x100008370, symSize: 0x24 }
  - { offset: 0x15BB3, size: 0x8, addend: 0x0, symName: __ZZNSt3__116__variant_detail6__ctorINS0_8__traitsIJ7Break_t6None_tEEEE19__generic_constructB8ne180100IRKNS0_18__copy_constructorIS5_LNS0_6_TraitE1EEEEEvRS6_OT_ENKUlRSE_OT0_E_clINS0_5__altILm0ES3_EERKSM_EEDaSG_SI_, symObjAddr: 0x6598, symBinAddr: 0x100008394, symSize: 0x30 }
  - { offset: 0x15C0B, size: 0x8, addend: 0x0, symName: __ZNSt3__116__variant_detail6__ctorINS0_8__traitsIJ7Break_t6None_tEEEE15__construct_altB8ne180100ILm0ES3_JRKS3_EEERT0_RNS0_5__altIXT_ESA_EEDpOT1_, symObjAddr: 0x65C8, symBinAddr: 0x1000083C4, symSize: 0x30 }
  - { offset: 0x15C5C, size: 0x8, addend: 0x0, symName: __ZNSt3__116__variant_detail5__altILm0E7Break_tEC1B8ne180100IJRKS2_EEENS_10in_place_tEDpOT_, symObjAddr: 0x65F8, symBinAddr: 0x1000083F4, symSize: 0x34 }
  - { offset: 0x15CAA, size: 0x8, addend: 0x0, symName: __ZNSt3__116__variant_detail5__altILm0E7Break_tEC2B8ne180100IJRKS2_EEENS_10in_place_tEDpOT_, symObjAddr: 0x662C, symBinAddr: 0x100008428, symSize: 0x34 }
  - { offset: 0x15CF8, size: 0x8, addend: 0x0, symName: __ZNSt3__116__variant_detail8__access7__union9__get_altB8ne180100IRKNS0_7__unionILNS0_6_TraitE1ELm0EJ7Break_t6None_tEEEEEODaOT_NS_16in_place_index_tILm0EEE, symObjAddr: 0x6660, symBinAddr: 0x10000845C, symSize: 0x14 }
  - { offset: 0x15D39, size: 0x8, addend: 0x0, symName: __ZNSt3__116__variant_detail8__access6__base9__get_altB8ne180100ILm1ERKNS0_6__baseILNS0_6_TraitE1EJ7Break_t6None_tEEEEEODaOT0_, symObjAddr: 0x66A8, symBinAddr: 0x1000084A4, symSize: 0x24 }
  - { offset: 0x15D70, size: 0x8, addend: 0x0, symName: __ZZNSt3__116__variant_detail6__ctorINS0_8__traitsIJ7Break_t6None_tEEEE19__generic_constructB8ne180100IRKNS0_18__copy_constructorIS5_LNS0_6_TraitE1EEEEEvRS6_OT_ENKUlRSE_OT0_E_clINS0_5__altILm1ES4_EERKSM_EEDaSG_SI_, symObjAddr: 0x66CC, symBinAddr: 0x1000084C8, symSize: 0x30 }
  - { offset: 0x15DC8, size: 0x8, addend: 0x0, symName: __ZNSt3__116__variant_detail6__ctorINS0_8__traitsIJ7Break_t6None_tEEEE15__construct_altB8ne180100ILm1ES4_JRKS4_EEERT0_RNS0_5__altIXT_ESA_EEDpOT1_, symObjAddr: 0x66FC, symBinAddr: 0x1000084F8, symSize: 0x30 }
  - { offset: 0x15E19, size: 0x8, addend: 0x0, symName: __ZNSt3__116__variant_detail5__altILm1E6None_tEC1B8ne180100IJRKS2_EEENS_10in_place_tEDpOT_, symObjAddr: 0x672C, symBinAddr: 0x100008528, symSize: 0x34 }
  - { offset: 0x15E67, size: 0x8, addend: 0x0, symName: __ZNSt3__116__variant_detail5__altILm1E6None_tEC2B8ne180100IJRKS2_EEENS_10in_place_tEDpOT_, symObjAddr: 0x6760, symBinAddr: 0x10000855C, symSize: 0x34 }
  - { offset: 0x15EB4, size: 0x8, addend: 0x0, symName: __ZNSt3__116__variant_detail8__access7__union9__get_altB8ne180100IRKNS0_7__unionILNS0_6_TraitE1ELm0EJ7Break_t6None_tEEELm1EEEODaOT_NS_16in_place_index_tIXT0_EEE, symObjAddr: 0x6794, symBinAddr: 0x100008590, symSize: 0x24 }
  - { offset: 0x15EF6, size: 0x8, addend: 0x0, symName: __ZNSt3__116__variant_detail8__access7__union9__get_altB8ne180100IRKNS0_7__unionILNS0_6_TraitE1ELm1EJ6None_tEEEEEODaOT_NS_16in_place_index_tILm0EEE, symObjAddr: 0x67B8, symBinAddr: 0x1000085B4, symSize: 0x14 }
  - { offset: 0x15F2E, size: 0x8, addend: 0x0, symName: __ZN4FREED2Ev, symObjAddr: 0x67CC, symBinAddr: 0x1000085C8, symSize: 0x38 }
  - { offset: 0x15F59, size: 0x8, addend: 0x0, symName: __ZN11TimeTable_tC2Ev, symObjAddr: 0x6804, symBinAddr: 0x100008600, symSize: 0x1BC }
  - { offset: 0x15F9E, size: 0x8, addend: 0x0, symName: __ZNSt3__16vectorIP10Activity_tNS_9allocatorIS2_EEEC1B8ne180100Ev, symObjAddr: 0x69C0, symBinAddr: 0x1000087BC, symSize: 0x2C }
  - { offset: 0x15FC6, size: 0x8, addend: 0x0, symName: __ZNSt3__16vectorIP10Activity_tNS_9allocatorIS2_EEE9push_backB8ne180100EOS2_, symObjAddr: 0x69EC, symBinAddr: 0x1000087E8, symSize: 0x90 }
  - { offset: 0x16010, size: 0x8, addend: 0x0, symName: __ZNSt3__17variantIJ7Break_t6None_tEEC1B8ne180100IS2_Li0ELi0ELi0ES2_Lm1ELi0EEEOT_, symObjAddr: 0x6A7C, symBinAddr: 0x100008878, symSize: 0x34 }
  - { offset: 0x1607C, size: 0x8, addend: 0x0, symName: __ZNSt3__16vectorIP10Activity_tNS_9allocatorIS2_EEED1B8ne180100Ev, symObjAddr: 0x6AB0, symBinAddr: 0x1000088AC, symSize: 0x2C }
  - { offset: 0x160A5, size: 0x8, addend: 0x0, symName: __ZNSt3__16vectorIP10Activity_tNS_9allocatorIS2_EEEC2B8ne180100Ev, symObjAddr: 0x6ADC, symBinAddr: 0x1000088D8, symSize: 0x4C }
  - { offset: 0x160D3, size: 0x8, addend: 0x0, symName: __ZNSt3__117__compressed_pairIPP10Activity_tNS_9allocatorIS2_EEEC1B8ne180100IDnNS_18__default_init_tagEEEOT_OT0_, symObjAddr: 0x6B28, symBinAddr: 0x100008924, symSize: 0x3C }
  - { offset: 0x1612A, size: 0x8, addend: 0x0, symName: __ZNSt3__117__compressed_pairIPP10Activity_tNS_9allocatorIS2_EEEC2B8ne180100IDnNS_18__default_init_tagEEEOT_OT0_, symObjAddr: 0x6B64, symBinAddr: 0x100008960, symSize: 0x40 }
  - { offset: 0x16181, size: 0x8, addend: 0x0, symName: __ZNSt3__122__compressed_pair_elemIPP10Activity_tLi0ELb0EEC2B8ne180100IDnvEEOT_, symObjAddr: 0x6BA4, symBinAddr: 0x1000089A0, symSize: 0x1C }
  - { offset: 0x161C2, size: 0x8, addend: 0x0, symName: __ZNSt3__122__compressed_pair_elemINS_9allocatorIP10Activity_tEELi1ELb1EEC2B8ne180100ENS_18__default_init_tagE, symObjAddr: 0x6BC0, symBinAddr: 0x1000089BC, symSize: 0x2C }
  - { offset: 0x161F6, size: 0x8, addend: 0x0, symName: __ZNSt3__19allocatorIP10Activity_tEC2B8ne180100Ev, symObjAddr: 0x6BEC, symBinAddr: 0x1000089E8, symSize: 0x2C }
  - { offset: 0x1621F, size: 0x8, addend: 0x0, symName: __ZNSt3__116__non_trivial_ifILb1ENS_9allocatorIP10Activity_tEEEC2B8ne180100Ev, symObjAddr: 0x6C18, symBinAddr: 0x100008A14, symSize: 0x14 }
  - { offset: 0x16248, size: 0x8, addend: 0x0, symName: __ZNSt3__16vectorIP10Activity_tNS_9allocatorIS2_EEE9__end_capB8ne180100Ev, symObjAddr: 0x6C2C, symBinAddr: 0x100008A28, symSize: 0x28 }
  - { offset: 0x16272, size: 0x8, addend: 0x0, symName: __ZNSt3__16vectorIP10Activity_tNS_9allocatorIS2_EEE22__construct_one_at_endB8ne180100IJS2_EEEvDpOT_, symObjAddr: 0x6C54, symBinAddr: 0x100008A50, symSize: 0x90 }
  - { offset: 0x162BF, size: 0x8, addend: 0x0, symName: __ZNSt3__16vectorIP10Activity_tNS_9allocatorIS2_EEE21__push_back_slow_pathIS2_EEPS2_OT_, symObjAddr: 0x6CE4, symBinAddr: 0x100008AE0, symSize: 0xE8 }
  - { offset: 0x1631C, size: 0x8, addend: 0x0, symName: __ZNSt3__117__compressed_pairIPP10Activity_tNS_9allocatorIS2_EEE5firstB8ne180100Ev, symObjAddr: 0x6DCC, symBinAddr: 0x100008BC8, symSize: 0x24 }
  - { offset: 0x16341, size: 0x8, addend: 0x0, symName: __ZNSt3__122__compressed_pair_elemIPP10Activity_tLi0ELb0EE5__getB8ne180100Ev, symObjAddr: 0x6DF0, symBinAddr: 0x100008BEC, symSize: 0x14 }
  - { offset: 0x1637F, size: 0x8, addend: 0x0, symName: __ZNSt3__16vectorIP10Activity_tNS_9allocatorIS2_EEE21_ConstructTransactionC1B8ne180100ERS5_m, symObjAddr: 0x6E04, symBinAddr: 0x100008C00, symSize: 0x3C }
  - { offset: 0x163C5, size: 0x8, addend: 0x0, symName: __ZNSt3__116allocator_traitsINS_9allocatorIP10Activity_tEEE9constructB8ne180100IS3_JS3_EvEEvRS4_PT_DpOT0_, symObjAddr: 0x6E40, symBinAddr: 0x100008C3C, symSize: 0x34 }
  - { offset: 0x1641C, size: 0x8, addend: 0x0, symName: __ZNSt3__16vectorIP10Activity_tNS_9allocatorIS2_EEE7__allocB8ne180100Ev, symObjAddr: 0x6E74, symBinAddr: 0x100008C70, symSize: 0x28 }
  - { offset: 0x16441, size: 0x8, addend: 0x0, symName: __ZNSt3__16vectorIP10Activity_tNS_9allocatorIS2_EEE21_ConstructTransactionD1B8ne180100Ev, symObjAddr: 0x6EB0, symBinAddr: 0x100008CAC, symSize: 0x2C }
  - { offset: 0x1646A, size: 0x8, addend: 0x0, symName: __ZNSt3__16vectorIP10Activity_tNS_9allocatorIS2_EEE21_ConstructTransactionC2B8ne180100ERS5_m, symObjAddr: 0x6EDC, symBinAddr: 0x100008CD8, symSize: 0x44 }
  - { offset: 0x164B1, size: 0x8, addend: 0x0, symName: __ZNSt3__19allocatorIP10Activity_tE9constructB8ne180100IS2_JS2_EEEvPT_DpOT0_, symObjAddr: 0x6F20, symBinAddr: 0x100008D1C, symSize: 0x28 }
  - { offset: 0x16506, size: 0x8, addend: 0x0, symName: __ZNSt3__117__compressed_pairIPP10Activity_tNS_9allocatorIS2_EEE6secondB8ne180100Ev, symObjAddr: 0x6F48, symBinAddr: 0x100008D44, symSize: 0x24 }
  - { offset: 0x1652B, size: 0x8, addend: 0x0, symName: __ZNSt3__122__compressed_pair_elemINS_9allocatorIP10Activity_tEELi1ELb1EE5__getB8ne180100Ev, symObjAddr: 0x6F6C, symBinAddr: 0x100008D68, symSize: 0x14 }
  - { offset: 0x16550, size: 0x8, addend: 0x0, symName: __ZNSt3__16vectorIP10Activity_tNS_9allocatorIS2_EEE21_ConstructTransactionD2B8ne180100Ev, symObjAddr: 0x6F80, symBinAddr: 0x100008D7C, symSize: 0x20 }
  - { offset: 0x16578, size: 0x8, addend: 0x0, symName: __ZNKSt3__16vectorIP10Activity_tNS_9allocatorIS2_EEE11__recommendB8ne180100Em, symObjAddr: 0x6FA0, symBinAddr: 0x100008D9C, symSize: 0xB4 }
  - { offset: 0x165CC, size: 0x8, addend: 0x0, symName: __ZNKSt3__16vectorIP10Activity_tNS_9allocatorIS2_EEE4sizeB8ne180100Ev, symObjAddr: 0x7054, symBinAddr: 0x100008E50, symSize: 0x28 }
  - { offset: 0x165F1, size: 0x8, addend: 0x0, symName: __ZNSt3__114__split_bufferIP10Activity_tRNS_9allocatorIS2_EEEC1EmmS5_, symObjAddr: 0x707C, symBinAddr: 0x100008E78, symSize: 0x44 }
  - { offset: 0x16646, size: 0x8, addend: 0x0, symName: __ZNSt3__114__split_bufferIP10Activity_tRNS_9allocatorIS2_EEED1Ev, symObjAddr: 0x71D0, symBinAddr: 0x100008FCC, symSize: 0x2C }
  - { offset: 0x16670, size: 0x8, addend: 0x0, symName: __ZNKSt3__16vectorIP10Activity_tNS_9allocatorIS2_EEE8max_sizeEv, symObjAddr: 0x71FC, symBinAddr: 0x100008FF8, symSize: 0x60 }
  - { offset: 0x16697, size: 0x8, addend: 0x0, symName: __ZNKSt3__16vectorIP10Activity_tNS_9allocatorIS2_EEE20__throw_length_errorB8ne180100Ev, symObjAddr: 0x725C, symBinAddr: 0x100009058, symSize: 0x1C }
  - { offset: 0x166BC, size: 0x8, addend: 0x0, symName: __ZNKSt3__16vectorIP10Activity_tNS_9allocatorIS2_EEE8capacityB8ne180100Ev, symObjAddr: 0x7278, symBinAddr: 0x100009074, symSize: 0x40 }
  - { offset: 0x166EA, size: 0x8, addend: 0x0, symName: __ZNSt3__116allocator_traitsINS_9allocatorIP10Activity_tEEE8max_sizeB8ne180100IS4_vEEmRKS4_, symObjAddr: 0x72E4, symBinAddr: 0x1000090E0, symSize: 0x24 }
  - { offset: 0x16718, size: 0x8, addend: 0x0, symName: __ZNKSt3__16vectorIP10Activity_tNS_9allocatorIS2_EEE7__allocB8ne180100Ev, symObjAddr: 0x7308, symBinAddr: 0x100009104, symSize: 0x28 }
  - { offset: 0x1673D, size: 0x8, addend: 0x0, symName: __ZNKSt3__19allocatorIP10Activity_tE8max_sizeB8ne180100Ev, symObjAddr: 0x7330, symBinAddr: 0x10000912C, symSize: 0x14 }
  - { offset: 0x16762, size: 0x8, addend: 0x0, symName: __ZNKSt3__117__compressed_pairIPP10Activity_tNS_9allocatorIS2_EEE6secondB8ne180100Ev, symObjAddr: 0x7344, symBinAddr: 0x100009140, symSize: 0x24 }
  - { offset: 0x16787, size: 0x8, addend: 0x0, symName: __ZNKSt3__122__compressed_pair_elemINS_9allocatorIP10Activity_tEELi1ELb1EE5__getB8ne180100Ev, symObjAddr: 0x7368, symBinAddr: 0x100009164, symSize: 0x14 }
  - { offset: 0x167AC, size: 0x8, addend: 0x0, symName: __ZNKSt3__16vectorIP10Activity_tNS_9allocatorIS2_EEE9__end_capB8ne180100Ev, symObjAddr: 0x737C, symBinAddr: 0x100009178, symSize: 0x28 }
  - { offset: 0x167D1, size: 0x8, addend: 0x0, symName: __ZNKSt3__117__compressed_pairIPP10Activity_tNS_9allocatorIS2_EEE5firstB8ne180100Ev, symObjAddr: 0x73A4, symBinAddr: 0x1000091A0, symSize: 0x24 }
  - { offset: 0x167F6, size: 0x8, addend: 0x0, symName: __ZNKSt3__122__compressed_pair_elemIPP10Activity_tLi0ELb0EE5__getB8ne180100Ev, symObjAddr: 0x73C8, symBinAddr: 0x1000091C4, symSize: 0x14 }
  - { offset: 0x1681B, size: 0x8, addend: 0x0, symName: __ZNSt3__114__split_bufferIP10Activity_tRNS_9allocatorIS2_EEEC2EmmS5_, symObjAddr: 0x7430, symBinAddr: 0x10000922C, symSize: 0xD4 }
  - { offset: 0x1688D, size: 0x8, addend: 0x0, symName: __ZNSt3__117__compressed_pairIPP10Activity_tRNS_9allocatorIS2_EEEC1B8ne180100IDnS6_EEOT_OT0_, symObjAddr: 0x7504, symBinAddr: 0x100009300, symSize: 0x3C }
  - { offset: 0x168E4, size: 0x8, addend: 0x0, symName: __ZNSt3__114__split_bufferIP10Activity_tRNS_9allocatorIS2_EEE7__allocB8ne180100Ev, symObjAddr: 0x7580, symBinAddr: 0x10000937C, symSize: 0x28 }
  - { offset: 0x16909, size: 0x8, addend: 0x0, symName: __ZNSt3__114__split_bufferIP10Activity_tRNS_9allocatorIS2_EEE9__end_capB8ne180100Ev, symObjAddr: 0x75A8, symBinAddr: 0x1000093A4, symSize: 0x28 }
  - { offset: 0x1692E, size: 0x8, addend: 0x0, symName: __ZNSt3__117__compressed_pairIPP10Activity_tRNS_9allocatorIS2_EEEC2B8ne180100IDnS6_EEOT_OT0_, symObjAddr: 0x75D0, symBinAddr: 0x1000093CC, symSize: 0x48 }
  - { offset: 0x16985, size: 0x8, addend: 0x0, symName: __ZNSt3__122__compressed_pair_elemIRNS_9allocatorIP10Activity_tEELi1ELb0EEC2B8ne180100IS5_vEEOT_, symObjAddr: 0x7618, symBinAddr: 0x100009414, symSize: 0x20 }
  - { offset: 0x169C6, size: 0x8, addend: 0x0, symName: __ZNSt3__19allocatorIP10Activity_tE8allocateB8ne180100Em, symObjAddr: 0x7638, symBinAddr: 0x100009434, symSize: 0x58 }
  - { offset: 0x169F9, size: 0x8, addend: 0x0, symName: __ZNSt3__117__compressed_pairIPP10Activity_tRNS_9allocatorIS2_EEE6secondB8ne180100Ev, symObjAddr: 0x7690, symBinAddr: 0x10000948C, symSize: 0x28 }
  - { offset: 0x16A1E, size: 0x8, addend: 0x0, symName: __ZNSt3__122__compressed_pair_elemIRNS_9allocatorIP10Activity_tEELi1ELb0EE5__getB8ne180100Ev, symObjAddr: 0x76B8, symBinAddr: 0x1000094B4, symSize: 0x18 }
  - { offset: 0x16A43, size: 0x8, addend: 0x0, symName: __ZNSt3__117__compressed_pairIPP10Activity_tRNS_9allocatorIS2_EEE5firstB8ne180100Ev, symObjAddr: 0x76D0, symBinAddr: 0x1000094CC, symSize: 0x24 }
  - { offset: 0x16A68, size: 0x8, addend: 0x0, symName: __ZNKSt3__16vectorIP10Activity_tNS_9allocatorIS2_EEE17__annotate_deleteB8ne180100Ev, symObjAddr: 0x76F4, symBinAddr: 0x1000094F0, symSize: 0x10 }
  - { offset: 0x16A8D, size: 0x8, addend: 0x0, symName: __ZNSt3__116reverse_iteratorIPP10Activity_tEC1B8ne180100ES3_, symObjAddr: 0x777C, symBinAddr: 0x100009578, symSize: 0x34 }
  - { offset: 0x16AC4, size: 0x8, addend: 0x0, symName: __ZNKSt3__116reverse_iteratorIPP10Activity_tE4baseB8ne180100Ev, symObjAddr: 0x77B0, symBinAddr: 0x1000095AC, symSize: 0x18 }
  - { offset: 0x16AE9, size: 0x8, addend: 0x0, symName: __ZNKSt3__16vectorIP10Activity_tNS_9allocatorIS2_EEE14__annotate_newB8ne180100Em, symObjAddr: 0x7804, symBinAddr: 0x100009600, symSize: 0x14 }
  - { offset: 0x16B40, size: 0x8, addend: 0x0, symName: __ZNKSt3__111__move_loopINS_17_ClassicAlgPolicyEEclB8ne180100INS_16reverse_iteratorIPP10Activity_tEES8_S8_EENS_4pairIT_T1_EESA_T0_SB_, symObjAddr: 0x7B08, symBinAddr: 0x100009904, symSize: 0xA0 }
  - { offset: 0x16BAE, size: 0x8, addend: 0x0, symName: __ZNSt3__18_IterOpsINS_17_ClassicAlgPolicyEE11__iter_moveB8ne180100IRNS_16reverse_iteratorIPP10Activity_tEELi0EEEDTclsr3stdE4movedeclsr3stdE7declvalIRT_EEEEOSA_, symObjAddr: 0x7D3C, symBinAddr: 0x100009B38, symSize: 0x28 }
  - { offset: 0x16BE0, size: 0x8, addend: 0x0, symName: __ZNKSt3__116reverse_iteratorIPP10Activity_tEdeB8ne180100Ev, symObjAddr: 0x7D64, symBinAddr: 0x100009B60, symSize: 0x28 }
  - { offset: 0x16C13, size: 0x8, addend: 0x0, symName: __ZNSt3__116reverse_iteratorIPP10Activity_tEppB8ne180100Ev, symObjAddr: 0x7D8C, symBinAddr: 0x100009B88, symSize: 0x20 }
  - { offset: 0x16C38, size: 0x8, addend: 0x0, symName: __ZNSt3__18_IterOpsINS_17_ClassicAlgPolicyEE25__validate_iter_referenceB8ne180100IRNS_16reverse_iteratorIPP10Activity_tEEEEvv, symObjAddr: 0x7DAC, symBinAddr: 0x100009BA8, symSize: 0x4 }
  - { offset: 0x16C56, size: 0x8, addend: 0x0, symName: __ZNSt3__118__unwrap_iter_implINS_16reverse_iteratorIPP10Activity_tEELb0EE8__unwrapB8ne180100ES5_, symObjAddr: 0x7DB0, symBinAddr: 0x100009BAC, symSize: 0x24 }
  - { offset: 0x16C7E, size: 0x8, addend: 0x0, symName: __ZNSt3__14pairINS_16reverse_iteratorIPP10Activity_tEES5_EC1B8ne180100IS5_S5_Li0EEEOT_OT0_, symObjAddr: 0x7DD4, symBinAddr: 0x100009BD0, symSize: 0x3C }
  - { offset: 0x16CDB, size: 0x8, addend: 0x0, symName: __ZNSt3__14pairINS_16reverse_iteratorIPP10Activity_tEES5_EC2B8ne180100IS5_S5_Li0EEEOT_OT0_, symObjAddr: 0x7E10, symBinAddr: 0x100009C0C, symSize: 0x34 }
  - { offset: 0x16D38, size: 0x8, addend: 0x0, symName: __ZNSt3__118__unwrap_iter_implINS_16reverse_iteratorIPP10Activity_tEELb0EE8__rewrapB8ne180100ES5_S5_, symObjAddr: 0x7E44, symBinAddr: 0x100009C40, symSize: 0x2C }
  - { offset: 0x16D66, size: 0x8, addend: 0x0, symName: __ZNSt3__116reverse_iteratorIPP10Activity_tEC2B8ne180100ES3_, symObjAddr: 0x7E70, symBinAddr: 0x100009C6C, symSize: 0x28 }
  - { offset: 0x16D9D, size: 0x8, addend: 0x0, symName: __ZNSt3__114__split_bufferIP10Activity_tRNS_9allocatorIS2_EEED2Ev, symObjAddr: 0x7E98, symBinAddr: 0x100009C94, symSize: 0x8C }
  - { offset: 0x16DC8, size: 0x8, addend: 0x0, symName: __ZNSt3__114__split_bufferIP10Activity_tRNS_9allocatorIS2_EEE5clearB8ne180100Ev, symObjAddr: 0x7F24, symBinAddr: 0x100009D20, symSize: 0x28 }
  - { offset: 0x16DEC, size: 0x8, addend: 0x0, symName: __ZNSt3__116allocator_traitsINS_9allocatorIP10Activity_tEEE10deallocateB8ne180100ERS4_PS3_m, symObjAddr: 0x7F4C, symBinAddr: 0x100009D48, symSize: 0x34 }
  - { offset: 0x16E2E, size: 0x8, addend: 0x0, symName: __ZNKSt3__114__split_bufferIP10Activity_tRNS_9allocatorIS2_EEE8capacityB8ne180100Ev, symObjAddr: 0x7F80, symBinAddr: 0x100009D7C, symSize: 0x40 }
  - { offset: 0x16E53, size: 0x8, addend: 0x0, symName: __ZNSt3__114__split_bufferIP10Activity_tRNS_9allocatorIS2_EEE17__destruct_at_endB8ne180100EPS2_, symObjAddr: 0x7FC0, symBinAddr: 0x100009DBC, symSize: 0x2C }
  - { offset: 0x16E85, size: 0x8, addend: 0x0, symName: __ZNSt3__114__split_bufferIP10Activity_tRNS_9allocatorIS2_EEE17__destruct_at_endB8ne180100EPS2_NS_17integral_constantIbLb0EEE, symObjAddr: 0x7FEC, symBinAddr: 0x100009DE8, symSize: 0x80 }
  - { offset: 0x16EC4, size: 0x8, addend: 0x0, symName: __ZNSt3__116allocator_traitsINS_9allocatorIP10Activity_tEEE7destroyB8ne180100IS3_vEEvRS4_PT_, symObjAddr: 0x806C, symBinAddr: 0x100009E68, symSize: 0x2C }
  - { offset: 0x16F01, size: 0x8, addend: 0x0, symName: __ZNSt3__19allocatorIP10Activity_tE7destroyB8ne180100EPS2_, symObjAddr: 0x8098, symBinAddr: 0x100009E94, symSize: 0x14 }
  - { offset: 0x16F34, size: 0x8, addend: 0x0, symName: __ZNSt3__19allocatorIP10Activity_tE10deallocateB8ne180100EPS2_m, symObjAddr: 0x80AC, symBinAddr: 0x100009EA8, symSize: 0x40 }
  - { offset: 0x16F75, size: 0x8, addend: 0x0, symName: __ZNKSt3__114__split_bufferIP10Activity_tRNS_9allocatorIS2_EEE9__end_capB8ne180100Ev, symObjAddr: 0x80EC, symBinAddr: 0x100009EE8, symSize: 0x28 }
  - { offset: 0x16F9A, size: 0x8, addend: 0x0, symName: __ZNKSt3__117__compressed_pairIPP10Activity_tRNS_9allocatorIS2_EEE5firstB8ne180100Ev, symObjAddr: 0x8114, symBinAddr: 0x100009F10, symSize: 0x24 }
  - { offset: 0x16FBF, size: 0x8, addend: 0x0, symName: __ZNSt3__17variantIJ7Break_t6None_tEEC2B8ne180100IS2_Li0ELi0ELi0ES2_Lm1ELi0EEEOT_, symObjAddr: 0x8138, symBinAddr: 0x100009F34, symSize: 0x34 }
  - { offset: 0x1702B, size: 0x8, addend: 0x0, symName: __ZNSt3__116__variant_detail6__implIJ7Break_t6None_tEECI1NS0_6__baseILNS0_6_TraitE1EJS2_S3_EEEILm1EJS3_EEENS_16in_place_index_tIXT_EEEDpOT0_, symObjAddr: 0x816C, symBinAddr: 0x100009F68, symSize: 0x34 }
  - { offset: 0x17069, size: 0x8, addend: 0x0, symName: __ZNSt3__116__variant_detail6__implIJ7Break_t6None_tEECI2NS0_6__baseILNS0_6_TraitE1EJS2_S3_EEEILm1EJS3_EEENS_16in_place_index_tIXT_EEEDpOT0_, symObjAddr: 0x81A0, symBinAddr: 0x100009F9C, symSize: 0x34 }
  - { offset: 0x170A7, size: 0x8, addend: 0x0, symName: __ZNSt3__116__variant_detail17__copy_assignmentINS0_8__traitsIJ7Break_t6None_tEEELNS0_6_TraitE1EECI2NS0_6__baseILS6_1EJS3_S4_EEEILm1EJS4_EEENS_16in_place_index_tIXT_EEEDpOT0_, symObjAddr: 0x81D4, symBinAddr: 0x100009FD0, symSize: 0x34 }
  - { offset: 0x170E5, size: 0x8, addend: 0x0, symName: __ZNSt3__116__variant_detail17__move_assignmentINS0_8__traitsIJ7Break_t6None_tEEELNS0_6_TraitE1EECI2NS0_6__baseILS6_1EJS3_S4_EEEILm1EJS4_EEENS_16in_place_index_tIXT_EEEDpOT0_, symObjAddr: 0x8208, symBinAddr: 0x10000A004, symSize: 0x34 }
  - { offset: 0x17123, size: 0x8, addend: 0x0, symName: __ZNSt3__116__variant_detail12__assignmentINS0_8__traitsIJ7Break_t6None_tEEEECI2NS0_6__baseILNS0_6_TraitE1EJS3_S4_EEEILm1EJS4_EEENS_16in_place_index_tIXT_EEEDpOT0_, symObjAddr: 0x823C, symBinAddr: 0x10000A038, symSize: 0x34 }
  - { offset: 0x17161, size: 0x8, addend: 0x0, symName: __ZNSt3__116__variant_detail18__copy_constructorINS0_8__traitsIJ7Break_t6None_tEEELNS0_6_TraitE1EECI2NS0_6__baseILS6_1EJS3_S4_EEEILm1EJS4_EEENS_16in_place_index_tIXT_EEEDpOT0_, symObjAddr: 0x8270, symBinAddr: 0x10000A06C, symSize: 0x34 }
  - { offset: 0x1719F, size: 0x8, addend: 0x0, symName: __ZNSt3__116__variant_detail18__move_constructorINS0_8__traitsIJ7Break_t6None_tEEELNS0_6_TraitE1EECI2NS0_6__baseILS6_1EJS3_S4_EEEILm1EJS4_EEENS_16in_place_index_tIXT_EEEDpOT0_, symObjAddr: 0x82A4, symBinAddr: 0x10000A0A0, symSize: 0x34 }
  - { offset: 0x171DD, size: 0x8, addend: 0x0, symName: __ZNSt3__116__variant_detail6__ctorINS0_8__traitsIJ7Break_t6None_tEEEECI2NS0_6__baseILNS0_6_TraitE1EJS3_S4_EEEILm1EJS4_EEENS_16in_place_index_tIXT_EEEDpOT0_, symObjAddr: 0x82D8, symBinAddr: 0x10000A0D4, symSize: 0x34 }
  - { offset: 0x1721B, size: 0x8, addend: 0x0, symName: __ZNSt3__116__variant_detail6__dtorINS0_8__traitsIJ7Break_t6None_tEEELNS0_6_TraitE1EECI2NS0_6__baseILS6_1EJS3_S4_EEEILm1EJS4_EEENS_16in_place_index_tIXT_EEEDpOT0_, symObjAddr: 0x830C, symBinAddr: 0x10000A108, symSize: 0x34 }
  - { offset: 0x17259, size: 0x8, addend: 0x0, symName: __ZNSt3__116__variant_detail6__baseILNS0_6_TraitE1EJ7Break_t6None_tEEC2B8ne180100ILm1EJS4_EEENS_16in_place_index_tIXT_EEEDpOT0_, symObjAddr: 0x8340, symBinAddr: 0x10000A13C, symSize: 0x3C }
  - { offset: 0x172B1, size: 0x8, addend: 0x0, symName: __ZNSt3__116__variant_detail7__unionILNS0_6_TraitE1ELm0EJ7Break_t6None_tEEC1B8ne180100ILm1EJS4_EEENS_16in_place_index_tIXT_EEEDpOT0_, symObjAddr: 0x837C, symBinAddr: 0x10000A178, symSize: 0x34 }
  - { offset: 0x17309, size: 0x8, addend: 0x0, symName: __ZNSt3__116__variant_detail7__unionILNS0_6_TraitE1ELm0EJ7Break_t6None_tEEC2B8ne180100ILm1EJS4_EEENS_16in_place_index_tIXT_EEEDpOT0_, symObjAddr: 0x83B0, symBinAddr: 0x10000A1AC, symSize: 0x34 }
  - { offset: 0x17361, size: 0x8, addend: 0x0, symName: __ZNSt3__116__variant_detail7__unionILNS0_6_TraitE1ELm1EJ6None_tEEC1B8ne180100IJS3_EEENS_16in_place_index_tILm0EEEDpOT_, symObjAddr: 0x83E4, symBinAddr: 0x10000A1E0, symSize: 0x34 }
  - { offset: 0x173AF, size: 0x8, addend: 0x0, symName: __ZNSt3__116__variant_detail7__unionILNS0_6_TraitE1ELm1EJ6None_tEEC2B8ne180100IJS3_EEENS_16in_place_index_tILm0EEEDpOT_, symObjAddr: 0x8418, symBinAddr: 0x10000A214, symSize: 0x34 }
  - { offset: 0x173FD, size: 0x8, addend: 0x0, symName: __ZNSt3__116__variant_detail5__altILm1E6None_tEC1B8ne180100IJS2_EEENS_10in_place_tEDpOT_, symObjAddr: 0x844C, symBinAddr: 0x10000A248, symSize: 0x34 }
  - { offset: 0x1744B, size: 0x8, addend: 0x0, symName: __ZNSt3__116__variant_detail5__altILm1E6None_tEC2B8ne180100IJS2_EEENS_10in_place_tEDpOT_, symObjAddr: 0x8480, symBinAddr: 0x10000A27C, symSize: 0x34 }
  - { offset: 0x17499, size: 0x8, addend: 0x0, symName: __ZN6None_tC1EOS_, symObjAddr: 0x84B4, symBinAddr: 0x10000A2B0, symSize: 0x34 }
  - { offset: 0x174CD, size: 0x8, addend: 0x0, symName: __ZN6None_tC2EOS_, symObjAddr: 0x84E8, symBinAddr: 0x10000A2E4, symSize: 0x34 }
  - { offset: 0x17501, size: 0x8, addend: 0x0, symName: __ZN6StringC1EOS_, symObjAddr: 0x851C, symBinAddr: 0x10000A318, symSize: 0x34 }
  - { offset: 0x17538, size: 0x8, addend: 0x0, symName: __ZN6StringC2EOS_, symObjAddr: 0x8550, symBinAddr: 0x10000A34C, symSize: 0x38 }
  - { offset: 0x1756F, size: 0x8, addend: 0x0, symName: __ZNSt3__16vectorIP10Activity_tNS_9allocatorIS2_EEED2B8ne180100Ev, symObjAddr: 0x8588, symBinAddr: 0x10000A384, symSize: 0x44 }
  - { offset: 0x17598, size: 0x8, addend: 0x0, symName: __ZNSt3__16vectorIP10Activity_tNS_9allocatorIS2_EEE16__destroy_vectorC1B8ne180100ERS5_, symObjAddr: 0x85CC, symBinAddr: 0x10000A3C8, symSize: 0x34 }
  - { offset: 0x175D0, size: 0x8, addend: 0x0, symName: __ZNSt3__16vectorIP10Activity_tNS_9allocatorIS2_EEE16__destroy_vectorclB8ne180100Ev, symObjAddr: 0x8600, symBinAddr: 0x10000A3FC, symSize: 0x90 }
  - { offset: 0x175F5, size: 0x8, addend: 0x0, symName: __ZNSt3__16vectorIP10Activity_tNS_9allocatorIS2_EEE16__destroy_vectorC2B8ne180100ERS5_, symObjAddr: 0x8690, symBinAddr: 0x10000A48C, symSize: 0x20 }
  - { offset: 0x1762D, size: 0x8, addend: 0x0, symName: __ZNSt3__16vectorIP10Activity_tNS_9allocatorIS2_EEE7__clearB8ne180100Ev, symObjAddr: 0x86B0, symBinAddr: 0x10000A4AC, symSize: 0x28 }
  - { offset: 0x17652, size: 0x8, addend: 0x0, symName: __ZNSt3__16vectorIP10Activity_tNS_9allocatorIS2_EEE22__base_destruct_at_endB8ne180100EPS2_, symObjAddr: 0x86D8, symBinAddr: 0x10000A4D4, symSize: 0x8C }
  - { offset: 0x17695, size: 0x8, addend: 0x0, symName: __ZN10Activity_t11getScheduleEv, symObjAddr: 0x8764, symBinAddr: 0x10000A560, symSize: 0x20 }
  - { offset: 0x176BA, size: 0x8, addend: 0x0, symName: __ZNSt3__16vectorIP10Activity_tNS_9allocatorIS2_EEEixB8ne180100Em, symObjAddr: 0x87CC, symBinAddr: 0x10000A5C8, symSize: 0x24 }
  - { offset: 0x176F0, size: 0x8, addend: 0x0, symName: __ZN10Activity_t15getActivityInfoEv, symObjAddr: 0x87F0, symBinAddr: 0x10000A5EC, symSize: 0x38 }
  - { offset: 0x17715, size: 0x8, addend: 0x0, symName: __ZNSt3__17variantIJ4WORK5SLEEP4FREEEED1B8ne180100Ev, symObjAddr: 0x889C, symBinAddr: 0x10000A698, symSize: 0x2C }
  - { offset: 0x17743, size: 0x8, addend: 0x0, symName: __ZNSt3__110__get_pairILm0EE3getB8ne180100IhhEEOT_ONS_4pairIS3_T0_EE, symObjAddr: 0x88C8, symBinAddr: 0x10000A6C4, symSize: 0x14 }
  - { offset: 0x17779, size: 0x8, addend: 0x0, symName: __ZNSt3__110__get_pairILm1EE3getB8ne180100IhhEEOT0_ONS_4pairIT_S3_EE, symObjAddr: 0x88DC, symBinAddr: 0x10000A6D8, symSize: 0x18 }
  - { offset: 0x177AF, size: 0x8, addend: 0x0, symName: __ZNSt3__17variantIJ4WORK5SLEEP4FREEEEC1B8ne180100ERKS4_, symObjAddr: 0x88F4, symBinAddr: 0x10000A6F0, symSize: 0x34 }
  - { offset: 0x177E3, size: 0x8, addend: 0x0, symName: __ZNSt3__17variantIJ4WORK5SLEEP4FREEEEC2B8ne180100ERKS4_, symObjAddr: 0x8928, symBinAddr: 0x10000A724, symSize: 0x3C }
  - { offset: 0x17817, size: 0x8, addend: 0x0, symName: __ZNSt3__116__variant_detail6__implIJ4WORK5SLEEP4FREEEEC1B8ne180100ERKS5_, symObjAddr: 0x8964, symBinAddr: 0x10000A760, symSize: 0x34 }
  - { offset: 0x1784B, size: 0x8, addend: 0x0, symName: __ZNSt3__116__variant_detail6__implIJ4WORK5SLEEP4FREEEEC2B8ne180100ERKS5_, symObjAddr: 0x8998, symBinAddr: 0x10000A794, symSize: 0x34 }
  - { offset: 0x1787F, size: 0x8, addend: 0x0, symName: __ZNSt3__116__variant_detail17__copy_assignmentINS0_8__traitsIJ4WORK5SLEEP4FREEEEELNS0_6_TraitE1EEC2ERKS8_, symObjAddr: 0x89CC, symBinAddr: 0x10000A7C8, symSize: 0x34 }
  - { offset: 0x178B3, size: 0x8, addend: 0x0, symName: __ZNSt3__116__variant_detail17__move_assignmentINS0_8__traitsIJ4WORK5SLEEP4FREEEEELNS0_6_TraitE1EEC2ERKS8_, symObjAddr: 0x8A00, symBinAddr: 0x10000A7FC, symSize: 0x34 }
  - { offset: 0x178F6, size: 0x8, addend: 0x0, symName: __ZNSt3__116__variant_detail12__assignmentINS0_8__traitsIJ4WORK5SLEEP4FREEEEEEC2ERKS7_, symObjAddr: 0x8A34, symBinAddr: 0x10000A830, symSize: 0x34 }
  - { offset: 0x1792B, size: 0x8, addend: 0x0, symName: __ZNSt3__116__variant_detail18__copy_constructorINS0_8__traitsIJ4WORK5SLEEP4FREEEEELNS0_6_TraitE1EEC2ERKS8_, symObjAddr: 0x8A68, symBinAddr: 0x10000A864, symSize: 0x64 }
  - { offset: 0x17963, size: 0x8, addend: 0x0, symName: __ZNSt3__116__variant_detail18__copy_constructorINS0_8__traitsIJ4WORK5SLEEP4FREEEEELNS0_6_TraitE1EECI2NS0_6__baseILS7_1EJS3_S4_S5_EEEENS0_13__valueless_tE, symObjAddr: 0x8ACC, symBinAddr: 0x10000A8C8, symSize: 0x2C }
  - { offset: 0x1799C, size: 0x8, addend: 0x0, symName: __ZNSt3__116__variant_detail6__ctorINS0_8__traitsIJ4WORK5SLEEP4FREEEEEE19__generic_constructB8ne180100IRKNS0_18__copy_constructorIS6_LNS0_6_TraitE1EEEEEvRS7_OT_, symObjAddr: 0x8AF8, symBinAddr: 0x10000A8F4, symSize: 0x68 }
  - { offset: 0x17A7E, size: 0x8, addend: 0x0, symName: __ZNSt3__116__variant_detail18__copy_constructorINS0_8__traitsIJ4WORK5SLEEP4FREEEEELNS0_6_TraitE1EED2Ev, symObjAddr: 0x8B60, symBinAddr: 0x10000A95C, symSize: 0x2C }
  - { offset: 0x17AA7, size: 0x8, addend: 0x0, symName: __ZNSt3__116__variant_detail18__move_constructorINS0_8__traitsIJ4WORK5SLEEP4FREEEEELNS0_6_TraitE1EECI2NS0_6__baseILS7_1EJS3_S4_S5_EEEENS0_13__valueless_tE, symObjAddr: 0x8B8C, symBinAddr: 0x10000A988, symSize: 0x2C }
  - { offset: 0x17AE1, size: 0x8, addend: 0x0, symName: __ZNSt3__116__variant_detail6__ctorINS0_8__traitsIJ4WORK5SLEEP4FREEEEEECI2NS0_6__baseILNS0_6_TraitE1EJS3_S4_S5_EEEENS0_13__valueless_tE, symObjAddr: 0x8BB8, symBinAddr: 0x10000A9B4, symSize: 0x2C }
  - { offset: 0x17B16, size: 0x8, addend: 0x0, symName: __ZNSt3__116__variant_detail6__dtorINS0_8__traitsIJ4WORK5SLEEP4FREEEEELNS0_6_TraitE1EECI2NS0_6__baseILS7_1EJS3_S4_S5_EEEENS0_13__valueless_tE, symObjAddr: 0x8BE4, symBinAddr: 0x10000A9E0, symSize: 0x2C }
  - { offset: 0x17B4B, size: 0x8, addend: 0x0, symName: __ZNSt3__116__variant_detail6__baseILNS0_6_TraitE1EJ4WORK5SLEEP4FREEEEC2B8ne180100ENS0_13__valueless_tE, symObjAddr: 0x8C10, symBinAddr: 0x10000AA0C, symSize: 0x34 }
  - { offset: 0x17B83, size: 0x8, addend: 0x0, symName: __ZNSt3__116__variant_detail7__unionILNS0_6_TraitE1ELm0EJ4WORK5SLEEP4FREEEEC1B8ne180100ENS0_13__valueless_tE, symObjAddr: 0x8C44, symBinAddr: 0x10000AA40, symSize: 0x2C }
  - { offset: 0x17BB7, size: 0x8, addend: 0x0, symName: __ZNSt3__116__variant_detail7__unionILNS0_6_TraitE1ELm0EJ4WORK5SLEEP4FREEEEC2B8ne180100ENS0_13__valueless_tE, symObjAddr: 0x8C70, symBinAddr: 0x10000AA6C, symSize: 0x18 }
  - { offset: 0x17BEB, size: 0x8, addend: 0x0, symName: __ZNSt3__116__variant_detail6__dtorINS0_8__traitsIJ4WORK5SLEEP4FREEEEELNS0_6_TraitE1EE9__destroyB8ne180100Ev, symObjAddr: 0x8C88, symBinAddr: 0x10000AA84, symSize: 0x54 }
  - { offset: 0x17C6F, size: 0x8, addend: 0x0, symName: __ZNKSt3__116__variant_detail6__baseILNS0_6_TraitE1EJ4WORK5SLEEP4FREEEE22valueless_by_exceptionB8ne180100Ev, symObjAddr: 0x8CDC, symBinAddr: 0x10000AAD8, symSize: 0x30 }
  - { offset: 0x17C94, size: 0x8, addend: 0x0, symName: __ZNKSt3__116__variant_detail6__baseILNS0_6_TraitE1EJ4WORK5SLEEP4FREEEE5indexB8ne180100Ev, symObjAddr: 0x8D0C, symBinAddr: 0x10000AB08, symSize: 0x4C }
  - { offset: 0x17CBD, size: 0x8, addend: 0x0, symName: __ZNSt3__116__variant_detail12__visitation6__base14__visit_alt_atB8ne180100IZNS0_6__ctorINS0_8__traitsIJ4WORK5SLEEP4FREEEEEE19__generic_constructB8ne180100IRKNS0_18__copy_constructorIS9_LNS0_6_TraitE1EEEEEvRSA_OT_EUlRSI_OT0_E_JSH_SG_EEEDcmSJ_DpOT0_, symObjAddr: 0x8D58, symBinAddr: 0x10000AB54, symSize: 0x84 }
  - { offset: 0x17D3A, size: 0x8, addend: 0x0, symName: __ZNSt3__116__variant_detail12__visitation6__base11__visit_altB8ne180100IZNS0_6__dtorINS0_8__traitsIJ4WORK5SLEEP4FREEEEELNS0_6_TraitE1EE9__destroyB8ne180100EvEUlRT_E_JRSB_EEEDcOSC_DpOT0_, symObjAddr: 0x8DDC, symBinAddr: 0x10000ABD8, symSize: 0x7C }
  - { offset: 0x17D94, size: 0x8, addend: 0x0, symName: __ZNSt3__116__variant_detail12__visitation6__base12__dispatcherIJLm0EEE10__dispatchB8ne180100IOZNS0_6__dtorINS0_8__traitsIJ4WORK5SLEEP4FREEEEELNS0_6_TraitE1EE9__destroyB8ne180100EvEUlRT_E_JRNS0_6__baseILSC_1EJS8_S9_SA_EEEEEEDcSE_DpT0_, symObjAddr: 0x8E58, symBinAddr: 0x10000AC54, symSize: 0x3C }
  - { offset: 0x17DDA, size: 0x8, addend: 0x0, symName: __ZNSt3__116__variant_detail12__visitation6__base12__dispatcherIJLm1EEE10__dispatchB8ne180100IOZNS0_6__dtorINS0_8__traitsIJ4WORK5SLEEP4FREEEEELNS0_6_TraitE1EE9__destroyB8ne180100EvEUlRT_E_JRNS0_6__baseILSC_1EJS8_S9_SA_EEEEEEDcSE_DpT0_, symObjAddr: 0x8E94, symBinAddr: 0x10000AC90, symSize: 0x3C }
  - { offset: 0x17E20, size: 0x8, addend: 0x0, symName: __ZNSt3__116__variant_detail12__visitation6__base12__dispatcherIJLm2EEE10__dispatchB8ne180100IOZNS0_6__dtorINS0_8__traitsIJ4WORK5SLEEP4FREEEEELNS0_6_TraitE1EE9__destroyB8ne180100EvEUlRT_E_JRNS0_6__baseILSC_1EJS8_S9_SA_EEEEEEDcSE_DpT0_, symObjAddr: 0x8ED0, symBinAddr: 0x10000ACCC, symSize: 0x3C }
  - { offset: 0x17E9D, size: 0x8, addend: 0x0, symName: __ZNSt3__116__variant_detail12__visitation6__base4__atB8ne180100IPFvOZNS0_6__dtorINS0_8__traitsIJ4WORK5SLEEP4FREEEEELNS0_6_TraitE1EE9__destroyB8ne180100EvEUlRT_E_RNS0_6__baseILSA_1EJS6_S7_S8_EEEELm3EJEEEODaRKNS_8__farrayISC_XT0_EEEmDpT1_, symObjAddr: 0x8F0C, symBinAddr: 0x10000AD08, symSize: 0x30 }
  - { offset: 0x17EE8, size: 0x8, addend: 0x0, symName: __ZNRSt3__116__variant_detail6__baseILNS0_6_TraitE1EJ4WORK5SLEEP4FREEEE9__as_baseB8ne180100Ev, symObjAddr: 0x8F3C, symBinAddr: 0x10000AD38, symSize: 0x14 }
  - { offset: 0x17F11, size: 0x8, addend: 0x0, symName: __ZNSt3__116__variant_detail8__access6__base9__get_altB8ne180100ILm0ERNS0_6__baseILNS0_6_TraitE1EJ4WORK5SLEEP4FREEEEEEEODaOT0_, symObjAddr: 0x8F7C, symBinAddr: 0x10000AD78, symSize: 0x24 }
  - { offset: 0x17F52, size: 0x8, addend: 0x0, symName: __ZZNSt3__116__variant_detail6__dtorINS0_8__traitsIJ4WORK5SLEEP4FREEEEELNS0_6_TraitE1EE9__destroyB8ne180100EvENKUlRT_E_clINS0_5__altILm0ES3_EEEEDaSA_, symObjAddr: 0x8FA0, symBinAddr: 0x10000AD9C, symSize: 0x28 }
  - { offset: 0x17F98, size: 0x8, addend: 0x0, symName: __ZNSt3__116__variant_detail5__altILm0E4WORKED1Ev, symObjAddr: 0x8FC8, symBinAddr: 0x10000ADC4, symSize: 0x2C }
  - { offset: 0x17FC4, size: 0x8, addend: 0x0, symName: __ZNSt3__116__variant_detail5__altILm0E4WORKED2Ev, symObjAddr: 0x8FF4, symBinAddr: 0x10000ADF0, symSize: 0x2C }
  - { offset: 0x17FF0, size: 0x8, addend: 0x0, symName: __ZNSt3__116__variant_detail8__access7__union9__get_altB8ne180100IRNS0_7__unionILNS0_6_TraitE1ELm0EJ4WORK5SLEEP4FREEEEEEEODaOT_NS_16in_place_index_tILm0EEE, symObjAddr: 0x9020, symBinAddr: 0x10000AE1C, symSize: 0x14 }
  - { offset: 0x1802C, size: 0x8, addend: 0x0, symName: __ZNSt3__116__variant_detail8__access6__base9__get_altB8ne180100ILm1ERNS0_6__baseILNS0_6_TraitE1EJ4WORK5SLEEP4FREEEEEEEODaOT0_, symObjAddr: 0x9060, symBinAddr: 0x10000AE5C, symSize: 0x24 }
  - { offset: 0x18063, size: 0x8, addend: 0x0, symName: __ZZNSt3__116__variant_detail6__dtorINS0_8__traitsIJ4WORK5SLEEP4FREEEEELNS0_6_TraitE1EE9__destroyB8ne180100EvENKUlRT_E_clINS0_5__altILm1ES4_EEEEDaSA_, symObjAddr: 0x9084, symBinAddr: 0x10000AE80, symSize: 0x28 }
  - { offset: 0x180A9, size: 0x8, addend: 0x0, symName: __ZNSt3__116__variant_detail5__altILm1E5SLEEPED1Ev, symObjAddr: 0x90AC, symBinAddr: 0x10000AEA8, symSize: 0x2C }
  - { offset: 0x180D5, size: 0x8, addend: 0x0, symName: __ZNSt3__116__variant_detail5__altILm1E5SLEEPED2Ev, symObjAddr: 0x90D8, symBinAddr: 0x10000AED4, symSize: 0x2C }
  - { offset: 0x18100, size: 0x8, addend: 0x0, symName: __ZNSt3__116__variant_detail8__access7__union9__get_altB8ne180100IRNS0_7__unionILNS0_6_TraitE1ELm0EJ4WORK5SLEEP4FREEEEELm1EEEODaOT_NS_16in_place_index_tIXT0_EEE, symObjAddr: 0x9104, symBinAddr: 0x10000AF00, symSize: 0x24 }
  - { offset: 0x18142, size: 0x8, addend: 0x0, symName: __ZNSt3__116__variant_detail8__access7__union9__get_altB8ne180100IRNS0_7__unionILNS0_6_TraitE1ELm1EJ5SLEEP4FREEEEEEEODaOT_NS_16in_place_index_tILm0EEE, symObjAddr: 0x9128, symBinAddr: 0x10000AF24, symSize: 0x14 }
  - { offset: 0x1817E, size: 0x8, addend: 0x0, symName: __ZNSt3__116__variant_detail8__access6__base9__get_altB8ne180100ILm2ERNS0_6__baseILNS0_6_TraitE1EJ4WORK5SLEEP4FREEEEEEEODaOT0_, symObjAddr: 0x9168, symBinAddr: 0x10000AF64, symSize: 0x24 }
  - { offset: 0x181B5, size: 0x8, addend: 0x0, symName: __ZZNSt3__116__variant_detail6__dtorINS0_8__traitsIJ4WORK5SLEEP4FREEEEELNS0_6_TraitE1EE9__destroyB8ne180100EvENKUlRT_E_clINS0_5__altILm2ES5_EEEEDaSA_, symObjAddr: 0x918C, symBinAddr: 0x10000AF88, symSize: 0x28 }
  - { offset: 0x181FB, size: 0x8, addend: 0x0, symName: __ZNSt3__116__variant_detail5__altILm2E4FREEED1Ev, symObjAddr: 0x91B4, symBinAddr: 0x10000AFB0, symSize: 0x2C }
  - { offset: 0x18227, size: 0x8, addend: 0x0, symName: __ZNSt3__116__variant_detail5__altILm2E4FREEED2Ev, symObjAddr: 0x91E0, symBinAddr: 0x10000AFDC, symSize: 0x2C }
  - { offset: 0x18252, size: 0x8, addend: 0x0, symName: __ZNSt3__116__variant_detail8__access7__union9__get_altB8ne180100IRNS0_7__unionILNS0_6_TraitE1ELm0EJ4WORK5SLEEP4FREEEEELm2EEEODaOT_NS_16in_place_index_tIXT0_EEE, symObjAddr: 0x920C, symBinAddr: 0x10000B008, symSize: 0x24 }
  - { offset: 0x18293, size: 0x8, addend: 0x0, symName: __ZNSt3__116__variant_detail8__access7__union9__get_altB8ne180100IRNS0_7__unionILNS0_6_TraitE1ELm1EJ5SLEEP4FREEEEELm1EEEODaOT_NS_16in_place_index_tIXT0_EEE, symObjAddr: 0x9230, symBinAddr: 0x10000B02C, symSize: 0x24 }
  - { offset: 0x182D5, size: 0x8, addend: 0x0, symName: __ZNSt3__116__variant_detail8__access7__union9__get_altB8ne180100IRNS0_7__unionILNS0_6_TraitE1ELm2EJ4FREEEEEEEODaOT_NS_16in_place_index_tILm0EEE, symObjAddr: 0x9254, symBinAddr: 0x10000B050, symSize: 0x14 }
  - { offset: 0x1830D, size: 0x8, addend: 0x0, symName: __ZNSt3__116__variant_detail12__visitation6__base4__atB8ne180100IPFvOZNS0_6__dtorINS0_8__traitsIJ4WORK5SLEEP4FREEEEELNS0_6_TraitE1EE9__destroyB8ne180100EvEUlRT_E_RNS0_6__baseILSA_1EJS6_S7_S8_EEEEEERKSC_SM_, symObjAddr: 0x9268, symBinAddr: 0x10000B064, symSize: 0x14 }
  - { offset: 0x1833A, size: 0x8, addend: 0x0, symName: __ZNKSt3__18__farrayIPFvOZNS_16__variant_detail6__dtorINS1_8__traitsIJ4WORK5SLEEP4FREEEEELNS1_6_TraitE1EE9__destroyB8ne180100EvEUlRT_E_RNS1_6__baseILS8_1EJS4_S5_S6_EEEELm3EEixB8ne180100Em, symObjAddr: 0x927C, symBinAddr: 0x10000B078, symSize: 0x20 }
  - { offset: 0x18372, size: 0x8, addend: 0x0, symName: __ZNSt3__116__variant_detail12__visitation6__base12__dispatcherIJLm0ELm0EEE10__dispatchB8ne180100IOZNS0_6__ctorINS0_8__traitsIJ4WORK5SLEEP4FREEEEEE19__generic_constructB8ne180100IRKNS0_18__copy_constructorISB_LNS0_6_TraitE1EEEEEvRSC_OT_EUlRSK_OT0_E_JRNS0_6__baseILSF_1EJS8_S9_SA_EEERKSS_EEEDcSK_DpT0_, symObjAddr: 0x929C, symBinAddr: 0x10000B098, symSize: 0x50 }
  - { offset: 0x183CC, size: 0x8, addend: 0x0, symName: __ZNSt3__116__variant_detail12__visitation6__base12__dispatcherIJLm1ELm1EEE10__dispatchB8ne180100IOZNS0_6__ctorINS0_8__traitsIJ4WORK5SLEEP4FREEEEEE19__generic_constructB8ne180100IRKNS0_18__copy_constructorISB_LNS0_6_TraitE1EEEEEvRSC_OT_EUlRSK_OT0_E_JRNS0_6__baseILSF_1EJS8_S9_SA_EEERKSS_EEEDcSK_DpT0_, symObjAddr: 0x92EC, symBinAddr: 0x10000B0E8, symSize: 0x50 }
  - { offset: 0x18426, size: 0x8, addend: 0x0, symName: __ZNSt3__116__variant_detail12__visitation6__base12__dispatcherIJLm2ELm2EEE10__dispatchB8ne180100IOZNS0_6__ctorINS0_8__traitsIJ4WORK5SLEEP4FREEEEEE19__generic_constructB8ne180100IRKNS0_18__copy_constructorISB_LNS0_6_TraitE1EEEEEvRSC_OT_EUlRSK_OT0_E_JRNS0_6__baseILSF_1EJS8_S9_SA_EEERKSS_EEEDcSK_DpT0_, symObjAddr: 0x933C, symBinAddr: 0x10000B138, symSize: 0x50 }
  - { offset: 0x184B8, size: 0x8, addend: 0x0, symName: __ZNKSt3__18__farrayIPFvOZNS_16__variant_detail6__ctorINS1_8__traitsIJ4WORK5SLEEP4FREEEEEE19__generic_constructB8ne180100IRKNS1_18__copy_constructorIS7_LNS1_6_TraitE1EEEEEvRS8_OT_EUlRSG_OT0_E_RNS1_6__baseILSB_1EJS4_S5_S6_EEERKSO_ELm3EEixB8ne180100Em, symObjAddr: 0x938C, symBinAddr: 0x10000B188, symSize: 0x20 }
  - { offset: 0x184EC, size: 0x8, addend: 0x0, symName: __ZNKRSt3__116__variant_detail6__baseILNS0_6_TraitE1EJ4WORK5SLEEP4FREEEE9__as_baseB8ne180100Ev, symObjAddr: 0x93AC, symBinAddr: 0x10000B1A8, symSize: 0x14 }
  - { offset: 0x1851A, size: 0x8, addend: 0x0, symName: __ZNSt3__116__variant_detail8__access6__base9__get_altB8ne180100ILm0ERKNS0_6__baseILNS0_6_TraitE1EJ4WORK5SLEEP4FREEEEEEEODaOT0_, symObjAddr: 0x93F4, symBinAddr: 0x10000B1F0, symSize: 0x24 }
  - { offset: 0x1855B, size: 0x8, addend: 0x0, symName: __ZZNSt3__116__variant_detail6__ctorINS0_8__traitsIJ4WORK5SLEEP4FREEEEEE19__generic_constructB8ne180100IRKNS0_18__copy_constructorIS6_LNS0_6_TraitE1EEEEEvRS7_OT_ENKUlRSF_OT0_E_clINS0_5__altILm0ES3_EERKSN_EEDaSH_SJ_, symObjAddr: 0x9418, symBinAddr: 0x10000B214, symSize: 0x30 }
  - { offset: 0x185B8, size: 0x8, addend: 0x0, symName: __ZNSt3__116__variant_detail6__ctorINS0_8__traitsIJ4WORK5SLEEP4FREEEEEE15__construct_altB8ne180100ILm0ES3_JRKS3_EEERT0_RNS0_5__altIXT_ESB_EEDpOT1_, symObjAddr: 0x9448, symBinAddr: 0x10000B244, symSize: 0x30 }
  - { offset: 0x18609, size: 0x8, addend: 0x0, symName: __ZNSt3__116__variant_detail5__altILm0E4WORKEC1B8ne180100IJRKS2_EEENS_10in_place_tEDpOT_, symObjAddr: 0x9478, symBinAddr: 0x10000B274, symSize: 0x34 }
  - { offset: 0x18657, size: 0x8, addend: 0x0, symName: __ZNSt3__116__variant_detail5__altILm0E4WORKEC2B8ne180100IJRKS2_EEENS_10in_place_tEDpOT_, symObjAddr: 0x94AC, symBinAddr: 0x10000B2A8, symSize: 0x34 }
  - { offset: 0x186A5, size: 0x8, addend: 0x0, symName: __ZNSt3__116__variant_detail8__access7__union9__get_altB8ne180100IRKNS0_7__unionILNS0_6_TraitE1ELm0EJ4WORK5SLEEP4FREEEEEEEODaOT_NS_16in_place_index_tILm0EEE, symObjAddr: 0x94E0, symBinAddr: 0x10000B2DC, symSize: 0x14 }
  - { offset: 0x186E6, size: 0x8, addend: 0x0, symName: __ZNSt3__116__variant_detail8__access6__base9__get_altB8ne180100ILm1ERKNS0_6__baseILNS0_6_TraitE1EJ4WORK5SLEEP4FREEEEEEEODaOT0_, symObjAddr: 0x9528, symBinAddr: 0x10000B324, symSize: 0x24 }
  - { offset: 0x1871D, size: 0x8, addend: 0x0, symName: __ZZNSt3__116__variant_detail6__ctorINS0_8__traitsIJ4WORK5SLEEP4FREEEEEE19__generic_constructB8ne180100IRKNS0_18__copy_constructorIS6_LNS0_6_TraitE1EEEEEvRS7_OT_ENKUlRSF_OT0_E_clINS0_5__altILm1ES4_EERKSN_EEDaSH_SJ_, symObjAddr: 0x954C, symBinAddr: 0x10000B348, symSize: 0x30 }
  - { offset: 0x1877A, size: 0x8, addend: 0x0, symName: __ZNSt3__116__variant_detail6__ctorINS0_8__traitsIJ4WORK5SLEEP4FREEEEEE15__construct_altB8ne180100ILm1ES4_JRKS4_EEERT0_RNS0_5__altIXT_ESB_EEDpOT1_, symObjAddr: 0x957C, symBinAddr: 0x10000B378, symSize: 0x30 }
  - { offset: 0x187CB, size: 0x8, addend: 0x0, symName: __ZNSt3__116__variant_detail5__altILm1E5SLEEPEC1B8ne180100IJRKS2_EEENS_10in_place_tEDpOT_, symObjAddr: 0x95AC, symBinAddr: 0x10000B3A8, symSize: 0x34 }
  - { offset: 0x18819, size: 0x8, addend: 0x0, symName: __ZNSt3__116__variant_detail5__altILm1E5SLEEPEC2B8ne180100IJRKS2_EEENS_10in_place_tEDpOT_, symObjAddr: 0x95E0, symBinAddr: 0x10000B3DC, symSize: 0x34 }
  - { offset: 0x18866, size: 0x8, addend: 0x0, symName: __ZNSt3__116__variant_detail8__access7__union9__get_altB8ne180100IRKNS0_7__unionILNS0_6_TraitE1ELm0EJ4WORK5SLEEP4FREEEEELm1EEEODaOT_NS_16in_place_index_tIXT0_EEE, symObjAddr: 0x9614, symBinAddr: 0x10000B410, symSize: 0x24 }
  - { offset: 0x188A8, size: 0x8, addend: 0x0, symName: __ZNSt3__116__variant_detail8__access7__union9__get_altB8ne180100IRKNS0_7__unionILNS0_6_TraitE1ELm1EJ5SLEEP4FREEEEEEEODaOT_NS_16in_place_index_tILm0EEE, symObjAddr: 0x9638, symBinAddr: 0x10000B434, symSize: 0x14 }
  - { offset: 0x188E9, size: 0x8, addend: 0x0, symName: __ZNSt3__116__variant_detail8__access6__base9__get_altB8ne180100ILm2ERKNS0_6__baseILNS0_6_TraitE1EJ4WORK5SLEEP4FREEEEEEEODaOT0_, symObjAddr: 0x9680, symBinAddr: 0x10000B47C, symSize: 0x24 }
  - { offset: 0x18920, size: 0x8, addend: 0x0, symName: __ZZNSt3__116__variant_detail6__ctorINS0_8__traitsIJ4WORK5SLEEP4FREEEEEE19__generic_constructB8ne180100IRKNS0_18__copy_constructorIS6_LNS0_6_TraitE1EEEEEvRS7_OT_ENKUlRSF_OT0_E_clINS0_5__altILm2ES5_EERKSN_EEDaSH_SJ_, symObjAddr: 0x96A4, symBinAddr: 0x10000B4A0, symSize: 0x30 }
  - { offset: 0x1897D, size: 0x8, addend: 0x0, symName: __ZNSt3__116__variant_detail6__ctorINS0_8__traitsIJ4WORK5SLEEP4FREEEEEE15__construct_altB8ne180100ILm2ES5_JRKS5_EEERT0_RNS0_5__altIXT_ESB_EEDpOT1_, symObjAddr: 0x96D4, symBinAddr: 0x10000B4D0, symSize: 0x30 }
  - { offset: 0x189CE, size: 0x8, addend: 0x0, symName: __ZNSt3__116__variant_detail5__altILm2E4FREEEC1B8ne180100IJRKS2_EEENS_10in_place_tEDpOT_, symObjAddr: 0x9704, symBinAddr: 0x10000B500, symSize: 0x34 }
  - { offset: 0x18A1C, size: 0x8, addend: 0x0, symName: __ZNSt3__116__variant_detail5__altILm2E4FREEEC2B8ne180100IJRKS2_EEENS_10in_place_tEDpOT_, symObjAddr: 0x9738, symBinAddr: 0x10000B534, symSize: 0x34 }
  - { offset: 0x18A69, size: 0x8, addend: 0x0, symName: __ZNSt3__116__variant_detail8__access7__union9__get_altB8ne180100IRKNS0_7__unionILNS0_6_TraitE1ELm0EJ4WORK5SLEEP4FREEEEELm2EEEODaOT_NS_16in_place_index_tIXT0_EEE, symObjAddr: 0x976C, symBinAddr: 0x10000B568, symSize: 0x24 }
  - { offset: 0x18AAA, size: 0x8, addend: 0x0, symName: __ZNSt3__116__variant_detail8__access7__union9__get_altB8ne180100IRKNS0_7__unionILNS0_6_TraitE1ELm1EJ5SLEEP4FREEEEELm1EEEODaOT_NS_16in_place_index_tIXT0_EEE, symObjAddr: 0x9790, symBinAddr: 0x10000B58C, symSize: 0x24 }
  - { offset: 0x18AEC, size: 0x8, addend: 0x0, symName: __ZNSt3__116__variant_detail8__access7__union9__get_altB8ne180100IRKNS0_7__unionILNS0_6_TraitE1ELm2EJ4FREEEEEEEODaOT_NS_16in_place_index_tILm0EEE, symObjAddr: 0x97B4, symBinAddr: 0x10000B5B0, symSize: 0x14 }
  - { offset: 0x18B24, size: 0x8, addend: 0x0, symName: __ZNSt3__116__variant_detail18__move_constructorINS0_8__traitsIJ4WORK5SLEEP4FREEEEELNS0_6_TraitE1EED2Ev, symObjAddr: 0x97C8, symBinAddr: 0x10000B5C4, symSize: 0x2C }
  - { offset: 0x18B4D, size: 0x8, addend: 0x0, symName: __ZNSt3__116__variant_detail6__ctorINS0_8__traitsIJ4WORK5SLEEP4FREEEEEED2Ev, symObjAddr: 0x97F4, symBinAddr: 0x10000B5F0, symSize: 0x2C }
  - { offset: 0x18B79, size: 0x8, addend: 0x0, symName: __ZNSt3__116__variant_detail6__dtorINS0_8__traitsIJ4WORK5SLEEP4FREEEEELNS0_6_TraitE1EED2Ev, symObjAddr: 0x9820, symBinAddr: 0x10000B61C, symSize: 0x34 }
  - { offset: 0x18BA2, size: 0x8, addend: 0x0, symName: __ZNSt3__116__variant_detail6__baseILNS0_6_TraitE1EJ4WORK5SLEEP4FREEEED2Ev, symObjAddr: 0x9854, symBinAddr: 0x10000B650, symSize: 0x2C }
  - { offset: 0x18BCE, size: 0x8, addend: 0x0, symName: __ZNSt3__116__variant_detail7__unionILNS0_6_TraitE1ELm0EJ4WORK5SLEEP4FREEEED1Ev, symObjAddr: 0x9880, symBinAddr: 0x10000B67C, symSize: 0x2C }
  - { offset: 0x18BF7, size: 0x8, addend: 0x0, symName: __ZNSt3__116__variant_detail7__unionILNS0_6_TraitE1ELm0EJ4WORK5SLEEP4FREEEED2Ev, symObjAddr: 0x98AC, symBinAddr: 0x10000B6A8, symSize: 0x14 }
  - { offset: 0x18C20, size: 0x8, addend: 0x0, symName: __ZNKSt3__17variantIJ4WORK5SLEEP4FREEEE5indexB8ne180100Ev, symObjAddr: 0x98F0, symBinAddr: 0x10000B6EC, symSize: 0x28 }
  - { offset: 0x18C44, size: 0x8, addend: 0x0, symName: __ZNSt3__116__variant_detail8__access9__variant9__get_altB8ne180100ILm2ERNS_7variantIJ4WORK5SLEEP4FREEEEEEEODaOT0_, symObjAddr: 0x99AC, symBinAddr: 0x10000B7A8, symSize: 0x28 }
  - { offset: 0x18C8A, size: 0x8, addend: 0x0, symName: __ZNSt18bad_variant_accessC1Ev, symObjAddr: 0x99D4, symBinAddr: 0x10000B7D0, symSize: 0x2C }
  - { offset: 0x18CB6, size: 0x8, addend: 0x0, symName: __ZNSt18bad_variant_accessD1Ev, symObjAddr: 0x9A00, symBinAddr: 0x10000B7FC, symSize: 0x2C }
  - { offset: 0x18CE2, size: 0x8, addend: 0x0, symName: __ZNSt18bad_variant_accessC2Ev, symObjAddr: 0x9A2C, symBinAddr: 0x10000B828, symSize: 0x3C }
  - { offset: 0x18D0E, size: 0x8, addend: 0x0, symName: __ZNSt9exceptionC2B8ne180100Ev, symObjAddr: 0x9A68, symBinAddr: 0x10000B864, symSize: 0x24 }
  - { offset: 0x18D37, size: 0x8, addend: 0x0, symName: __ZNSt18bad_variant_accessD2Ev, symObjAddr: 0x9A8C, symBinAddr: 0x10000B888, symSize: 0x2C }
  - { offset: 0x18D62, size: 0x8, addend: 0x0, symName: __ZNSt3__116__variant_detail8__access6__base9__get_altB8ne180100ILm2ERNS0_6__implIJ4WORK5SLEEP4FREEEEEEEODaOT0_, symObjAddr: 0x9AB8, symBinAddr: 0x10000B8B4, symSize: 0x24 }
  - { offset: 0x18D99, size: 0x8, addend: 0x0, symName: __ZNKSt3__17variantIJ7Break_t6None_tEE5indexB8ne180100Ev, symObjAddr: 0x9B0C, symBinAddr: 0x10000B908, symSize: 0x24 }
  - { offset: 0x18DBE, size: 0x8, addend: 0x0, symName: __ZNSt3__17variantIJ4WORK5SLEEP4FREEEED2B8ne180100Ev, symObjAddr: 0x9B30, symBinAddr: 0x10000B92C, symSize: 0x30 }
  - { offset: 0x18DE7, size: 0x8, addend: 0x0, symName: __ZNSt3__116__variant_detail6__implIJ4WORK5SLEEP4FREEEED1Ev, symObjAddr: 0x9B60, symBinAddr: 0x10000B95C, symSize: 0x2C }
  - { offset: 0x18E13, size: 0x8, addend: 0x0, symName: __ZNSt3__116__variant_detail6__implIJ4WORK5SLEEP4FREEEED2Ev, symObjAddr: 0x9B8C, symBinAddr: 0x10000B988, symSize: 0x2C }
  - { offset: 0x18E3F, size: 0x8, addend: 0x0, symName: __ZNSt3__116__variant_detail17__copy_assignmentINS0_8__traitsIJ4WORK5SLEEP4FREEEEELNS0_6_TraitE1EED2Ev, symObjAddr: 0x9BB8, symBinAddr: 0x10000B9B4, symSize: 0x2C }
  - { offset: 0x18E68, size: 0x8, addend: 0x0, symName: __ZNSt3__116__variant_detail17__move_assignmentINS0_8__traitsIJ4WORK5SLEEP4FREEEEELNS0_6_TraitE1EED2Ev, symObjAddr: 0x9BE4, symBinAddr: 0x10000B9E0, symSize: 0x2C }
  - { offset: 0x18E91, size: 0x8, addend: 0x0, symName: __ZNSt3__116__variant_detail12__assignmentINS0_8__traitsIJ4WORK5SLEEP4FREEEEEED2Ev, symObjAddr: 0x9C10, symBinAddr: 0x10000BA0C, symSize: 0x2C }
  - { offset: 0x18EBD, size: 0x8, addend: 0x0, symName: __ZN10Activity_t13debugActivityEv, symObjAddr: 0x9C3C, symBinAddr: 0x10000BA38, symSize: 0x1F8 }
  - { offset: 0x18FC2, size: 0x8, addend: 0x0, symName: __ZNK6String3getEv, symObjAddr: 0xA1D8, symBinAddr: 0x10000BFD4, symSize: 0x50 }
  - { offset: 0x18FE7, size: 0x8, addend: 0x0, symName: __ZNKSt3__112basic_stringIcNS_11char_traitsIcEENS_9allocatorIcEEE6lengthB8ne180100Ev, symObjAddr: 0xA330, symBinAddr: 0x10000C12C, symSize: 0x24 }
  - { offset: 0x1900C, size: 0x8, addend: 0x0, symName: __ZNSt3__112basic_stringIcNS_11char_traitsIcEENS_9allocatorIcEEEaSB8ne180100EPKc, symObjAddr: 0xA354, symBinAddr: 0x10000C150, symSize: 0x2C }
  - { offset: 0x19040, size: 0x8, addend: 0x0, symName: __ZNSt3__112basic_stringIcNS_11char_traitsIcEENS_9allocatorIcEEEaSB8ne180100EOS5_, symObjAddr: 0xA3C4, symBinAddr: 0x10000C1C0, symSize: 0x34 }
  - { offset: 0x19074, size: 0x8, addend: 0x0, symName: __ZNSt3__112basic_stringIcNS_11char_traitsIcEENS_9allocatorIcEEEC1B8ne180100Ev, symObjAddr: 0xA3F8, symBinAddr: 0x10000C1F4, symSize: 0x2C }
  - { offset: 0x1909D, size: 0x8, addend: 0x0, symName: __ZNKSt3__112basic_stringIcNS_11char_traitsIcEENS_9allocatorIcEEE5c_strB8ne180100Ev, symObjAddr: 0xA558, symBinAddr: 0x10000C354, symSize: 0x24 }
  - { offset: 0x190C2, size: 0x8, addend: 0x0, symName: __ZNKSt3__112basic_stringIcNS_11char_traitsIcEENS_9allocatorIcEEE4sizeB8ne180100Ev, symObjAddr: 0xA57C, symBinAddr: 0x10000C378, symSize: 0x54 }
  - { offset: 0x190E7, size: 0x8, addend: 0x0, symName: __ZNKSt3__112basic_stringIcNS_11char_traitsIcEENS_9allocatorIcEEE9__is_longB8ne180100Ev, symObjAddr: 0xA5D0, symBinAddr: 0x10000C3CC, symSize: 0x38 }
  - { offset: 0x1910C, size: 0x8, addend: 0x0, symName: __ZNKSt3__112basic_stringIcNS_11char_traitsIcEENS_9allocatorIcEEE15__get_long_sizeB8ne180100Ev, symObjAddr: 0xA608, symBinAddr: 0x10000C404, symSize: 0x28 }
  - { offset: 0x19131, size: 0x8, addend: 0x0, symName: __ZNKSt3__112basic_stringIcNS_11char_traitsIcEENS_9allocatorIcEEE16__get_short_sizeB8ne180100Ev, symObjAddr: 0xA630, symBinAddr: 0x10000C42C, symSize: 0x34 }
  - { offset: 0x19156, size: 0x8, addend: 0x0, symName: __ZNKSt3__117__compressed_pairINS_12basic_stringIcNS_11char_traitsIcEENS_9allocatorIcEEE5__repES5_E5firstB8ne180100Ev, symObjAddr: 0xA664, symBinAddr: 0x10000C460, symSize: 0x24 }
  - { offset: 0x1917B, size: 0x8, addend: 0x0, symName: __ZNKSt3__122__compressed_pair_elemINS_12basic_stringIcNS_11char_traitsIcEENS_9allocatorIcEEE5__repELi0ELb0EE5__getB8ne180100Ev, symObjAddr: 0xA688, symBinAddr: 0x10000C484, symSize: 0x14 }
  - { offset: 0x191A0, size: 0x8, addend: 0x0, symName: __ZNSt3__112basic_stringIcNS_11char_traitsIcEENS_9allocatorIcEEEC1B8ne180100EOS5_, symObjAddr: 0xA69C, symBinAddr: 0x10000C498, symSize: 0x34 }
  - { offset: 0x191D8, size: 0x8, addend: 0x0, symName: __ZNSt3__112basic_stringIcNS_11char_traitsIcEENS_9allocatorIcEEEC2B8ne180100EOS5_, symObjAddr: 0xA6D0, symBinAddr: 0x10000C4CC, symSize: 0xB8 }
  - { offset: 0x19240, size: 0x8, addend: 0x0, symName: __ZZNSt3__112basic_stringIcNS_11char_traitsIcEENS_9allocatorIcEEEC1B8ne180100EOS5_ENKUlRS5_E_clES7_, symObjAddr: 0xA788, symBinAddr: 0x10000C584, symSize: 0x40 }
  - { offset: 0x19278, size: 0x8, addend: 0x0, symName: __ZNSt3__117__compressed_pairINS_12basic_stringIcNS_11char_traitsIcEENS_9allocatorIcEEE5__repES5_E5firstB8ne180100Ev, symObjAddr: 0xA7C8, symBinAddr: 0x10000C5C4, symSize: 0x24 }
  - { offset: 0x1929D, size: 0x8, addend: 0x0, symName: __ZNKSt3__112basic_stringIcNS_11char_traitsIcEENS_9allocatorIcEEE14__annotate_newB8ne180100Em, symObjAddr: 0xA7EC, symBinAddr: 0x10000C5E8, symSize: 0x14 }
  - { offset: 0x192D1, size: 0x8, addend: 0x0, symName: __ZNKSt3__112basic_stringIcNS_11char_traitsIcEENS_9allocatorIcEEE17__annotate_deleteB8ne180100Ev, symObjAddr: 0xA800, symBinAddr: 0x10000C5FC, symSize: 0x10 }
  - { offset: 0x192F6, size: 0x8, addend: 0x0, symName: __ZNSt3__122__compressed_pair_elemINS_12basic_stringIcNS_11char_traitsIcEENS_9allocatorIcEEE5__repELi0ELb0EE5__getB8ne180100Ev, symObjAddr: 0xA810, symBinAddr: 0x10000C60C, symSize: 0x14 }
  - { offset: 0x1931A, size: 0x8, addend: 0x0, symName: __ZNSt3__112basic_stringIcNS_11char_traitsIcEENS_9allocatorIcEEE13__move_assignB8ne180100ERS5_NS_17integral_constantIbLb1EEE, symObjAddr: 0xA824, symBinAddr: 0x10000C620, symSize: 0x17C }
  - { offset: 0x19378, size: 0x8, addend: 0x0, symName: __ZNSt3__116allocator_traitsINS_9allocatorIcEEE10deallocateB8ne180100ERS2_Pcm, symObjAddr: 0xA9A0, symBinAddr: 0x10000C79C, symSize: 0x34 }
  - { offset: 0x193BA, size: 0x8, addend: 0x0, symName: __ZNSt3__112basic_stringIcNS_11char_traitsIcEENS_9allocatorIcEEE7__allocB8ne180100Ev, symObjAddr: 0xA9D4, symBinAddr: 0x10000C7D0, symSize: 0x24 }
  - { offset: 0x193DF, size: 0x8, addend: 0x0, symName: __ZNSt3__112basic_stringIcNS_11char_traitsIcEENS_9allocatorIcEEE18__get_long_pointerB8ne180100Ev, symObjAddr: 0xA9F8, symBinAddr: 0x10000C7F4, symSize: 0x28 }
  - { offset: 0x19404, size: 0x8, addend: 0x0, symName: __ZNKSt3__112basic_stringIcNS_11char_traitsIcEENS_9allocatorIcEEE14__get_long_capB8ne180100Ev, symObjAddr: 0xAA20, symBinAddr: 0x10000C81C, symSize: 0x30 }
  - { offset: 0x19429, size: 0x8, addend: 0x0, symName: __ZNSt3__112basic_stringIcNS_11char_traitsIcEENS_9allocatorIcEEE19__move_assign_allocB8ne180100ERS5_, symObjAddr: 0xAA50, symBinAddr: 0x10000C84C, symSize: 0x2C }
  - { offset: 0x1945D, size: 0x8, addend: 0x0, symName: __ZNSt3__112basic_stringIcNS_11char_traitsIcEENS_9allocatorIcEEE16__set_short_sizeB8ne180100Em, symObjAddr: 0xAA7C, symBinAddr: 0x10000C878, symSize: 0x78 }
  - { offset: 0x19491, size: 0x8, addend: 0x0, symName: __ZNSt3__111char_traitsIcE6assignB8ne180100ERcRKc, symObjAddr: 0xAAF4, symBinAddr: 0x10000C8F0, symSize: 0x24 }
  - { offset: 0x194C2, size: 0x8, addend: 0x0, symName: __ZNSt3__112basic_stringIcNS_11char_traitsIcEENS_9allocatorIcEEE19__get_short_pointerB8ne180100Ev, symObjAddr: 0xAB18, symBinAddr: 0x10000C914, symSize: 0x28 }
  - { offset: 0x194E7, size: 0x8, addend: 0x0, symName: __ZNKSt3__112basic_stringIcNS_11char_traitsIcEENS_9allocatorIcEEE17__annotate_shrinkB8ne180100Em, symObjAddr: 0xAB40, symBinAddr: 0x10000C93C, symSize: 0x14 }
  - { offset: 0x1951B, size: 0x8, addend: 0x0, symName: __ZNSt3__19allocatorIcE10deallocateB8ne180100EPcm, symObjAddr: 0xAB54, symBinAddr: 0x10000C950, symSize: 0x40 }
  - { offset: 0x1955C, size: 0x8, addend: 0x0, symName: __ZNSt3__117__compressed_pairINS_12basic_stringIcNS_11char_traitsIcEENS_9allocatorIcEEE5__repES5_E6secondB8ne180100Ev, symObjAddr: 0xAB94, symBinAddr: 0x10000C990, symSize: 0x24 }
  - { offset: 0x19581, size: 0x8, addend: 0x0, symName: __ZNSt3__122__compressed_pair_elemINS_9allocatorIcEELi1ELb1EE5__getB8ne180100Ev, symObjAddr: 0xABB8, symBinAddr: 0x10000C9B4, symSize: 0x14 }
  - { offset: 0x195A6, size: 0x8, addend: 0x0, symName: __ZNSt3__112basic_stringIcNS_11char_traitsIcEENS_9allocatorIcEEE19__move_assign_allocB8ne180100ERS5_NS_17integral_constantIbLb1EEE, symObjAddr: 0xABCC, symBinAddr: 0x10000C9C8, symSize: 0x38 }
  - { offset: 0x195E5, size: 0x8, addend: 0x0, symName: __ZNSt3__114pointer_traitsIPcE10pointer_toB8ne180100ERc, symObjAddr: 0xAC04, symBinAddr: 0x10000CA00, symSize: 0x14 }
  - { offset: 0x19608, size: 0x8, addend: 0x0, symName: __ZNSt3__112basic_stringIcNS_11char_traitsIcEENS_9allocatorIcEEEC2B8ne180100Ev, symObjAddr: 0xAC18, symBinAddr: 0x10000CA14, symSize: 0x48 }
  - { offset: 0x19636, size: 0x8, addend: 0x0, symName: __ZNSt3__117__compressed_pairINS_12basic_stringIcNS_11char_traitsIcEENS_9allocatorIcEEE5__repES5_EC1B8ne180100INS_16__value_init_tagENS_18__default_init_tagEEEOT_OT0_, symObjAddr: 0xAC60, symBinAddr: 0x10000CA5C, symSize: 0x3C }
  - { offset: 0x1968D, size: 0x8, addend: 0x0, symName: __ZNSt3__117__compressed_pairINS_12basic_stringIcNS_11char_traitsIcEENS_9allocatorIcEEE5__repES5_EC2B8ne180100INS_16__value_init_tagENS_18__default_init_tagEEEOT_OT0_, symObjAddr: 0xAC9C, symBinAddr: 0x10000CA98, symSize: 0x3C }
  - { offset: 0x196E4, size: 0x8, addend: 0x0, symName: __ZNSt3__122__compressed_pair_elemINS_12basic_stringIcNS_11char_traitsIcEENS_9allocatorIcEEE5__repELi0ELb0EEC2B8ne180100ENS_16__value_init_tagE, symObjAddr: 0xACD8, symBinAddr: 0x10000CAD4, symSize: 0x20 }
  - { offset: 0x19718, size: 0x8, addend: 0x0, symName: __ZNSt3__122__compressed_pair_elemINS_9allocatorIcEELi1ELb1EEC2B8ne180100ENS_18__default_init_tagE, symObjAddr: 0xACF8, symBinAddr: 0x10000CAF4, symSize: 0x2C }
  - { offset: 0x1974C, size: 0x8, addend: 0x0, symName: __ZNSt3__19allocatorIcEC2B8ne180100Ev, symObjAddr: 0xAD24, symBinAddr: 0x10000CB20, symSize: 0x2C }
  - { offset: 0x19775, size: 0x8, addend: 0x0, symName: __ZNSt3__116__non_trivial_ifILb1ENS_9allocatorIcEEEC2B8ne180100Ev, symObjAddr: 0xAD50, symBinAddr: 0x10000CB4C, symSize: 0x14 }
  - { offset: 0x197A8, size: 0x8, addend: 0x0, symName: __ZNSt3__116allocator_traitsINS_9allocatorIcEEE37select_on_container_copy_constructionB8ne180100IS2_vvEES2_RKS2_, symObjAddr: 0xAD64, symBinAddr: 0x10000CB60, symSize: 0x10 }
  - { offset: 0x197D7, size: 0x8, addend: 0x0, symName: __ZNKSt3__112basic_stringIcNS_11char_traitsIcEENS_9allocatorIcEEE13get_allocatorB8ne180100Ev, symObjAddr: 0xAD74, symBinAddr: 0x10000CB70, symSize: 0x24 }
  - { offset: 0x197FC, size: 0x8, addend: 0x0, symName: __ZNSt3__112basic_stringIcNS_11char_traitsIcEENS_9allocatorIcEEEC1B8ne180100ENS_24__uninitialized_size_tagEmRKS4_, symObjAddr: 0xAD98, symBinAddr: 0x10000CB94, symSize: 0x3C }
  - { offset: 0x1984E, size: 0x8, addend: 0x0, symName: __ZNSt3__112basic_stringIcNS_11char_traitsIcEENS_9allocatorIcEEE13__get_pointerB8ne180100Ev, symObjAddr: 0xADE8, symBinAddr: 0x10000CBE4, symSize: 0x54 }
  - { offset: 0x19872, size: 0x8, addend: 0x0, symName: __ZNSt3__111char_traitsIcE4copyB8ne180100EPcPKcm, symObjAddr: 0xAE3C, symBinAddr: 0x10000CC38, symSize: 0x40 }
  - { offset: 0x198B1, size: 0x8, addend: 0x0, symName: __ZNKSt3__112basic_stringIcNS_11char_traitsIcEENS_9allocatorIcEEE4dataB8ne180100Ev, symObjAddr: 0xAE7C, symBinAddr: 0x10000CC78, symSize: 0x28 }
  - { offset: 0x198D5, size: 0x8, addend: 0x0, symName: __ZNSt3__111char_traitsIcE6assignB8ne180100EPcmc, symObjAddr: 0xAEA4, symBinAddr: 0x10000CCA0, symSize: 0x44 }
  - { offset: 0x19914, size: 0x8, addend: 0x0, symName: __ZNKSt3__112basic_stringIcNS_11char_traitsIcEENS_9allocatorIcEEE7__allocB8ne180100Ev, symObjAddr: 0xAEE8, symBinAddr: 0x10000CCE4, symSize: 0x24 }
  - { offset: 0x19939, size: 0x8, addend: 0x0, symName: __ZNKSt3__117__compressed_pairINS_12basic_stringIcNS_11char_traitsIcEENS_9allocatorIcEEE5__repES5_E6secondB8ne180100Ev, symObjAddr: 0xAF0C, symBinAddr: 0x10000CD08, symSize: 0x24 }
  - { offset: 0x1995E, size: 0x8, addend: 0x0, symName: __ZNKSt3__122__compressed_pair_elemINS_9allocatorIcEELi1ELb1EE5__getB8ne180100Ev, symObjAddr: 0xAF30, symBinAddr: 0x10000CD2C, symSize: 0x14 }
  - { offset: 0x19983, size: 0x8, addend: 0x0, symName: __ZNSt3__112basic_stringIcNS_11char_traitsIcEENS_9allocatorIcEEEC2B8ne180100ENS_24__uninitialized_size_tagEmRKS4_, symObjAddr: 0xAF44, symBinAddr: 0x10000CD40, symSize: 0x11C }
  - { offset: 0x19A01, size: 0x8, addend: 0x0, symName: __ZNSt3__117__compressed_pairINS_12basic_stringIcNS_11char_traitsIcEENS_9allocatorIcEEE5__repES5_EC1B8ne180100INS_18__default_init_tagERKS5_EEOT_OT0_, symObjAddr: 0xB060, symBinAddr: 0x10000CE5C, symSize: 0x3C }
  - { offset: 0x19A58, size: 0x8, addend: 0x0, symName: __ZNKSt3__112basic_stringIcNS_11char_traitsIcEENS_9allocatorIcEEE8max_sizeB8ne180100Ev, symObjAddr: 0xB09C, symBinAddr: 0x10000CE98, symSize: 0xAC }
  - { offset: 0x19AA9, size: 0x8, addend: 0x0, symName: __ZNKSt3__112basic_stringIcNS_11char_traitsIcEENS_9allocatorIcEEE20__throw_length_errorB8ne180100Ev, symObjAddr: 0xB148, symBinAddr: 0x10000CF44, symSize: 0x1C }
  - { offset: 0x19ACE, size: 0x8, addend: 0x0, symName: __ZNSt3__112basic_stringIcNS_11char_traitsIcEENS_9allocatorIcEEE13__fits_in_ssoB8ne180100Em, symObjAddr: 0xB164, symBinAddr: 0x10000CF60, symSize: 0x20 }
  - { offset: 0x19AF1, size: 0x8, addend: 0x0, symName: __ZNSt3__112basic_stringIcNS_11char_traitsIcEENS_9allocatorIcEEE11__recommendB8ne180100Em, symObjAddr: 0xB184, symBinAddr: 0x10000CF80, symSize: 0x84 }
  - { offset: 0x19B23, size: 0x8, addend: 0x0, symName: __ZNSt3__116allocator_traitsINS_9allocatorIcEEE8allocateB8ne180100ERS2_m, symObjAddr: 0xB208, symBinAddr: 0x10000D004, symSize: 0x2C }
  - { offset: 0x19B56, size: 0x8, addend: 0x0, symName: __ZNSt3__112basic_stringIcNS_11char_traitsIcEENS_9allocatorIcEEE16__begin_lifetimeB8ne180100EPcm, symObjAddr: 0xB234, symBinAddr: 0x10000D030, symSize: 0x14 }
  - { offset: 0x19B89, size: 0x8, addend: 0x0, symName: __ZNSt3__112basic_stringIcNS_11char_traitsIcEENS_9allocatorIcEEE14__set_long_capB8ne180100Em, symObjAddr: 0xB248, symBinAddr: 0x10000D044, symSize: 0x70 }
  - { offset: 0x19BBD, size: 0x8, addend: 0x0, symName: __ZNSt3__112basic_stringIcNS_11char_traitsIcEENS_9allocatorIcEEE18__set_long_pointerB8ne180100EPc, symObjAddr: 0xB2B8, symBinAddr: 0x10000D0B4, symSize: 0x38 }
  - { offset: 0x19BF1, size: 0x8, addend: 0x0, symName: __ZNSt3__112basic_stringIcNS_11char_traitsIcEENS_9allocatorIcEEE15__set_long_sizeB8ne180100Em, symObjAddr: 0xB2F0, symBinAddr: 0x10000D0EC, symSize: 0x38 }
  - { offset: 0x19C25, size: 0x8, addend: 0x0, symName: __ZNSt3__117__compressed_pairINS_12basic_stringIcNS_11char_traitsIcEENS_9allocatorIcEEE5__repES5_EC2B8ne180100INS_18__default_init_tagERKS5_EEOT_OT0_, symObjAddr: 0xB328, symBinAddr: 0x10000D124, symSize: 0x40 }
  - { offset: 0x19C7C, size: 0x8, addend: 0x0, symName: __ZNSt3__122__compressed_pair_elemINS_12basic_stringIcNS_11char_traitsIcEENS_9allocatorIcEEE5__repELi0ELb0EEC2B8ne180100ENS_18__default_init_tagE, symObjAddr: 0xB368, symBinAddr: 0x10000D164, symSize: 0x14 }
  - { offset: 0x19CB0, size: 0x8, addend: 0x0, symName: __ZNSt3__122__compressed_pair_elemINS_9allocatorIcEELi1ELb1EEC2B8ne180100IRKS2_vEEOT_, symObjAddr: 0xB37C, symBinAddr: 0x10000D178, symSize: 0x18 }
  - { offset: 0x19CF0, size: 0x8, addend: 0x0, symName: __ZNSt3__116allocator_traitsINS_9allocatorIcEEE8max_sizeB8ne180100IS2_vEEmRKS2_, symObjAddr: 0xB394, symBinAddr: 0x10000D190, symSize: 0x24 }
  - { offset: 0x19D1E, size: 0x8, addend: 0x0, symName: __ZNSt3__114numeric_limitsImE3maxB8ne180100Ev, symObjAddr: 0xB3B8, symBinAddr: 0x10000D1B4, symSize: 0x14 }
  - { offset: 0x19D32, size: 0x8, addend: 0x0, symName: __ZNKSt3__19allocatorIcE8max_sizeB8ne180100Ev, symObjAddr: 0xB3CC, symBinAddr: 0x10000D1C8, symSize: 0x14 }
  - { offset: 0x19D57, size: 0x8, addend: 0x0, symName: __ZNSt3__123__libcpp_numeric_limitsImLb1EE3maxB8ne180100Ev, symObjAddr: 0xB3E0, symBinAddr: 0x10000D1DC, symSize: 0x8 }
  - { offset: 0x19D6B, size: 0x8, addend: 0x0, symName: __ZNSt3__112basic_stringIcNS_11char_traitsIcEENS_9allocatorIcEEE10__align_itB8ne180100ILm8EEEmm, symObjAddr: 0xB3E8, symBinAddr: 0x10000D1E4, symSize: 0x1C }
  - { offset: 0x19D99, size: 0x8, addend: 0x0, symName: __ZNSt3__19allocatorIcE8allocateB8ne180100Em, symObjAddr: 0xB404, symBinAddr: 0x10000D200, symSize: 0x58 }
  - { offset: 0x19DEF, size: 0x8, addend: 0x0, symName: __ZNKSt3__114__copy_trivialclB8ne180100IKccLi0EEENS_4pairIPT_PT0_EES5_S5_S7_, symObjAddr: 0xB67C, symBinAddr: 0x10000D478, symSize: 0x48 }
  - { offset: 0x19E74, size: 0x8, addend: 0x0, symName: __ZNSt3__14pairIPKcS2_EC1B8ne180100IS2_S2_Li0EEEOT_OT0_, symObjAddr: 0xB7E4, symBinAddr: 0x10000D5E0, symSize: 0x3C }
  - { offset: 0x19ED1, size: 0x8, addend: 0x0, symName: __ZNSt3__14pairIPKcS2_EC2B8ne180100IS2_S2_Li0EEEOT_OT0_, symObjAddr: 0xB820, symBinAddr: 0x10000D61C, symSize: 0x34 }
  - { offset: 0x19F2D, size: 0x8, addend: 0x0, symName: __ZNSt3__118__unwrap_iter_implIPKcLb1EE8__unwrapB8ne180100ES2_, symObjAddr: 0xB854, symBinAddr: 0x10000D650, symSize: 0x24 }
  - { offset: 0x19F5A, size: 0x8, addend: 0x0, symName: __ZNSt3__14pairIPKcPcEC1B8ne180100IRS2_S3_Li0EEEOT_OT0_, symObjAddr: 0xB9A0, symBinAddr: 0x10000D79C, symSize: 0x3C }
  - { offset: 0x19FB7, size: 0x8, addend: 0x0, symName: __ZNSt3__14pairIPKcPcEC2B8ne180100IRS2_S3_Li0EEEOT_OT0_, symObjAddr: 0xB9DC, symBinAddr: 0x10000D7D8, symSize: 0x34 }
  - { offset: 0x1A013, size: 0x8, addend: 0x0, symName: __ZNSt3__118__unwrap_iter_implIPcLb1EE8__unwrapB8ne180100ES1_, symObjAddr: 0xBA10, symBinAddr: 0x10000D80C, symSize: 0x24 }
  - { offset: 0x1A036, size: 0x8, addend: 0x0, symName: __ZNSt3__14pairIPKcPcEC1B8ne180100IS2_S3_Li0EEEOT_OT0_, symObjAddr: 0xBA34, symBinAddr: 0x10000D830, symSize: 0x3C }
  - { offset: 0x1A093, size: 0x8, addend: 0x0, symName: __ZNSt3__14pairIPKcPcEC2B8ne180100IS2_S3_Li0EEEOT_OT0_, symObjAddr: 0xBA70, symBinAddr: 0x10000D86C, symSize: 0x34 }
  - { offset: 0x1A0EF, size: 0x8, addend: 0x0, symName: __ZNSt3__118__unwrap_iter_implIPKcLb1EE8__rewrapB8ne180100ES2_S2_, symObjAddr: 0xBAE0, symBinAddr: 0x10000D8DC, symSize: 0x48 }
  - { offset: 0x1A11F, size: 0x8, addend: 0x0, symName: __ZNSt3__118__unwrap_iter_implIPcLb1EE8__rewrapB8ne180100ES1_S1_, symObjAddr: 0xBB28, symBinAddr: 0x10000D924, symSize: 0x48 }
  - { offset: 0x1A150, size: 0x8, addend: 0x0, symName: __ZNKSt3__112basic_stringIcNS_11char_traitsIcEENS_9allocatorIcEEE13__get_pointerB8ne180100Ev, symObjAddr: 0xBB70, symBinAddr: 0x10000D96C, symSize: 0x54 }
  - { offset: 0x1A175, size: 0x8, addend: 0x0, symName: __ZNKSt3__112basic_stringIcNS_11char_traitsIcEENS_9allocatorIcEEE18__get_long_pointerB8ne180100Ev, symObjAddr: 0xBBC4, symBinAddr: 0x10000D9C0, symSize: 0x28 }
  - { offset: 0x1A19A, size: 0x8, addend: 0x0, symName: __ZNKSt3__112basic_stringIcNS_11char_traitsIcEENS_9allocatorIcEEE19__get_short_pointerB8ne180100Ev, symObjAddr: 0xBBEC, symBinAddr: 0x10000D9E8, symSize: 0x28 }
  - { offset: 0x1A1BF, size: 0x8, addend: 0x0, symName: __ZNSt3__114pointer_traitsIPKcE10pointer_toB8ne180100ERS1_, symObjAddr: 0xBC14, symBinAddr: 0x10000DA10, symSize: 0x14 }
  - { offset: 0x1A1E1, size: 0x8, addend: 0x0, symName: __ZNSt3__116__variant_detail8__access9__variant9__get_altB8ne180100ILm0ERNS_7variantIJ4WORK5SLEEP4FREEEEEEEODaOT0_, symObjAddr: 0xBD70, symBinAddr: 0x10000DB6C, symSize: 0x28 }
  - { offset: 0x1A217, size: 0x8, addend: 0x0, symName: __ZNSt3__116__variant_detail8__access6__base9__get_altB8ne180100ILm0ERNS0_6__implIJ4WORK5SLEEP4FREEEEEEEODaOT0_, symObjAddr: 0xBD98, symBinAddr: 0x10000DB94, symSize: 0x24 }
  - { offset: 0x1A24E, size: 0x8, addend: 0x0, symName: __ZNKSt3__17variantIJ11UniCourse_t6Mand_tEE5indexB8ne180100Ev, symObjAddr: 0xBDEC, symBinAddr: 0x10000DBE8, symSize: 0x24 }
  - { offset: 0x1A272, size: 0x8, addend: 0x0, symName: __ZNSt3__116__variant_detail8__access9__variant9__get_altB8ne180100ILm0ERKNS_7variantIJ11UniCourse_t6Mand_tEEEEEODaOT0_, symObjAddr: 0xBE6C, symBinAddr: 0x10000DC68, symSize: 0x24 }
  - { offset: 0x1A2A8, size: 0x8, addend: 0x0, symName: __ZNSt3__116__variant_detail8__access6__base9__get_altB8ne180100ILm0ERKNS0_6__implIJ11UniCourse_t6Mand_tEEEEEODaOT0_, symObjAddr: 0xBE90, symBinAddr: 0x10000DC8C, symSize: 0x24 }
  - { offset: 0x1A2DE, size: 0x8, addend: 0x0, symName: __ZNSt3__116__variant_detail8__access9__variant9__get_altB8ne180100ILm1ERKNS_7variantIJ11UniCourse_t6Mand_tEEEEEODaOT0_, symObjAddr: 0xBF40, symBinAddr: 0x10000DD3C, symSize: 0x24 }
  - { offset: 0x1A314, size: 0x8, addend: 0x0, symName: __ZNSt3__116__variant_detail8__access6__base9__get_altB8ne180100ILm1ERKNS0_6__implIJ11UniCourse_t6Mand_tEEEEEODaOT0_, symObjAddr: 0xBF64, symBinAddr: 0x10000DD60, symSize: 0x24 }
  - { offset: 0x1A34A, size: 0x8, addend: 0x0, symName: __ZNSt3__116__variant_detail8__access9__variant9__get_altB8ne180100ILm1ERNS_7variantIJ4WORK5SLEEP4FREEEEEEEODaOT0_, symObjAddr: 0xC014, symBinAddr: 0x10000DE10, symSize: 0x28 }
  - { offset: 0x1A380, size: 0x8, addend: 0x0, symName: __ZNSt3__116__variant_detail8__access6__base9__get_altB8ne180100ILm1ERNS0_6__implIJ4WORK5SLEEP4FREEEEEEEODaOT0_, symObjAddr: 0xC03C, symBinAddr: 0x10000DE38, symSize: 0x24 }
  - { offset: 0x1A3B6, size: 0x8, addend: 0x0, symName: __ZNSt3__116__variant_detail8__access9__variant9__get_altB8ne180100ILm0ERKNS_7variantIJ7Break_t6None_tEEEEEODaOT0_, symObjAddr: 0xC0EC, symBinAddr: 0x10000DEE8, symSize: 0x24 }
  - { offset: 0x1A3EC, size: 0x8, addend: 0x0, symName: __ZNSt3__116__variant_detail8__access6__base9__get_altB8ne180100ILm0ERKNS0_6__implIJ7Break_t6None_tEEEEEODaOT0_, symObjAddr: 0xC110, symBinAddr: 0x10000DF0C, symSize: 0x24 }
  - { offset: 0x1A422, size: 0x8, addend: 0x0, symName: __ZNSt3__116__variant_detail8__access9__variant9__get_altB8ne180100ILm1ERKNS_7variantIJ7Break_t6None_tEEEEEODaOT0_, symObjAddr: 0xC190, symBinAddr: 0x10000DF8C, symSize: 0x24 }
  - { offset: 0x1A458, size: 0x8, addend: 0x0, symName: __ZNSt3__116__variant_detail8__access6__base9__get_altB8ne180100ILm1ERKNS0_6__implIJ7Break_t6None_tEEEEEODaOT0_, symObjAddr: 0xC1B4, symBinAddr: 0x10000DFB0, symSize: 0x24 }
  - { offset: 0x1A48F, size: 0x8, addend: 0x0, symName: __ZN11TimeTable_tD2Ev, symObjAddr: 0xC1D8, symBinAddr: 0x10000DFD4, symSize: 0x2C }
  - { offset: 0x1A4BA, size: 0x8, addend: 0x0, symName: __ZN10Activity_tD2Ev, symObjAddr: 0xC204, symBinAddr: 0x10000E000, symSize: 0x2C }
  - { offset: 0x1A4E5, size: 0x8, addend: 0x0, symName: __ZN6None_tD2Ev, symObjAddr: 0xC230, symBinAddr: 0x10000E02C, symSize: 0x2C }
  - { offset: 0x1A510, size: 0x8, addend: 0x0, symName: __ZN7Break_tD2Ev, symObjAddr: 0xC25C, symBinAddr: 0x10000E058, symSize: 0x30 }
  - { offset: 0x1A53B, size: 0x8, addend: 0x0, symName: __ZN7Sleep_tD2Ev, symObjAddr: 0xC28C, symBinAddr: 0x10000E088, symSize: 0x30 }
  - { offset: 0x1A566, size: 0x8, addend: 0x0, symName: __ZN6Mand_tD2Ev, symObjAddr: 0xC2BC, symBinAddr: 0x10000E0B8, symSize: 0x2C }
  - { offset: 0x1A591, size: 0x8, addend: 0x0, symName: __ZN11UniCourse_tD2Ev, symObjAddr: 0xC2E8, symBinAddr: 0x10000E0E4, symSize: 0x38 }
  - { offset: 0x1A5BC, size: 0x8, addend: 0x0, symName: __ZNSt3__16vectorINS0_INS_4pairIhhEENS_9allocatorIS2_EEEENS3_IS5_EEED1B8ne180100Ev, symObjAddr: 0xC320, symBinAddr: 0x10000E11C, symSize: 0x2C }
  - { offset: 0x1A5E5, size: 0x8, addend: 0x0, symName: __ZNSt3__16vectorINS0_INS_4pairIhhEENS_9allocatorIS2_EEEENS3_IS5_EEED2B8ne180100Ev, symObjAddr: 0xC34C, symBinAddr: 0x10000E148, symSize: 0x40 }
  - { offset: 0x1A60E, size: 0x8, addend: 0x0, symName: __ZN6StringD2Ev, symObjAddr: 0xC38C, symBinAddr: 0x10000E188, symSize: 0x50 }
  - { offset: 0x1A637, size: 0x8, addend: 0x0, symName: __ZN10Activity_tC2I4FREEEET_hh, symObjAddr: 0xC3DC, symBinAddr: 0x10000E1D8, symSize: 0x7C }
  - { offset: 0x1A694, size: 0x8, addend: 0x0, symName: __ZNSt3__17variantIJ4WORK5SLEEP4FREEEEC1B8ne180100IRS3_Li0ELi0ELi0ES3_Lm2ELi0EEEOT_, symObjAddr: 0xC458, symBinAddr: 0x10000E254, symSize: 0x34 }
  - { offset: 0x1A700, size: 0x8, addend: 0x0, symName: __ZNSt3__14pairIhhEC1B8ne180100ILb1ELi0EEEv, symObjAddr: 0xC48C, symBinAddr: 0x10000E288, symSize: 0x2C }
  - { offset: 0x1A73E, size: 0x8, addend: 0x0, symName: __ZNSt3__14pairIhhEC1B8ne180100IRhS3_Li0EEEOT_OT0_, symObjAddr: 0xC4B8, symBinAddr: 0x10000E2B4, symSize: 0x3C }
  - { offset: 0x1A79B, size: 0x8, addend: 0x0, symName: __ZNSt3__14pairIhhEaSB8ne180100EOS1_, symObjAddr: 0xC4F4, symBinAddr: 0x10000E2F0, symSize: 0x30 }
  - { offset: 0x1A7CF, size: 0x8, addend: 0x0, symName: __ZNSt3__17variantIJ4WORK5SLEEP4FREEEEC2B8ne180100IRS3_Li0ELi0ELi0ES3_Lm2ELi0EEEOT_, symObjAddr: 0xC524, symBinAddr: 0x10000E320, symSize: 0x38 }
  - { offset: 0x1A83B, size: 0x8, addend: 0x0, symName: __ZNSt3__116__variant_detail6__implIJ4WORK5SLEEP4FREEEECI1NS0_6__baseILNS0_6_TraitE1EJS2_S3_S4_EEEILm2EJRS4_EEENS_16in_place_index_tIXT_EEEDpOT0_, symObjAddr: 0xC55C, symBinAddr: 0x10000E358, symSize: 0x34 }
  - { offset: 0x1A879, size: 0x8, addend: 0x0, symName: __ZNSt3__116__variant_detail6__implIJ4WORK5SLEEP4FREEEECI2NS0_6__baseILNS0_6_TraitE1EJS2_S3_S4_EEEILm2EJRS4_EEENS_16in_place_index_tIXT_EEEDpOT0_, symObjAddr: 0xC590, symBinAddr: 0x10000E38C, symSize: 0x34 }
  - { offset: 0x1A8B7, size: 0x8, addend: 0x0, symName: __ZNSt3__116__variant_detail17__copy_assignmentINS0_8__traitsIJ4WORK5SLEEP4FREEEEELNS0_6_TraitE1EECI2NS0_6__baseILS7_1EJS3_S4_S5_EEEILm2EJRS5_EEENS_16in_place_index_tIXT_EEEDpOT0_, symObjAddr: 0xC5C4, symBinAddr: 0x10000E3C0, symSize: 0x34 }
  - { offset: 0x1A8F5, size: 0x8, addend: 0x0, symName: __ZNSt3__116__variant_detail17__move_assignmentINS0_8__traitsIJ4WORK5SLEEP4FREEEEELNS0_6_TraitE1EECI2NS0_6__baseILS7_1EJS3_S4_S5_EEEILm2EJRS5_EEENS_16in_place_index_tIXT_EEEDpOT0_, symObjAddr: 0xC5F8, symBinAddr: 0x10000E3F4, symSize: 0x34 }
  - { offset: 0x1A933, size: 0x8, addend: 0x0, symName: __ZNSt3__116__variant_detail12__assignmentINS0_8__traitsIJ4WORK5SLEEP4FREEEEEECI2NS0_6__baseILNS0_6_TraitE1EJS3_S4_S5_EEEILm2EJRS5_EEENS_16in_place_index_tIXT_EEEDpOT0_, symObjAddr: 0xC62C, symBinAddr: 0x10000E428, symSize: 0x34 }
  - { offset: 0x1A971, size: 0x8, addend: 0x0, symName: __ZNSt3__116__variant_detail18__copy_constructorINS0_8__traitsIJ4WORK5SLEEP4FREEEEELNS0_6_TraitE1EECI2NS0_6__baseILS7_1EJS3_S4_S5_EEEILm2EJRS5_EEENS_16in_place_index_tIXT_EEEDpOT0_, symObjAddr: 0xC660, symBinAddr: 0x10000E45C, symSize: 0x34 }
  - { offset: 0x1A9AF, size: 0x8, addend: 0x0, symName: __ZNSt3__116__variant_detail18__move_constructorINS0_8__traitsIJ4WORK5SLEEP4FREEEEELNS0_6_TraitE1EECI2NS0_6__baseILS7_1EJS3_S4_S5_EEEILm2EJRS5_EEENS_16in_place_index_tIXT_EEEDpOT0_, symObjAddr: 0xC694, symBinAddr: 0x10000E490, symSize: 0x34 }
  - { offset: 0x1A9ED, size: 0x8, addend: 0x0, symName: __ZNSt3__116__variant_detail6__ctorINS0_8__traitsIJ4WORK5SLEEP4FREEEEEECI2NS0_6__baseILNS0_6_TraitE1EJS3_S4_S5_EEEILm2EJRS5_EEENS_16in_place_index_tIXT_EEEDpOT0_, symObjAddr: 0xC6C8, symBinAddr: 0x10000E4C4, symSize: 0x34 }
  - { offset: 0x1AA2B, size: 0x8, addend: 0x0, symName: __ZNSt3__116__variant_detail6__dtorINS0_8__traitsIJ4WORK5SLEEP4FREEEEELNS0_6_TraitE1EECI2NS0_6__baseILS7_1EJS3_S4_S5_EEEILm2EJRS5_EEENS_16in_place_index_tIXT_EEEDpOT0_, symObjAddr: 0xC6FC, symBinAddr: 0x10000E4F8, symSize: 0x34 }
  - { offset: 0x1AA69, size: 0x8, addend: 0x0, symName: __ZNSt3__116__variant_detail6__baseILNS0_6_TraitE1EJ4WORK5SLEEP4FREEEEC2B8ne180100ILm2EJRS5_EEENS_16in_place_index_tIXT_EEEDpOT0_, symObjAddr: 0xC730, symBinAddr: 0x10000E52C, symSize: 0x3C }
  - { offset: 0x1AAC1, size: 0x8, addend: 0x0, symName: __ZNSt3__116__variant_detail7__unionILNS0_6_TraitE1ELm0EJ4WORK5SLEEP4FREEEEC1B8ne180100ILm2EJRS5_EEENS_16in_place_index_tIXT_EEEDpOT0_, symObjAddr: 0xC76C, symBinAddr: 0x10000E568, symSize: 0x34 }
  - { offset: 0x1AB19, size: 0x8, addend: 0x0, symName: __ZNSt3__116__variant_detail7__unionILNS0_6_TraitE1ELm0EJ4WORK5SLEEP4FREEEEC2B8ne180100ILm2EJRS5_EEENS_16in_place_index_tIXT_EEEDpOT0_, symObjAddr: 0xC7A0, symBinAddr: 0x10000E59C, symSize: 0x34 }
  - { offset: 0x1AB71, size: 0x8, addend: 0x0, symName: __ZNSt3__116__variant_detail7__unionILNS0_6_TraitE1ELm1EJ5SLEEP4FREEEEC1B8ne180100ILm1EJRS4_EEENS_16in_place_index_tIXT_EEEDpOT0_, symObjAddr: 0xC7D4, symBinAddr: 0x10000E5D0, symSize: 0x34 }
  - { offset: 0x1ABC9, size: 0x8, addend: 0x0, symName: __ZNSt3__116__variant_detail7__unionILNS0_6_TraitE1ELm1EJ5SLEEP4FREEEEC2B8ne180100ILm1EJRS4_EEENS_16in_place_index_tIXT_EEEDpOT0_, symObjAddr: 0xC808, symBinAddr: 0x10000E604, symSize: 0x34 }
  - { offset: 0x1AC21, size: 0x8, addend: 0x0, symName: __ZNSt3__116__variant_detail7__unionILNS0_6_TraitE1ELm2EJ4FREEEEC1B8ne180100IJRS3_EEENS_16in_place_index_tILm0EEEDpOT_, symObjAddr: 0xC83C, symBinAddr: 0x10000E638, symSize: 0x34 }
  - { offset: 0x1AC6F, size: 0x8, addend: 0x0, symName: __ZNSt3__116__variant_detail7__unionILNS0_6_TraitE1ELm2EJ4FREEEEC2B8ne180100IJRS3_EEENS_16in_place_index_tILm0EEEDpOT_, symObjAddr: 0xC870, symBinAddr: 0x10000E66C, symSize: 0x34 }
  - { offset: 0x1ACBD, size: 0x8, addend: 0x0, symName: __ZNSt3__116__variant_detail5__altILm2E4FREEEC1B8ne180100IJRS2_EEENS_10in_place_tEDpOT_, symObjAddr: 0xC8A4, symBinAddr: 0x10000E6A0, symSize: 0x34 }
  - { offset: 0x1AD0B, size: 0x8, addend: 0x0, symName: __ZNSt3__116__variant_detail5__altILm2E4FREEEC2B8ne180100IJRS2_EEENS_10in_place_tEDpOT_, symObjAddr: 0xC8D8, symBinAddr: 0x10000E6D4, symSize: 0x34 }
  - { offset: 0x1AD59, size: 0x8, addend: 0x0, symName: __ZNSt3__14pairIhhEC2B8ne180100ILb1ELi0EEEv, symObjAddr: 0xC90C, symBinAddr: 0x10000E708, symSize: 0x1C }
  - { offset: 0x1AD92, size: 0x8, addend: 0x0, symName: __ZNSt3__14pairIhhEC2B8ne180100IRhS3_Li0EEEOT_OT0_, symObjAddr: 0xC928, symBinAddr: 0x10000E724, symSize: 0x34 }
  - { offset: 0x1ADEF, size: 0x8, addend: 0x0, symName: __ZNSt3__16vectorINS0_INS_4pairIhhEENS_9allocatorIS2_EEEENS3_IS5_EEEC2B8ne180100Ev, symObjAddr: 0xC95C, symBinAddr: 0x10000E758, symSize: 0x4C }
  - { offset: 0x1AE18, size: 0x8, addend: 0x0, symName: __ZNSt3__117__compressed_pairIPNS_6vectorINS_4pairIhhEENS_9allocatorIS3_EEEENS4_IS6_EEEC1B8ne180100IDnNS_18__default_init_tagEEEOT_OT0_, symObjAddr: 0xC9A8, symBinAddr: 0x10000E7A4, symSize: 0x3C }
  - { offset: 0x1AE6F, size: 0x8, addend: 0x0, symName: __ZNSt3__117__compressed_pairIPNS_6vectorINS_4pairIhhEENS_9allocatorIS3_EEEENS4_IS6_EEEC2B8ne180100IDnNS_18__default_init_tagEEEOT_OT0_, symObjAddr: 0xC9E4, symBinAddr: 0x10000E7E0, symSize: 0x40 }
  - { offset: 0x1AEC6, size: 0x8, addend: 0x0, symName: __ZNSt3__122__compressed_pair_elemINS_9allocatorINS_6vectorINS_4pairIhhEENS1_IS4_EEEEEELi1ELb1EEC2B8ne180100ENS_18__default_init_tagE, symObjAddr: 0xCA24, symBinAddr: 0x10000E820, symSize: 0x2C }
  - { offset: 0x1AEFA, size: 0x8, addend: 0x0, symName: __ZNSt3__19allocatorINS_6vectorINS_4pairIhhEENS0_IS3_EEEEEC2B8ne180100Ev, symObjAddr: 0xCA50, symBinAddr: 0x10000E84C, symSize: 0x2C }
  - { offset: 0x1AF23, size: 0x8, addend: 0x0, symName: __ZNSt3__116__non_trivial_ifILb1ENS_9allocatorINS_6vectorINS_4pairIhhEENS1_IS4_EEEEEEEC2B8ne180100Ev, symObjAddr: 0xCA7C, symBinAddr: 0x10000E878, symSize: 0x14 }
  - { offset: 0x1AF4C, size: 0x8, addend: 0x0, symName: __ZN10Activity_tC2I4WORKEET_hh, symObjAddr: 0xCA90, symBinAddr: 0x10000E88C, symSize: 0x7C }
  - { offset: 0x1AFA9, size: 0x8, addend: 0x0, symName: __ZNSt3__17variantIJ4WORK5SLEEP4FREEEEC1B8ne180100IRS1_Li0ELi0ELi0ES1_Lm0ELi0EEEOT_, symObjAddr: 0xCB0C, symBinAddr: 0x10000E908, symSize: 0x34 }
  - { offset: 0x1B015, size: 0x8, addend: 0x0, symName: __ZNSt3__17variantIJ4WORK5SLEEP4FREEEEC2B8ne180100IRS1_Li0ELi0ELi0ES1_Lm0ELi0EEEOT_, symObjAddr: 0xCB40, symBinAddr: 0x10000E93C, symSize: 0x38 }
  - { offset: 0x1B081, size: 0x8, addend: 0x0, symName: __ZNSt3__116__variant_detail6__implIJ4WORK5SLEEP4FREEEECI1NS0_6__baseILNS0_6_TraitE1EJS2_S3_S4_EEEILm0EJRS2_EEENS_16in_place_index_tIXT_EEEDpOT0_, symObjAddr: 0xCB78, symBinAddr: 0x10000E974, symSize: 0x34 }
  - { offset: 0x1B0BF, size: 0x8, addend: 0x0, symName: __ZNSt3__116__variant_detail6__implIJ4WORK5SLEEP4FREEEECI2NS0_6__baseILNS0_6_TraitE1EJS2_S3_S4_EEEILm0EJRS2_EEENS_16in_place_index_tIXT_EEEDpOT0_, symObjAddr: 0xCBAC, symBinAddr: 0x10000E9A8, symSize: 0x34 }
  - { offset: 0x1B0FD, size: 0x8, addend: 0x0, symName: __ZNSt3__116__variant_detail17__copy_assignmentINS0_8__traitsIJ4WORK5SLEEP4FREEEEELNS0_6_TraitE1EECI2NS0_6__baseILS7_1EJS3_S4_S5_EEEILm0EJRS3_EEENS_16in_place_index_tIXT_EEEDpOT0_, symObjAddr: 0xCBE0, symBinAddr: 0x10000E9DC, symSize: 0x34 }
  - { offset: 0x1B13B, size: 0x8, addend: 0x0, symName: __ZNSt3__116__variant_detail17__move_assignmentINS0_8__traitsIJ4WORK5SLEEP4FREEEEELNS0_6_TraitE1EECI2NS0_6__baseILS7_1EJS3_S4_S5_EEEILm0EJRS3_EEENS_16in_place_index_tIXT_EEEDpOT0_, symObjAddr: 0xCC14, symBinAddr: 0x10000EA10, symSize: 0x34 }
  - { offset: 0x1B179, size: 0x8, addend: 0x0, symName: __ZNSt3__116__variant_detail12__assignmentINS0_8__traitsIJ4WORK5SLEEP4FREEEEEECI2NS0_6__baseILNS0_6_TraitE1EJS3_S4_S5_EEEILm0EJRS3_EEENS_16in_place_index_tIXT_EEEDpOT0_, symObjAddr: 0xCC48, symBinAddr: 0x10000EA44, symSize: 0x34 }
  - { offset: 0x1B1B7, size: 0x8, addend: 0x0, symName: __ZNSt3__116__variant_detail18__copy_constructorINS0_8__traitsIJ4WORK5SLEEP4FREEEEELNS0_6_TraitE1EECI2NS0_6__baseILS7_1EJS3_S4_S5_EEEILm0EJRS3_EEENS_16in_place_index_tIXT_EEEDpOT0_, symObjAddr: 0xCC7C, symBinAddr: 0x10000EA78, symSize: 0x34 }
  - { offset: 0x1B1F5, size: 0x8, addend: 0x0, symName: __ZNSt3__116__variant_detail18__move_constructorINS0_8__traitsIJ4WORK5SLEEP4FREEEEELNS0_6_TraitE1EECI2NS0_6__baseILS7_1EJS3_S4_S5_EEEILm0EJRS3_EEENS_16in_place_index_tIXT_EEEDpOT0_, symObjAddr: 0xCCB0, symBinAddr: 0x10000EAAC, symSize: 0x34 }
  - { offset: 0x1B233, size: 0x8, addend: 0x0, symName: __ZNSt3__116__variant_detail6__ctorINS0_8__traitsIJ4WORK5SLEEP4FREEEEEECI2NS0_6__baseILNS0_6_TraitE1EJS3_S4_S5_EEEILm0EJRS3_EEENS_16in_place_index_tIXT_EEEDpOT0_, symObjAddr: 0xCCE4, symBinAddr: 0x10000EAE0, symSize: 0x34 }
  - { offset: 0x1B271, size: 0x8, addend: 0x0, symName: __ZNSt3__116__variant_detail6__dtorINS0_8__traitsIJ4WORK5SLEEP4FREEEEELNS0_6_TraitE1EECI2NS0_6__baseILS7_1EJS3_S4_S5_EEEILm0EJRS3_EEENS_16in_place_index_tIXT_EEEDpOT0_, symObjAddr: 0xCD18, symBinAddr: 0x10000EB14, symSize: 0x34 }
  - { offset: 0x1B2AF, size: 0x8, addend: 0x0, symName: __ZNSt3__116__variant_detail6__baseILNS0_6_TraitE1EJ4WORK5SLEEP4FREEEEC2B8ne180100ILm0EJRS3_EEENS_16in_place_index_tIXT_EEEDpOT0_, symObjAddr: 0xCD4C, symBinAddr: 0x10000EB48, symSize: 0x38 }
  - { offset: 0x1B307, size: 0x8, addend: 0x0, symName: __ZNSt3__116__variant_detail7__unionILNS0_6_TraitE1ELm0EJ4WORK5SLEEP4FREEEEC1B8ne180100IJRS3_EEENS_16in_place_index_tILm0EEEDpOT_, symObjAddr: 0xCD84, symBinAddr: 0x10000EB80, symSize: 0x34 }
  - { offset: 0x1B355, size: 0x8, addend: 0x0, symName: __ZNSt3__116__variant_detail7__unionILNS0_6_TraitE1ELm0EJ4WORK5SLEEP4FREEEEC2B8ne180100IJRS3_EEENS_16in_place_index_tILm0EEEDpOT_, symObjAddr: 0xCDB8, symBinAddr: 0x10000EBB4, symSize: 0x34 }
  - { offset: 0x1B3A3, size: 0x8, addend: 0x0, symName: __ZNSt3__116__variant_detail5__altILm0E4WORKEC1B8ne180100IJRS2_EEENS_10in_place_tEDpOT_, symObjAddr: 0xCDEC, symBinAddr: 0x10000EBE8, symSize: 0x34 }
  - { offset: 0x1B3F1, size: 0x8, addend: 0x0, symName: __ZNSt3__116__variant_detail5__altILm0E4WORKEC2B8ne180100IJRS2_EEENS_10in_place_tEDpOT_, symObjAddr: 0xCE20, symBinAddr: 0x10000EC1C, symSize: 0x34 }
  - { offset: 0x1B43F, size: 0x8, addend: 0x0, symName: __ZN10Activity_tC2I5SLEEPEET_hh, symObjAddr: 0xCE54, symBinAddr: 0x10000EC50, symSize: 0x7C }
  - { offset: 0x1B49C, size: 0x8, addend: 0x0, symName: __ZNSt3__17variantIJ4WORK5SLEEP4FREEEEC1B8ne180100IRS2_Li0ELi0ELi0ES2_Lm1ELi0EEEOT_, symObjAddr: 0xCED0, symBinAddr: 0x10000ECCC, symSize: 0x34 }
  - { offset: 0x1B508, size: 0x8, addend: 0x0, symName: __ZNSt3__17variantIJ4WORK5SLEEP4FREEEEC2B8ne180100IRS2_Li0ELi0ELi0ES2_Lm1ELi0EEEOT_, symObjAddr: 0xCF04, symBinAddr: 0x10000ED00, symSize: 0x38 }
  - { offset: 0x1B574, size: 0x8, addend: 0x0, symName: __ZNSt3__116__variant_detail6__implIJ4WORK5SLEEP4FREEEECI1NS0_6__baseILNS0_6_TraitE1EJS2_S3_S4_EEEILm1EJRS3_EEENS_16in_place_index_tIXT_EEEDpOT0_, symObjAddr: 0xCF3C, symBinAddr: 0x10000ED38, symSize: 0x34 }
  - { offset: 0x1B5B2, size: 0x8, addend: 0x0, symName: __ZNSt3__116__variant_detail6__implIJ4WORK5SLEEP4FREEEECI2NS0_6__baseILNS0_6_TraitE1EJS2_S3_S4_EEEILm1EJRS3_EEENS_16in_place_index_tIXT_EEEDpOT0_, symObjAddr: 0xCF70, symBinAddr: 0x10000ED6C, symSize: 0x34 }
  - { offset: 0x1B5F0, size: 0x8, addend: 0x0, symName: __ZNSt3__116__variant_detail17__copy_assignmentINS0_8__traitsIJ4WORK5SLEEP4FREEEEELNS0_6_TraitE1EECI2NS0_6__baseILS7_1EJS3_S4_S5_EEEILm1EJRS4_EEENS_16in_place_index_tIXT_EEEDpOT0_, symObjAddr: 0xCFA4, symBinAddr: 0x10000EDA0, symSize: 0x34 }
  - { offset: 0x1B62E, size: 0x8, addend: 0x0, symName: __ZNSt3__116__variant_detail17__move_assignmentINS0_8__traitsIJ4WORK5SLEEP4FREEEEELNS0_6_TraitE1EECI2NS0_6__baseILS7_1EJS3_S4_S5_EEEILm1EJRS4_EEENS_16in_place_index_tIXT_EEEDpOT0_, symObjAddr: 0xCFD8, symBinAddr: 0x10000EDD4, symSize: 0x34 }
  - { offset: 0x1B66C, size: 0x8, addend: 0x0, symName: __ZNSt3__116__variant_detail12__assignmentINS0_8__traitsIJ4WORK5SLEEP4FREEEEEECI2NS0_6__baseILNS0_6_TraitE1EJS3_S4_S5_EEEILm1EJRS4_EEENS_16in_place_index_tIXT_EEEDpOT0_, symObjAddr: 0xD00C, symBinAddr: 0x10000EE08, symSize: 0x34 }
  - { offset: 0x1B6AA, size: 0x8, addend: 0x0, symName: __ZNSt3__116__variant_detail18__copy_constructorINS0_8__traitsIJ4WORK5SLEEP4FREEEEELNS0_6_TraitE1EECI2NS0_6__baseILS7_1EJS3_S4_S5_EEEILm1EJRS4_EEENS_16in_place_index_tIXT_EEEDpOT0_, symObjAddr: 0xD040, symBinAddr: 0x10000EE3C, symSize: 0x34 }
  - { offset: 0x1B6E8, size: 0x8, addend: 0x0, symName: __ZNSt3__116__variant_detail18__move_constructorINS0_8__traitsIJ4WORK5SLEEP4FREEEEELNS0_6_TraitE1EECI2NS0_6__baseILS7_1EJS3_S4_S5_EEEILm1EJRS4_EEENS_16in_place_index_tIXT_EEEDpOT0_, symObjAddr: 0xD074, symBinAddr: 0x10000EE70, symSize: 0x34 }
  - { offset: 0x1B726, size: 0x8, addend: 0x0, symName: __ZNSt3__116__variant_detail6__ctorINS0_8__traitsIJ4WORK5SLEEP4FREEEEEECI2NS0_6__baseILNS0_6_TraitE1EJS3_S4_S5_EEEILm1EJRS4_EEENS_16in_place_index_tIXT_EEEDpOT0_, symObjAddr: 0xD0A8, symBinAddr: 0x10000EEA4, symSize: 0x34 }
  - { offset: 0x1B764, size: 0x8, addend: 0x0, symName: __ZNSt3__116__variant_detail6__dtorINS0_8__traitsIJ4WORK5SLEEP4FREEEEELNS0_6_TraitE1EECI2NS0_6__baseILS7_1EJS3_S4_S5_EEEILm1EJRS4_EEENS_16in_place_index_tIXT_EEEDpOT0_, symObjAddr: 0xD0DC, symBinAddr: 0x10000EED8, symSize: 0x34 }
  - { offset: 0x1B7A2, size: 0x8, addend: 0x0, symName: __ZNSt3__116__variant_detail6__baseILNS0_6_TraitE1EJ4WORK5SLEEP4FREEEEC2B8ne180100ILm1EJRS4_EEENS_16in_place_index_tIXT_EEEDpOT0_, symObjAddr: 0xD110, symBinAddr: 0x10000EF0C, symSize: 0x3C }
  - { offset: 0x1B7FA, size: 0x8, addend: 0x0, symName: __ZNSt3__116__variant_detail7__unionILNS0_6_TraitE1ELm0EJ4WORK5SLEEP4FREEEEC1B8ne180100ILm1EJRS4_EEENS_16in_place_index_tIXT_EEEDpOT0_, symObjAddr: 0xD14C, symBinAddr: 0x10000EF48, symSize: 0x34 }
  - { offset: 0x1B852, size: 0x8, addend: 0x0, symName: __ZNSt3__116__variant_detail7__unionILNS0_6_TraitE1ELm0EJ4WORK5SLEEP4FREEEEC2B8ne180100ILm1EJRS4_EEENS_16in_place_index_tIXT_EEEDpOT0_, symObjAddr: 0xD180, symBinAddr: 0x10000EF7C, symSize: 0x34 }
  - { offset: 0x1B8AA, size: 0x8, addend: 0x0, symName: __ZNSt3__116__variant_detail7__unionILNS0_6_TraitE1ELm1EJ5SLEEP4FREEEEC1B8ne180100IJRS3_EEENS_16in_place_index_tILm0EEEDpOT_, symObjAddr: 0xD1B4, symBinAddr: 0x10000EFB0, symSize: 0x34 }
  - { offset: 0x1B8F8, size: 0x8, addend: 0x0, symName: __ZNSt3__116__variant_detail7__unionILNS0_6_TraitE1ELm1EJ5SLEEP4FREEEEC2B8ne180100IJRS3_EEENS_16in_place_index_tILm0EEEDpOT_, symObjAddr: 0xD1E8, symBinAddr: 0x10000EFE4, symSize: 0x34 }
  - { offset: 0x1B946, size: 0x8, addend: 0x0, symName: __ZNSt3__116__variant_detail5__altILm1E5SLEEPEC1B8ne180100IJRS2_EEENS_10in_place_tEDpOT_, symObjAddr: 0xD21C, symBinAddr: 0x10000F018, symSize: 0x34 }
  - { offset: 0x1B994, size: 0x8, addend: 0x0, symName: __ZNSt3__116__variant_detail5__altILm1E5SLEEPEC2B8ne180100IJRS2_EEENS_10in_place_tEDpOT_, symObjAddr: 0xD250, symBinAddr: 0x10000F04C, symSize: 0x34 }
...
